
fbw.elf:     format de fichier elf32-littlearm

Déassemblage de la section .text:

00008000 <_start>:
    8000:	e1a0c00d 	mov	ip, sp
    8004:	e92dd800 	stmdb	sp!, {fp, ip, lr, pc}
    8008:	e24cb004 	sub	fp, ip, #4	; 0x4
    800c:	e3a0d102 	mov	sp, #-2147483648	; 0x80000000
    8010:	e3a00001 	mov	r0, #1	; 0x1
    8014:	e59f1008 	ldr	r1, [pc, #8]	; 8024 <.text+0x24>
    8018:	e59f2008 	ldr	r2, [pc, #8]	; 8028 <.text+0x28>
    801c:	eb00012a 	bl	84cc <main>
    8020:	eafffffe 	b	8020 <_start+0x20>
    8024:	0000a3dc 	ldreqd	sl, [r0], -ip
    8028:	0000a3e4 	andeq	sl, r0, r4, ror #7

0000802c <send_data_to_autopilot_task>:
    802c:	e1a0c00d 	mov	ip, sp
    8030:	e92dd810 	stmdb	sp!, {r4, fp, ip, lr, pc}
    8034:	e3a03036 	mov	r3, #54	; 0x36
    8038:	e5d32000 	ldrb	r2, [r3]
    803c:	e3120004 	tst	r2, #4	; 0x4
    8040:	e24cb004 	sub	fp, ip, #4	; 0x4
    8044:	089da810 	ldmeqia	sp, {r4, fp, sp, pc}
    8048:	e59f1108 	ldr	r1, [pc, #264]	; 8158 <.text+0x158>
    804c:	e5d13000 	ldrb	r3, [r1]
    8050:	e3530000 	cmp	r3, #0	; 0x0
    8054:	089da810 	ldmeqia	sp, {r4, fp, sp, pc}
    8058:	e3a03000 	mov	r3, #0	; 0x0
    805c:	e59fc0f8 	ldr	ip, [pc, #248]	; 815c <.text+0x15c>
    8060:	e59f00f8 	ldr	r0, [pc, #248]	; 8160 <.text+0x160>
    8064:	e5c13000 	strb	r3, [r1]
    8068:	e1a01003 	mov	r1, r3
    806c:	e1a02081 	mov	r2, r1, lsl #1
    8070:	e2813001 	add	r3, r1, #1	; 0x1
    8074:	e20310ff 	and	r1, r3, #255	; 0xff
    8078:	e19230b0 	ldrh	r3, [r2, r0]
    807c:	e3510008 	cmp	r1, #8	; 0x8
    8080:	e18230bc 	strh	r3, [r2, ip]
    8084:	9afffff8 	bls	806c <send_data_to_autopilot_task+0x40>
    8088:	e59f20d4 	ldr	r2, [pc, #212]	; 8164 <.text+0x164>
    808c:	e5d23000 	ldrb	r3, [r2]
    8090:	e2533000 	subs	r3, r3, #0	; 0x0
    8094:	13a03001 	movne	r3, #1	; 0x1
    8098:	e5cc3013 	strb	r3, [ip, #19]
    809c:	e59f30c4 	ldr	r3, [pc, #196]	; 8168 <.text+0x168>
    80a0:	e5d32000 	ldrb	r2, [r3]
    80a4:	e5dc1013 	ldrb	r1, [ip, #19]
    80a8:	e3520000 	cmp	r2, #0	; 0x0
    80ac:	e59f00b8 	ldr	r0, [pc, #184]	; 816c <.text+0x16c>
    80b0:	13a02002 	movne	r2, #2	; 0x2
    80b4:	03a02000 	moveq	r2, #0	; 0x0
    80b8:	e5d03000 	ldrb	r3, [r0]
    80bc:	e1822001 	orr	r2, r2, r1
    80c0:	e5cc2013 	strb	r2, [ip, #19]
    80c4:	e3530000 	cmp	r3, #0	; 0x0
    80c8:	15dc3013 	ldrneb	r3, [ip, #19]
    80cc:	13833004 	orrne	r3, r3, #4	; 0x4
    80d0:	13a02000 	movne	r2, #0	; 0x0
    80d4:	15cc3013 	strneb	r3, [ip, #19]
    80d8:	e59f3090 	ldr	r3, [pc, #144]	; 8170 <.text+0x170>
    80dc:	15c02000 	strneb	r2, [r0]
    80e0:	e59f208c 	ldr	r2, [pc, #140]	; 8174 <.text+0x174>
    80e4:	e5d31000 	ldrb	r1, [r3]
    80e8:	e59f406c 	ldr	r4, [pc, #108]	; 815c <.text+0x15c>
    80ec:	e1d200b0 	ldrh	r0, [r2]
    80f0:	e5c41012 	strb	r1, [r4, #18]
    80f4:	eb000543 	bl	9608 <__floatsidf>
    80f8:	e28f2038 	add	r2, pc, #56	; 0x38
    80fc:	e892000c 	ldmia	r2, {r2, r3}
    8100:	eb00055e 	bl	9680 <__muldf3>
    8104:	e28f2034 	add	r2, pc, #52	; 0x34
    8108:	e892000c 	ldmia	r2, {r2, r3}
    810c:	eb00055b 	bl	9680 <__muldf3>
    8110:	e28f2030 	add	r2, pc, #48	; 0x30
    8114:	e892000c 	ldmia	r2, {r2, r3}
    8118:	eb000477 	bl	92fc <__adddf3>
    811c:	e28f202c 	add	r2, pc, #44	; 0x2c
    8120:	e892000c 	ldmia	r2, {r2, r3}
    8124:	eb000555 	bl	9680 <__muldf3>
    8128:	eb0006a5 	bl	9bc4 <__fixunsdfsi>
    812c:	e5c40015 	strb	r0, [r4, #21]
    8130:	e89d6810 	ldmia	sp, {r4, fp, sp, lr}
    8134:	ea000343 	b	8e48 <spi_reset>
    8138:	3f91eb85 	swicc	0x0091eb85
    813c:	1eb851ec 	frdne<précision illégale>z	f5, f0, #4.0
    8140:	3fa00000 	swicc	0x00a00000
    8144:	00000000 	andeq	r0, r0, r0
    8148:	3fb6872b 	swicc	0x00b6872b
    814c:	020c49ba 	andeq	r4, ip, #3047424	; 0x2e8000
    8150:	40240000 	eormi	r0, r4, r0
    8154:	00000000 	andeq	r0, r0, r0
    8158:	0000a40e 	andeq	sl, r0, lr, lsl #8
    815c:	0000a618 	andeq	sl, r0, r8, lsl r6
    8160:	0000a5ec 	andeq	sl, r0, ip, ror #11
    8164:	0000a5c4 	andeq	sl, r0, r4, asr #11
    8168:	0000a57d 	andeq	sl, r0, sp, ror r5
    816c:	0000a3f0 	streqd	sl, [r0], -r0
    8170:	0000a3ed 	andeq	sl, r0, sp, ror #7
    8174:	0000a538 	andeq	sl, r0, r8, lsr r5

00008178 <fbw_init>:
    8178:	e1a0c00d 	mov	ip, sp
    817c:	e92dd810 	stmdb	sp!, {r4, fp, ip, lr, pc}
    8180:	e24cb004 	sub	fp, ip, #4	; 0x4
    8184:	eb00039b 	bl	8ff8 <uart_init_tx>
    8188:	e59f0088 	ldr	r0, [pc, #136]	; 8218 <.text+0x218>
    818c:	eb0003ec 	bl	9144 <uart_print_string>
    8190:	eb000415 	bl	91ec <fbw_adc_init>
    8194:	e59f1080 	ldr	r1, [pc, #128]	; 821c <.text+0x21c>
    8198:	e3a00003 	mov	r0, #3	; 0x3
    819c:	eb00040d 	bl	91d8 <fbw_adc_buf_channel>
    81a0:	e59f1078 	ldr	r1, [pc, #120]	; 8220 <.text+0x220>
    81a4:	e3a00006 	mov	r0, #6	; 0x6
    81a8:	eb00040a 	bl	91d8 <fbw_adc_buf_channel>
    81ac:	e3a01000 	mov	r1, #0	; 0x0
    81b0:	e3a0304f 	mov	r3, #79	; 0x4f
    81b4:	e3a0404e 	mov	r4, #78	; 0x4e
    81b8:	e5c31000 	strb	r1, [r3]
    81bc:	e3a02001 	mov	r2, #1	; 0x1
    81c0:	e2811007 	add	r1, r1, #7	; 0x7
    81c4:	e243300a 	sub	r3, r3, #10	; 0xa
    81c8:	e5c42000 	strb	r2, [r4]
    81cc:	e5c31000 	strb	r1, [r3]
    81d0:	eb000210 	bl	8a18 <servo_init>
    81d4:	e5d43000 	ldrb	r3, [r4]
    81d8:	e3c33040 	bic	r3, r3, #64	; 0x40
    81dc:	e5c43000 	strb	r3, [r4]
    81e0:	e5d42000 	ldrb	r2, [r4]
    81e4:	e1e02c82 	mvn	r2, r2, lsl #25
    81e8:	e1e02ca2 	mvn	r2, r2, lsr #25
    81ec:	e5c42000 	strb	r2, [r4]
    81f0:	e3a01037 	mov	r1, #55	; 0x37
    81f4:	e5d13000 	ldrb	r3, [r1]
    81f8:	e3c33001 	bic	r3, r3, #1	; 0x1
    81fc:	e5c13000 	strb	r3, [r1]
    8200:	e3a02059 	mov	r2, #89	; 0x59
    8204:	e5d23000 	ldrb	r3, [r2]
    8208:	e3833020 	orr	r3, r3, #32	; 0x20
    820c:	e5c23000 	strb	r3, [r2]
    8210:	e89d6810 	ldmia	sp, {r4, fp, sp, lr}
    8214:	ea000320 	b	8e9c <fbw_spi_init>
    8218:	0000a28c 	andeq	sl, r0, ip, lsl #5
    821c:	0000a538 	andeq	sl, r0, r8, lsr r5
    8220:	0000a580 	andeq	sl, r0, r0, lsl #11

00008224 <check_mega128_values_task>:
    8224:	e1a0c00d 	mov	ip, sp
    8228:	e92dd810 	stmdb	sp!, {r4, fp, ip, lr, pc}
    822c:	e3a03036 	mov	r3, #54	; 0x36
    8230:	e5d32000 	ldrb	r2, [r3]
    8234:	e3120004 	tst	r2, #4	; 0x4
    8238:	e24cb004 	sub	fp, ip, #4	; 0x4
    823c:	0a000003 	beq	8250 <check_mega128_values_task+0x2c>
    8240:	e59f3068 	ldr	r3, [pc, #104]	; 82b0 <.text+0x2b0>
    8244:	e5d32000 	ldrb	r2, [r3]
    8248:	e3520000 	cmp	r2, #0	; 0x0
    824c:	1a000006 	bne	826c <check_mega128_values_task+0x48>
    8250:	e59f405c 	ldr	r4, [pc, #92]	; 82b4 <.text+0x2b4>
    8254:	e5d43000 	ldrb	r3, [r4]
    8258:	e353001e 	cmp	r3, #30	; 0x1e
    825c:	059f3054 	ldreq	r3, [pc, #84]	; 82b8 <.text+0x2b8>
    8260:	03a02000 	moveq	r2, #0	; 0x0
    8264:	05c32000 	streqb	r2, [r3]
    8268:	e89da810 	ldmia	sp, {r4, fp, sp, pc}
    826c:	e59f3048 	ldr	r3, [pc, #72]	; 82bc <.text+0x2bc>
    8270:	e5d32000 	ldrb	r2, [r3]
    8274:	e3520000 	cmp	r2, #0	; 0x0
    8278:	0afffff4 	beq	8250 <check_mega128_values_task+0x2c>
    827c:	e59f303c 	ldr	r3, [pc, #60]	; 82c0 <.text+0x2c0>
    8280:	e5d32000 	ldrb	r2, [r3]
    8284:	e59f4028 	ldr	r4, [pc, #40]	; 82b4 <.text+0x2b4>
    8288:	e59f3028 	ldr	r3, [pc, #40]	; 82b8 <.text+0x2b8>
    828c:	e3520001 	cmp	r2, #1	; 0x1
    8290:	e3a01001 	mov	r1, #1	; 0x1
    8294:	e3a02000 	mov	r2, #0	; 0x0
    8298:	e5c31000 	strb	r1, [r3]
    829c:	e5c42000 	strb	r2, [r4]
    82a0:	1affffeb 	bne	8254 <check_mega128_values_task+0x30>
    82a4:	e59f0018 	ldr	r0, [pc, #24]	; 82c4 <.text+0x2c4>
    82a8:	eb000252 	bl	8bf8 <servo_set>
    82ac:	eaffffe8 	b	8254 <check_mega128_values_task+0x30>
    82b0:	0000a40e 	andeq	sl, r0, lr, lsl #8
    82b4:	0000a3e8 	andeq	sl, r0, r8, ror #7
    82b8:	0000a57e 	andeq	sl, r0, lr, ror r5
    82bc:	0000a40f 	andeq	sl, r0, pc, lsl #8
    82c0:	0000a57c 	andeq	sl, r0, ip, ror r5
    82c4:	0000a600 	andeq	sl, r0, r0, lsl #12

000082c8 <check_failsafe_task>:
    82c8:	e59f303c 	ldr	r3, [pc, #60]	; 830c <.text+0x30c>
    82cc:	e5d33000 	ldrb	r3, [r3]
    82d0:	e3530000 	cmp	r3, #0	; 0x0
    82d4:	1a000005 	bne	82f0 <check_failsafe_task+0x28>
    82d8:	e59f3030 	ldr	r3, [pc, #48]	; 8310 <.text+0x310>
    82dc:	e5d32000 	ldrb	r2, [r3]
    82e0:	e3520000 	cmp	r2, #0	; 0x0
    82e4:	11a0f00e 	movne	pc, lr
    82e8:	e59f0024 	ldr	r0, [pc, #36]	; 8314 <.text+0x314>
    82ec:	ea000241 	b	8bf8 <servo_set>
    82f0:	e3530001 	cmp	r3, #1	; 0x1
    82f4:	11a0f00e 	movne	pc, lr
    82f8:	e59f3018 	ldr	r3, [pc, #24]	; 8318 <.text+0x318>
    82fc:	e5d32000 	ldrb	r2, [r3]
    8300:	e3520000 	cmp	r2, #0	; 0x0
    8304:	0afffff7 	beq	82e8 <check_failsafe_task+0x20>
    8308:	e1a0f00e 	mov	pc, lr
    830c:	0000a57c 	andeq	sl, r0, ip, ror r5
    8310:	0000a5c4 	andeq	sl, r0, r4, asr #11
    8314:	0000a27a 	andeq	sl, r0, sl, ror r2
    8318:	0000a57e 	andeq	sl, r0, lr, ror r5

0000831c <test_ppm_task>:
    831c:	e1a0c00d 	mov	ip, sp
    8320:	e92dd810 	stmdb	sp!, {r4, fp, ip, lr, pc}
    8324:	e24cb004 	sub	fp, ip, #4	; 0x4
    8328:	e59fc0e8 	ldr	ip, [pc, #232]	; 8418 <.text+0x418>
    832c:	e5dc3000 	ldrb	r3, [ip]
    8330:	e3530000 	cmp	r3, #0	; 0x0
    8334:	1a000016 	bne	8394 <test_ppm_task+0x78>
    8338:	e59f10dc 	ldr	r1, [pc, #220]	; 841c <.text+0x41c>
    833c:	e5d13000 	ldrb	r3, [r1]
    8340:	e3530000 	cmp	r3, #0	; 0x0
    8344:	0a00000a 	beq	8374 <test_ppm_task+0x58>
    8348:	e59f40d0 	ldr	r4, [pc, #208]	; 8420 <.text+0x420>
    834c:	e1d410b0 	ldrh	r1, [r4]
    8350:	e351001d 	cmp	r1, #29	; 0x1d
    8354:	859f30c8 	ldrhi	r3, [pc, #200]	; 8424 <.text+0x424>
    8358:	83a02000 	movhi	r2, #0	; 0x0
    835c:	85c32000 	strhib	r2, [r3]
    8360:	e3510f4b 	cmp	r1, #300	; 0x12c
    8364:	259f30bc 	ldrcs	r3, [pc, #188]	; 8428 <.text+0x428>
    8368:	23a02001 	movcs	r2, #1	; 0x1
    836c:	25c32000 	strcsb	r2, [r3]
    8370:	e89da810 	ldmia	sp, {r4, fp, sp, pc}
    8374:	e59f30ac 	ldr	r3, [pc, #172]	; 8428 <.text+0x428>
    8378:	e5d32000 	ldrb	r2, [r3]
    837c:	e3520000 	cmp	r2, #0	; 0x0
    8380:	13a03001 	movne	r3, #1	; 0x1
    8384:	159f4094 	ldrne	r4, [pc, #148]	; 8420 <.text+0x420>
    8388:	15c13000 	strneb	r3, [r1]
    838c:	1affffee 	bne	834c <test_ppm_task+0x30>
    8390:	eaffffec 	b	8348 <test_ppm_task+0x2c>
    8394:	e59f0090 	ldr	r0, [pc, #144]	; 842c <.text+0x42c>
    8398:	e5d03000 	ldrb	r3, [r0]
    839c:	e2833001 	add	r3, r3, #1	; 0x1
    83a0:	e5c03000 	strb	r3, [r0]
    83a4:	e59f3078 	ldr	r3, [pc, #120]	; 8424 <.text+0x424>
    83a8:	e3a02001 	mov	r2, #1	; 0x1
    83ac:	e5c32000 	strb	r2, [r3]
    83b0:	e59f4068 	ldr	r4, [pc, #104]	; 8420 <.text+0x420>
    83b4:	e59f306c 	ldr	r3, [pc, #108]	; 8428 <.text+0x428>
    83b8:	e3a01000 	mov	r1, #0	; 0x0
    83bc:	e5c31000 	strb	r1, [r3]
    83c0:	e1c410b0 	strh	r1, [r4]
    83c4:	e5cc1000 	strb	r1, [ip]
    83c8:	eb00009a 	bl	8638 <last_radio_from_ppm>
    83cc:	e59f305c 	ldr	r3, [pc, #92]	; 8430 <.text+0x430>
    83d0:	e5d32000 	ldrb	r2, [r3]
    83d4:	e3520000 	cmp	r2, #0	; 0x0
    83d8:	059f203c 	ldreq	r2, [pc, #60]	; 841c <.text+0x41c>
    83dc:	1a000005 	bne	83f8 <test_ppm_task+0xdc>
    83e0:	e5d23000 	ldrb	r3, [r2]
    83e4:	e3530000 	cmp	r3, #0	; 0x0
    83e8:	1affffd7 	bne	834c <test_ppm_task+0x30>
    83ec:	e59f0040 	ldr	r0, [pc, #64]	; 8434 <.text+0x434>
    83f0:	eb000200 	bl	8bf8 <servo_set>
    83f4:	eaffffd4 	b	834c <test_ppm_task+0x30>
    83f8:	e59f2034 	ldr	r2, [pc, #52]	; 8434 <.text+0x434>
    83fc:	e1d230f8 	ldrsh	r3, [r2, #8]
    8400:	e59f2014 	ldr	r2, [pc, #20]	; 841c <.text+0x41c>
    8404:	e3730d4b 	cmn	r3, #4800	; 0x12c0
    8408:	b3a03000 	movlt	r3, #0	; 0x0
    840c:	a3a03001 	movge	r3, #1	; 0x1
    8410:	e5c23000 	strb	r3, [r2]
    8414:	eafffff1 	b	83e0 <test_ppm_task+0xc4>
    8418:	0000a5d8 	ldreqd	sl, [r0], -r8
    841c:	0000a57c 	andeq	sl, r0, ip, ror r5
    8420:	0000a3ea 	andeq	sl, r0, sl, ror #7
    8424:	0000a5c4 	andeq	sl, r0, r4, asr #11
    8428:	0000a57d 	andeq	sl, r0, sp, ror r5
    842c:	0000a3ec 	andeq	sl, r0, ip, ror #7
    8430:	0000a3f0 	streqd	sl, [r0], -r0
    8434:	0000a5ec 	andeq	sl, r0, ip, ror #11

00008438 <fbw_schedule>:
    8438:	e1a0c00d 	mov	ip, sp
    843c:	e92dd810 	stmdb	sp!, {r4, fp, ip, lr, pc}
    8440:	e24cb004 	sub	fp, ip, #4	; 0x4
    8444:	e59fc068 	ldr	ip, [pc, #104]	; 84b4 <.text+0x4b4>
    8448:	e59fe068 	ldr	lr, [pc, #104]	; 84b8 <.text+0x4b8>
    844c:	e59f3068 	ldr	r3, [pc, #104]	; 84bc <.text+0x4bc>
    8450:	e5dc2000 	ldrb	r2, [ip]
    8454:	e5d30000 	ldrb	r0, [r3]
    8458:	e1de30b0 	ldrh	r3, [lr]
    845c:	e352001d 	cmp	r2, #29	; 0x1d
    8460:	e2822001 	add	r2, r2, #1	; 0x1
    8464:	e2831001 	add	r1, r3, #1	; 0x1
    8468:	95cc2000 	strlsb	r2, [ip]
    846c:	e59f404c 	ldr	r4, [pc, #76]	; 84c0 <.text+0x4c0>
    8470:	e3530f4b 	cmp	r3, #300	; 0x12c
    8474:	31ce10b0 	strcch	r1, [lr]
    8478:	e3500000 	cmp	r0, #0	; 0x0
    847c:	05d42000 	ldreqb	r2, [r4]
    8480:	059f303c 	ldreq	r3, [pc, #60]	; 84c4 <.text+0x4c4>
    8484:	05c32000 	streqb	r2, [r3]
    8488:	05c40000 	streqb	r0, [r4]
    848c:	ebffffa2 	bl	831c <test_ppm_task>
    8490:	ebffff63 	bl	8224 <check_mega128_values_task>
    8494:	ebfffee4 	bl	802c <send_data_to_autopilot_task>
    8498:	ebffff8a 	bl	82c8 <check_failsafe_task>
    849c:	e59f3024 	ldr	r3, [pc, #36]	; 84c8 <.text+0x4c8>
    84a0:	e5d32000 	ldrb	r2, [r3]
    84a4:	e3520002 	cmp	r2, #2	; 0x2
    84a8:	989da810 	ldmlsia	sp, {r4, fp, sp, pc}
    84ac:	e89d6810 	ldmia	sp, {r4, fp, sp, lr}
    84b0:	ea0001b9 	b	8b9c <servo_transmit>
    84b4:	0000a3e8 	andeq	sl, r0, r8, ror #7
    84b8:	0000a3ea 	andeq	sl, r0, sl, ror #7
    84bc:	0000a3ee 	andeq	sl, r0, lr, ror #7
    84c0:	0000a3ec 	andeq	sl, r0, ip, ror #7
    84c4:	0000a3ed 	andeq	sl, r0, sp, ror #7
    84c8:	0000a3ef 	andeq	sl, r0, pc, ror #7

000084cc <main>:
    84cc:	e1a0c00d 	mov	ip, sp
    84d0:	e92dd8f0 	stmdb	sp!, {r4, r5, r6, r7, fp, ip, lr, pc}
    84d4:	e24cb004 	sub	fp, ip, #4	; 0x4
    84d8:	ebffff26 	bl	8178 <fbw_init>
    84dc:	e59f4064 	ldr	r4, [pc, #100]	; 8548 <.text+0x548>
    84e0:	e59f6064 	ldr	r6, [pc, #100]	; 854c <.text+0x54c>
    84e4:	e3a05058 	mov	r5, #88	; 0x58
    84e8:	e3a07000 	mov	r7, #0	; 0x0
    84ec:	ebffffd1 	bl	8438 <fbw_schedule>
    84f0:	e5d53000 	ldrb	r3, [r5]
    84f4:	e1a03323 	mov	r3, r3, lsr #6
    84f8:	e2133001 	ands	r3, r3, #1	; 0x1
    84fc:	13a03040 	movne	r3, #64	; 0x40
    8500:	15c53000 	strneb	r3, [r5]
    8504:	1243303f 	subne	r3, r3, #63	; 0x3f
    8508:	e3530000 	cmp	r3, #0	; 0x0
    850c:	e59f0038 	ldr	r0, [pc, #56]	; 854c <.text+0x54c>
    8510:	0afffff5 	beq	84ec <main+0x20>
    8514:	e5d43000 	ldrb	r3, [r4]
    8518:	e5d61000 	ldrb	r1, [r6]
    851c:	e2833001 	add	r3, r3, #1	; 0x1
    8520:	e5c43000 	strb	r3, [r4]
    8524:	e2811001 	add	r1, r1, #1	; 0x1
    8528:	e5c61000 	strb	r1, [r6]
    852c:	e5d42000 	ldrb	r2, [r4]
    8530:	e5d03000 	ldrb	r3, [r0]
    8534:	e352003b 	cmp	r2, #59	; 0x3b
    8538:	85c47000 	strhib	r7, [r4]
    853c:	e3530002 	cmp	r3, #2	; 0x2
    8540:	85c07000 	strhib	r7, [r0]
    8544:	eaffffe8 	b	84ec <main+0x20>
    8548:	0000a3ee 	andeq	sl, r0, lr, ror #7
    854c:	0000a3ef 	andeq	sl, r0, pc, ror #7

00008550 <__vector_5>:
    8550:	e92d4030 	stmdb	sp!, {r4, r5, lr}
    8554:	e59f00c8 	ldr	r0, [pc, #200]	; 8624 <.text+0x624>
    8558:	e3a03046 	mov	r3, #70	; 0x46
    855c:	e1d310b0 	ldrh	r1, [r3]
    8560:	e1d020b0 	ldrh	r2, [r0]
    8564:	e59f40bc 	ldr	r4, [pc, #188]	; 8628 <.text+0x628>
    8568:	e0622001 	rsb	r2, r2, r1
    856c:	e5d4e000 	ldrb	lr, [r4]
    8570:	e1a02802 	mov	r2, r2, lsl #16
    8574:	e20ec0ff 	and	ip, lr, #255	; 0xff
    8578:	e1a02822 	mov	r2, r2, lsr #16
    857c:	e2423daf 	sub	r3, r2, #11200	; 0x2bc0
    8580:	e35c0000 	cmp	ip, #0	; 0x0
    8584:	e59f50a0 	ldr	r5, [pc, #160]	; 862c <.text+0x62c>
    8588:	e1c010b0 	strh	r1, [r0]
    858c:	e1a03803 	mov	r3, r3, lsl #16
    8590:	1a00000a 	bne	85c0 <__vector_5+0x70>
    8594:	e3a03044 	mov	r3, #68	; 0x44
    8598:	e5d31000 	ldrb	r1, [r3]
    859c:	e5d52000 	ldrb	r2, [r5]
    85a0:	e20110ff 	and	r1, r1, #255	; 0xff
    85a4:	e0622001 	rsb	r2, r2, r1
    85a8:	e20220ff 	and	r2, r2, #255	; 0xff
    85ac:	e352006d 	cmp	r2, #109	; 0x6d
    85b0:	82433043 	subhi	r3, r3, #67	; 0x43
    85b4:	e5c51000 	strb	r1, [r5]
    85b8:	85c43000 	strhib	r3, [r4]
    85bc:	e8bd8030 	ldmia	sp!, {r4, r5, pc}
    85c0:	e3530319 	cmp	r3, #1677721600	; 0x64000000
    85c4:	e59f3064 	ldr	r3, [pc, #100]	; 8630 <.text+0x630>
    85c8:	e083308c 	add	r3, r3, ip, lsl #1
    85cc:	9a000006 	bls	85ec <__vector_5+0x9c>
    85d0:	e3a03044 	mov	r3, #68	; 0x44
    85d4:	e5d31000 	ldrb	r1, [r3]
    85d8:	e59f304c 	ldr	r3, [pc, #76]	; 862c <.text+0x62c>
    85dc:	e3a02000 	mov	r2, #0	; 0x0
    85e0:	e5c42000 	strb	r2, [r4]
    85e4:	e5c31000 	strb	r1, [r3]
    85e8:	e8bd8030 	ldmia	sp!, {r4, r5, pc}
    85ec:	e35c0008 	cmp	ip, #8	; 0x8
    85f0:	e14320b2 	strh	r2, [r3, #-2]
    85f4:	859f3038 	ldrhi	r3, [pc, #56]	; 8634 <.text+0x634>
    85f8:	e28e1001 	add	r1, lr, #1	; 0x1
    85fc:	83a01001 	movhi	r1, #1	; 0x1
    8600:	85c31000 	strhib	r1, [r3]
    8604:	83a02044 	movhi	r2, #68	; 0x44
    8608:	85d21000 	ldrhib	r1, [r2]
    860c:	859f2018 	ldrhi	r2, [pc, #24]	; 862c <.text+0x62c>
    8610:	83a03000 	movhi	r3, #0	; 0x0
    8614:	85c43000 	strhib	r3, [r4]
    8618:	85c21000 	strhib	r1, [r2]
    861c:	95c41000 	strlsb	r1, [r4]
    8620:	e8bd8030 	ldmia	sp!, {r4, r5, pc}
    8624:	0000a3f2 	streqd	sl, [r0], -r2
    8628:	0000a3f4 	streqd	sl, [r0], -r4
    862c:	0000a3f5 	streqd	sl, [r0], -r5
    8630:	0000a5c6 	andeq	sl, r0, r6, asr #11
    8634:	0000a5d8 	ldreqd	sl, [r0], -r8

00008638 <last_radio_from_ppm>:
    8638:	e1a0c00d 	mov	ip, sp
    863c:	e92dd9f0 	stmdb	sp!, {r4, r5, r6, r7, r8, fp, ip, lr, pc}
    8640:	e59f83b8 	ldr	r8, [pc, #952]	; 8a00 <.text+0xa00>
    8644:	e1d800b0 	ldrh	r0, [r8]
    8648:	e2400dfa 	sub	r0, r0, #16000	; 0x3e80
    864c:	e1a00800 	mov	r0, r0, lsl #16
    8650:	e24cb004 	sub	fp, ip, #4	; 0x4
    8654:	e1a00840 	mov	r0, r0, asr #16
    8658:	eb0005e9 	bl	9e04 <__floatsisf>
    865c:	e3a0143f 	mov	r1, #1056964608	; 0x3f000000
    8660:	eb0005fa 	bl	9e50 <__mulsf3>
    8664:	eb0006c5 	bl	a180 <__fixsfsi>
    8668:	e59f7394 	ldr	r7, [pc, #916]	; 8a04 <.text+0xa04>
    866c:	e1c700b0 	strh	r0, [r7]
    8670:	e1d730f0 	ldrsh	r3, [r7]
    8674:	e3530d96 	cmp	r3, #9600	; 0x2580
    8678:	c3a02d96 	movgt	r2, #9600	; 0x2580
    867c:	c1c720b0 	strgth	r2, [r7]
    8680:	ca000002 	bgt	8690 <last_radio_from_ppm+0x58>
    8684:	e3530000 	cmp	r3, #0	; 0x0
    8688:	b3a03000 	movlt	r3, #0	; 0x0
    868c:	b1c730b0 	strlth	r3, [r7]
    8690:	e1d800b2 	ldrh	r0, [r8, #2]
    8694:	e2400b19 	sub	r0, r0, #25600	; 0x6400
    8698:	e1a00800 	mov	r0, r0, lsl #16
    869c:	e1a00840 	mov	r0, r0, asr #16
    86a0:	eb0005d7 	bl	9e04 <__floatsisf>
    86a4:	eb0006b5 	bl	a180 <__fixsfsi>
    86a8:	e1c700b2 	strh	r0, [r7, #2]
    86ac:	e1d730f2 	ldrsh	r3, [r7, #2]
    86b0:	e3530d96 	cmp	r3, #9600	; 0x2580
    86b4:	c3a02d96 	movgt	r2, #9600	; 0x2580
    86b8:	c1c720b2 	strgth	r2, [r7, #2]
    86bc:	ca000004 	bgt	86d4 <last_radio_from_ppm+0x9c>
    86c0:	e3730d96 	cmn	r3, #9600	; 0x2580
    86c4:	b3a024b5 	movlt	r2, #-1258291200	; 0xb5000000
    86c8:	b59f3334 	ldrlt	r3, [pc, #820]	; 8a04 <.text+0xa04>
    86cc:	b1a028c2 	movlt	r2, r2, asr #17
    86d0:	b1c320b2 	strlth	r2, [r3, #2]
    86d4:	e1d800b4 	ldrh	r0, [r8, #4]
    86d8:	e2400b19 	sub	r0, r0, #25600	; 0x6400
    86dc:	e1a00800 	mov	r0, r0, lsl #16
    86e0:	e1a00840 	mov	r0, r0, asr #16
    86e4:	eb0005c6 	bl	9e04 <__floatsisf>
    86e8:	eb0006a4 	bl	a180 <__fixsfsi>
    86ec:	e1c700b4 	strh	r0, [r7, #4]
    86f0:	e1d730f4 	ldrsh	r3, [r7, #4]
    86f4:	e3530d96 	cmp	r3, #9600	; 0x2580
    86f8:	c3a03d96 	movgt	r3, #9600	; 0x2580
    86fc:	c1c730b4 	strgth	r3, [r7, #4]
    8700:	ca000004 	bgt	8718 <last_radio_from_ppm+0xe0>
    8704:	e3730d96 	cmn	r3, #9600	; 0x2580
    8708:	b3a024b5 	movlt	r2, #-1258291200	; 0xb5000000
    870c:	b59f32f0 	ldrlt	r3, [pc, #752]	; 8a04 <.text+0xa04>
    8710:	b1a028c2 	movlt	r2, r2, asr #17
    8714:	b1c320b4 	strlth	r2, [r3, #4]
    8718:	e1d800b6 	ldrh	r0, [r8, #6]
    871c:	e2400b19 	sub	r0, r0, #25600	; 0x6400
    8720:	e1a00800 	mov	r0, r0, lsl #16
    8724:	e1a00840 	mov	r0, r0, asr #16
    8728:	eb0005b5 	bl	9e04 <__floatsisf>
    872c:	eb000693 	bl	a180 <__fixsfsi>
    8730:	e1c700b6 	strh	r0, [r7, #6]
    8734:	e1d730f6 	ldrsh	r3, [r7, #6]
    8738:	e3530d96 	cmp	r3, #9600	; 0x2580
    873c:	c3a02d96 	movgt	r2, #9600	; 0x2580
    8740:	c1c720b6 	strgth	r2, [r7, #6]
    8744:	ca000004 	bgt	875c <last_radio_from_ppm+0x124>
    8748:	e3730d96 	cmn	r3, #9600	; 0x2580
    874c:	b3a024b5 	movlt	r2, #-1258291200	; 0xb5000000
    8750:	b59f32ac 	ldrlt	r3, [pc, #684]	; 8a04 <.text+0xa04>
    8754:	b1a028c2 	movlt	r2, r2, asr #17
    8758:	b1c320b6 	strlth	r2, [r3, #6]
    875c:	e1d830b8 	ldrh	r3, [r8, #8]
    8760:	e59f62a0 	ldr	r6, [pc, #672]	; 8a08 <.text+0xa08>
    8764:	e2433b19 	sub	r3, r3, #25600	; 0x6400
    8768:	e1a03803 	mov	r3, r3, lsl #16
    876c:	e1d600f8 	ldrsh	r0, [r6, #8]
    8770:	e1a05823 	mov	r5, r3, lsr #16
    8774:	eb0005a2 	bl	9e04 <__floatsisf>
    8778:	e1a04000 	mov	r4, r0
    877c:	e1a00805 	mov	r0, r5, lsl #16
    8780:	e1a00840 	mov	r0, r0, asr #16
    8784:	eb00059e 	bl	9e04 <__floatsisf>
    8788:	e59f127c 	ldr	r1, [pc, #636]	; 8a0c <.text+0xa0c>
    878c:	eb0005af 	bl	9e50 <__mulsf3>
    8790:	e1a01000 	mov	r1, r0
    8794:	e1a00004 	mov	r0, r4
    8798:	eb000527 	bl	9c3c <__addsf3>
    879c:	eb000677 	bl	a180 <__fixsfsi>
    87a0:	e1d830ba 	ldrh	r3, [r8, #10]
    87a4:	e2433b19 	sub	r3, r3, #25600	; 0x6400
    87a8:	e1a03803 	mov	r3, r3, lsl #16
    87ac:	e1c600b8 	strh	r0, [r6, #8]
    87b0:	e1d600fa 	ldrsh	r0, [r6, #10]
    87b4:	e1a05823 	mov	r5, r3, lsr #16
    87b8:	eb000591 	bl	9e04 <__floatsisf>
    87bc:	e1a04000 	mov	r4, r0
    87c0:	e1a00805 	mov	r0, r5, lsl #16
    87c4:	e1a00840 	mov	r0, r0, asr #16
    87c8:	eb00058d 	bl	9e04 <__floatsisf>
    87cc:	e59f1238 	ldr	r1, [pc, #568]	; 8a0c <.text+0xa0c>
    87d0:	eb00059e 	bl	9e50 <__mulsf3>
    87d4:	e1a01000 	mov	r1, r0
    87d8:	e1a00004 	mov	r0, r4
    87dc:	eb000516 	bl	9c3c <__addsf3>
    87e0:	eb000666 	bl	a180 <__fixsfsi>
    87e4:	e1d830bc 	ldrh	r3, [r8, #12]
    87e8:	e2433b19 	sub	r3, r3, #25600	; 0x6400
    87ec:	e1a03803 	mov	r3, r3, lsl #16
    87f0:	e1c600ba 	strh	r0, [r6, #10]
    87f4:	e1d600fc 	ldrsh	r0, [r6, #12]
    87f8:	e1a05823 	mov	r5, r3, lsr #16
    87fc:	eb000580 	bl	9e04 <__floatsisf>
    8800:	e1a04000 	mov	r4, r0
    8804:	e1a00805 	mov	r0, r5, lsl #16
    8808:	e1a00840 	mov	r0, r0, asr #16
    880c:	eb00057c 	bl	9e04 <__floatsisf>
    8810:	e59f11f4 	ldr	r1, [pc, #500]	; 8a0c <.text+0xa0c>
    8814:	eb00058d 	bl	9e50 <__mulsf3>
    8818:	e1a01000 	mov	r1, r0
    881c:	e1a00004 	mov	r0, r4
    8820:	eb000505 	bl	9c3c <__addsf3>
    8824:	eb000655 	bl	a180 <__fixsfsi>
    8828:	e1d830be 	ldrh	r3, [r8, #14]
    882c:	e2433b19 	sub	r3, r3, #25600	; 0x6400
    8830:	e1a03803 	mov	r3, r3, lsl #16
    8834:	e1c600bc 	strh	r0, [r6, #12]
    8838:	e1d600fe 	ldrsh	r0, [r6, #14]
    883c:	e1a05823 	mov	r5, r3, lsr #16
    8840:	eb00056f 	bl	9e04 <__floatsisf>
    8844:	e1a04000 	mov	r4, r0
    8848:	e1a00805 	mov	r0, r5, lsl #16
    884c:	e1a00840 	mov	r0, r0, asr #16
    8850:	eb00056b 	bl	9e04 <__floatsisf>
    8854:	e59f11b0 	ldr	r1, [pc, #432]	; 8a0c <.text+0xa0c>
    8858:	eb00057c 	bl	9e50 <__mulsf3>
    885c:	e1a01000 	mov	r1, r0
    8860:	e1a00004 	mov	r0, r4
    8864:	eb0004f4 	bl	9c3c <__addsf3>
    8868:	eb000644 	bl	a180 <__fixsfsi>
    886c:	e1d831b0 	ldrh	r3, [r8, #16]
    8870:	e2433b19 	sub	r3, r3, #25600	; 0x6400
    8874:	e1a03803 	mov	r3, r3, lsl #16
    8878:	e1c600be 	strh	r0, [r6, #14]
    887c:	e1d601f0 	ldrsh	r0, [r6, #16]
    8880:	e1a05823 	mov	r5, r3, lsr #16
    8884:	eb00055e 	bl	9e04 <__floatsisf>
    8888:	e1a04000 	mov	r4, r0
    888c:	e1a00805 	mov	r0, r5, lsl #16
    8890:	e1a00840 	mov	r0, r0, asr #16
    8894:	eb00055a 	bl	9e04 <__floatsisf>
    8898:	e59f116c 	ldr	r1, [pc, #364]	; 8a0c <.text+0xa0c>
    889c:	eb00056b 	bl	9e50 <__mulsf3>
    88a0:	e1a01000 	mov	r1, r0
    88a4:	e1a00004 	mov	r0, r4
    88a8:	eb0004e3 	bl	9c3c <__addsf3>
    88ac:	eb000633 	bl	a180 <__fixsfsi>
    88b0:	e59f1158 	ldr	r1, [pc, #344]	; 8a10 <.text+0xa10>
    88b4:	e5d13000 	ldrb	r3, [r1]
    88b8:	e2833001 	add	r3, r3, #1	; 0x1
    88bc:	e5c13000 	strb	r3, [r1]
    88c0:	e5d12000 	ldrb	r2, [r1]
    88c4:	e352000a 	cmp	r2, #10	; 0xa
    88c8:	e1c601b0 	strh	r0, [r6, #16]
    88cc:	189da9f0 	ldmneia	sp, {r4, r5, r6, r7, r8, fp, sp, pc}
    88d0:	e1d630b8 	ldrh	r3, [r6, #8]
    88d4:	e1c730b8 	strh	r3, [r7, #8]
    88d8:	e1d720f8 	ldrsh	r2, [r7, #8]
    88dc:	e3520d96 	cmp	r2, #9600	; 0x2580
    88e0:	e3a03000 	mov	r3, #0	; 0x0
    88e4:	c3a02d96 	movgt	r2, #9600	; 0x2580
    88e8:	e5c13000 	strb	r3, [r1]
    88ec:	e1c630b8 	strh	r3, [r6, #8]
    88f0:	c1c720b8 	strgth	r2, [r7, #8]
    88f4:	da00003b 	ble	89e8 <last_radio_from_ppm+0x3b0>
    88f8:	e1d630ba 	ldrh	r3, [r6, #10]
    88fc:	e1c730ba 	strh	r3, [r7, #10]
    8900:	e1d730fa 	ldrsh	r3, [r7, #10]
    8904:	e3530d96 	cmp	r3, #9600	; 0x2580
    8908:	e3a02000 	mov	r2, #0	; 0x0
    890c:	c3a03d96 	movgt	r3, #9600	; 0x2580
    8910:	e1c620ba 	strh	r2, [r6, #10]
    8914:	c1c730ba 	strgth	r3, [r7, #10]
    8918:	ca000004 	bgt	8930 <last_radio_from_ppm+0x2f8>
    891c:	e3730d96 	cmn	r3, #9600	; 0x2580
    8920:	b3a024b5 	movlt	r2, #-1258291200	; 0xb5000000
    8924:	b59f30d8 	ldrlt	r3, [pc, #216]	; 8a04 <.text+0xa04>
    8928:	b1a028c2 	movlt	r2, r2, asr #17
    892c:	b1c320ba 	strlth	r2, [r3, #10]
    8930:	e1d620bc 	ldrh	r2, [r6, #12]
    8934:	e1c720bc 	strh	r2, [r7, #12]
    8938:	e1d730fc 	ldrsh	r3, [r7, #12]
    893c:	e3530d96 	cmp	r3, #9600	; 0x2580
    8940:	e3a02000 	mov	r2, #0	; 0x0
    8944:	c3a03d96 	movgt	r3, #9600	; 0x2580
    8948:	e1c620bc 	strh	r2, [r6, #12]
    894c:	c1c730bc 	strgth	r3, [r7, #12]
    8950:	ca000004 	bgt	8968 <last_radio_from_ppm+0x330>
    8954:	e3730d96 	cmn	r3, #9600	; 0x2580
    8958:	b3a024b5 	movlt	r2, #-1258291200	; 0xb5000000
    895c:	b59f30a0 	ldrlt	r3, [pc, #160]	; 8a04 <.text+0xa04>
    8960:	b1a028c2 	movlt	r2, r2, asr #17
    8964:	b1c320bc 	strlth	r2, [r3, #12]
    8968:	e1d620be 	ldrh	r2, [r6, #14]
    896c:	e1c720be 	strh	r2, [r7, #14]
    8970:	e1d730fe 	ldrsh	r3, [r7, #14]
    8974:	e3530d96 	cmp	r3, #9600	; 0x2580
    8978:	e3a02000 	mov	r2, #0	; 0x0
    897c:	c3a03d96 	movgt	r3, #9600	; 0x2580
    8980:	e1c620be 	strh	r2, [r6, #14]
    8984:	c1c730be 	strgth	r3, [r7, #14]
    8988:	ca000004 	bgt	89a0 <last_radio_from_ppm+0x368>
    898c:	e3730d96 	cmn	r3, #9600	; 0x2580
    8990:	b3a024b5 	movlt	r2, #-1258291200	; 0xb5000000
    8994:	b59f3068 	ldrlt	r3, [pc, #104]	; 8a04 <.text+0xa04>
    8998:	b1a028c2 	movlt	r2, r2, asr #17
    899c:	b1c320be 	strlth	r2, [r3, #14]
    89a0:	e1d621b0 	ldrh	r2, [r6, #16]
    89a4:	e1c721b0 	strh	r2, [r7, #16]
    89a8:	e1d731f0 	ldrsh	r3, [r7, #16]
    89ac:	e3530d96 	cmp	r3, #9600	; 0x2580
    89b0:	e3a02000 	mov	r2, #0	; 0x0
    89b4:	c3a03d96 	movgt	r3, #9600	; 0x2580
    89b8:	e1c621b0 	strh	r2, [r6, #16]
    89bc:	c1c731b0 	strgth	r3, [r7, #16]
    89c0:	ca000004 	bgt	89d8 <last_radio_from_ppm+0x3a0>
    89c4:	e3730d96 	cmn	r3, #9600	; 0x2580
    89c8:	b3a024b5 	movlt	r2, #-1258291200	; 0xb5000000
    89cc:	b59f3030 	ldrlt	r3, [pc, #48]	; 8a04 <.text+0xa04>
    89d0:	b1a028c2 	movlt	r2, r2, asr #17
    89d4:	b1c321b0 	strlth	r2, [r3, #16]
    89d8:	e59f3034 	ldr	r3, [pc, #52]	; 8a14 <.text+0xa14>
    89dc:	e3a02001 	mov	r2, #1	; 0x1
    89e0:	e5c32000 	strb	r2, [r3]
    89e4:	e89da9f0 	ldmia	sp, {r4, r5, r6, r7, r8, fp, sp, pc}
    89e8:	e3720d96 	cmn	r2, #9600	; 0x2580
    89ec:	b3a024b5 	movlt	r2, #-1258291200	; 0xb5000000
    89f0:	b59f300c 	ldrlt	r3, [pc, #12]	; 8a04 <.text+0xa04>
    89f4:	b1a028c2 	movlt	r2, r2, asr #17
    89f8:	b1c320b8 	strlth	r2, [r3, #8]
    89fc:	eaffffbd 	b	88f8 <last_radio_from_ppm+0x2c0>
    8a00:	0000a5c6 	andeq	sl, r0, r6, asr #11
    8a04:	0000a5ec 	andeq	sl, r0, ip, ror #11
    8a08:	0000a5da 	ldreqd	sl, [r0], -sl
    8a0c:	3dcccccd 	stcccl	12, cr12, [ip, #820]
    8a10:	0000a3f6 	streqd	sl, [r0], -r6
    8a14:	0000a3f0 	streqd	sl, [r0], -r0

00008a18 <servo_init>:
    8a18:	e3a01031 	mov	r1, #49	; 0x31
    8a1c:	e5d13000 	ldrb	r3, [r1]
    8a20:	e1e03c83 	mvn	r3, r3, lsl #25
    8a24:	e1e03ca3 	mvn	r3, r3, lsr #25
    8a28:	e5c13000 	strb	r3, [r1]
    8a2c:	e3a02037 	mov	r2, #55	; 0x37
    8a30:	e5d23000 	ldrb	r3, [r2]
    8a34:	e3833002 	orr	r3, r3, #2	; 0x2
    8a38:	e5c23000 	strb	r3, [r2]
    8a3c:	e2811001 	add	r1, r1, #1	; 0x1
    8a40:	e5d13000 	ldrb	r3, [r1]
    8a44:	e1e03c83 	mvn	r3, r3, lsl #25
    8a48:	e1e03ca3 	mvn	r3, r3, lsr #25
    8a4c:	e5c13000 	strb	r3, [r1]
    8a50:	e2822001 	add	r2, r2, #1	; 0x1
    8a54:	e5d23000 	ldrb	r3, [r2]
    8a58:	e3c33002 	bic	r3, r3, #2	; 0x2
    8a5c:	e3a00c5d 	mov	r0, #23808	; 0x5d00
    8a60:	e5c23000 	strb	r3, [r2]
    8a64:	e59fc068 	ldr	ip, [pc, #104]	; 8ad4 <.text+0xad4>
    8a68:	e28000c0 	add	r0, r0, #192	; 0xc0
    8a6c:	e2411032 	sub	r1, r1, #50	; 0x32
    8a70:	e2813001 	add	r3, r1, #1	; 0x1
    8a74:	e1a02081 	mov	r2, r1, lsl #1
    8a78:	e20310ff 	and	r1, r3, #255	; 0xff
    8a7c:	e3510009 	cmp	r1, #9	; 0x9
    8a80:	e18200bc 	strh	r0, [r2, ip]
    8a84:	9afffff9 	bls	8a70 <servo_init+0x58>
    8a88:	e3a02902 	mov	r2, #32768	; 0x8000
    8a8c:	e3a0304a 	mov	r3, #74	; 0x4a
    8a90:	e1c320b0 	strh	r2, [r3]
    8a94:	e3a0104f 	mov	r1, #79	; 0x4f
    8a98:	e5d13000 	ldrb	r3, [r1]
    8a9c:	e3833040 	orr	r3, r3, #64	; 0x40
    8aa0:	e5c13000 	strb	r3, [r1]
    8aa4:	e3a02010 	mov	r2, #16	; 0x10
    8aa8:	e3a03058 	mov	r3, #88	; 0x58
    8aac:	e5c32000 	strb	r2, [r3]
    8ab0:	e241101d 	sub	r1, r1, #29	; 0x1d
    8ab4:	e5d13000 	ldrb	r3, [r1]
    8ab8:	e203307f 	and	r3, r3, #127	; 0x7f
    8abc:	e5c13000 	strb	r3, [r1]
    8ac0:	e2822049 	add	r2, r2, #73	; 0x49
    8ac4:	e5d23000 	ldrb	r3, [r2]
    8ac8:	e3833010 	orr	r3, r3, #16	; 0x10
    8acc:	e5c23000 	strb	r3, [r2]
    8ad0:	e1a0f00e 	mov	pc, lr
    8ad4:	0000a3fa 	streqd	sl, [r0], -sl

00008ad8 <__vector_6>:
    8ad8:	e92d4030 	stmdb	sp!, {r4, r5, lr}
    8adc:	e59fe06c 	ldr	lr, [pc, #108]	; 8b50 <.text+0xb50>
    8ae0:	e5dec000 	ldrb	ip, [lr]
    8ae4:	e35c0009 	cmp	ip, #9	; 0x9
    8ae8:	e3a0404a 	mov	r4, #74	; 0x4a
    8aec:	e3a01032 	mov	r1, #50	; 0x32
    8af0:	e3a0504f 	mov	r5, #79	; 0x4f
    8af4:	e3a00000 	mov	r0, #0	; 0x0
    8af8:	9a000008 	bls	8b20 <__vector_6+0x48>
    8afc:	e5d13000 	ldrb	r3, [r1]
    8b00:	e1e03c83 	mvn	r3, r3, lsl #25
    8b04:	e1e03ca3 	mvn	r3, r3, lsr #25
    8b08:	e5c13000 	strb	r3, [r1]
    8b0c:	e5d12000 	ldrb	r2, [r1]
    8b10:	e202207f 	and	r2, r2, #127	; 0x7f
    8b14:	e5c12000 	strb	r2, [r1]
    8b18:	e5ce0000 	strb	r0, [lr]
    8b1c:	e1a0c000 	mov	ip, r0
    8b20:	e59f202c 	ldr	r2, [pc, #44]	; 8b54 <.text+0xb54>
    8b24:	e1a0008c 	mov	r0, ip, lsl #1
    8b28:	e1d410b0 	ldrh	r1, [r4]
    8b2c:	e19030b2 	ldrh	r3, [r0, r2]
    8b30:	e0833001 	add	r3, r3, r1
    8b34:	e1c430b0 	strh	r3, [r4]
    8b38:	e5d52000 	ldrb	r2, [r5]
    8b3c:	e28c3001 	add	r3, ip, #1	; 0x1
    8b40:	e3822008 	orr	r2, r2, #8	; 0x8
    8b44:	e5c52000 	strb	r2, [r5]
    8b48:	e5ce3000 	strb	r3, [lr]
    8b4c:	e8bd8030 	ldmia	sp!, {r4, r5, pc}
    8b50:	0000a3f8 	streqd	sl, [r0], -r8
    8b54:	0000a3fa 	streqd	sl, [r0], -sl

00008b58 <servo_set_one>:
    8b58:	e1a00080 	mov	r0, r0, lsl #1
    8b5c:	e1a01801 	mov	r1, r1, lsl #16
    8b60:	e3c00001 	bic	r0, r0, #1	; 0x1
    8b64:	e59f302c 	ldr	r3, [pc, #44]	; 8b98 <.text+0xb98>
    8b68:	e1a01621 	mov	r1, r1, lsr #12
    8b6c:	e1a00b80 	mov	r0, r0, lsl #23
    8b70:	e1a00ba0 	mov	r0, r0, lsr #23
    8b74:	e3510dfa 	cmp	r1, #16000	; 0x3e80
    8b78:	e0800003 	add	r0, r0, r3
    8b7c:	33a03dfa 	movcc	r3, #16000	; 0x3e80
    8b80:	3a000002 	bcc	8b90 <servo_set_one+0x38>
    8b84:	e3510c7d 	cmp	r1, #32000	; 0x7d00
    8b88:	31a03001 	movcc	r3, r1
    8b8c:	23a03c7d 	movcs	r3, #32000	; 0x7d00
    8b90:	e1c030b0 	strh	r3, [r0]
    8b94:	e1a0f00e 	mov	pc, lr
    8b98:	0000a3fa 	streqd	sl, [r0], -sl

00008b9c <servo_transmit>:
    8b9c:	e1a0c00d 	mov	ip, sp
    8ba0:	e92dd870 	stmdb	sp!, {r4, r5, r6, fp, ip, lr, pc}
    8ba4:	e3a00000 	mov	r0, #0	; 0x0
    8ba8:	e24cb004 	sub	fp, ip, #4	; 0x4
    8bac:	eb000128 	bl	9054 <uart_transmit>
    8bb0:	e3a00000 	mov	r0, #0	; 0x0
    8bb4:	eb000126 	bl	9054 <uart_transmit>
    8bb8:	e59f6034 	ldr	r6, [pc, #52]	; 8bf4 <.text+0xbf4>
    8bbc:	e3a05000 	mov	r5, #0	; 0x0
    8bc0:	e1a04085 	mov	r4, r5, lsl #1
    8bc4:	e19400b6 	ldrh	r0, [r4, r6]
    8bc8:	e1a00420 	mov	r0, r0, lsr #8
    8bcc:	eb000120 	bl	9054 <uart_transmit>
    8bd0:	e7d40006 	ldrb	r0, [r4, r6]
    8bd4:	eb00011e 	bl	9054 <uart_transmit>
    8bd8:	e2853001 	add	r3, r5, #1	; 0x1
    8bdc:	e20350ff 	and	r5, r3, #255	; 0xff
    8be0:	e3550009 	cmp	r5, #9	; 0x9
    8be4:	9afffff5 	bls	8bc0 <servo_transmit+0x24>
    8be8:	e3a0000a 	mov	r0, #10	; 0xa
    8bec:	e89d6870 	ldmia	sp, {r4, r5, r6, fp, sp, lr}
    8bf0:	ea000117 	b	9054 <uart_transmit>
    8bf4:	0000a3fa 	streqd	sl, [r0], -sl

00008bf8 <servo_set>:
    8bf8:	e1a0c00d 	mov	ip, sp
    8bfc:	e92dd870 	stmdb	sp!, {r4, r5, r6, fp, ip, lr, pc}
    8c00:	e1a06000 	mov	r6, r0
    8c04:	e1d000fa 	ldrsh	r0, [r0, #10]
    8c08:	e24cb004 	sub	fp, ip, #4	; 0x4
    8c0c:	e1a00080 	mov	r0, r0, lsl #1
    8c10:	eb00027c 	bl	9608 <__floatsidf>
    8c14:	e28f2f7e 	add	r2, pc, #504	; 0x1f8
    8c18:	e892000c 	ldmia	r2, {r2, r3}
    8c1c:	eb000297 	bl	9680 <__muldf3>
    8c20:	eb0003c7 	bl	9b44 <__fixdfsi>
    8c24:	e2800dfa 	add	r0, r0, #16000	; 0x3e80
    8c28:	e1a00800 	mov	r0, r0, lsl #16
    8c2c:	e1a00820 	mov	r0, r0, lsr #16
    8c30:	e3500dfa 	cmp	r0, #16000	; 0x3e80
    8c34:	33a02dfa 	movcc	r2, #16000	; 0x3e80
    8c38:	3a000002 	bcc	8c48 <servo_set+0x50>
    8c3c:	e3500c7d 	cmp	r0, #32000	; 0x7d00
    8c40:	31a02000 	movcc	r2, r0
    8c44:	23a02c7d 	movcs	r2, #32000	; 0x7d00
    8c48:	e59f31f4 	ldr	r3, [pc, #500]	; 8e44 <.text+0xe44>
    8c4c:	e1c320b6 	strh	r2, [r3, #6]
    8c50:	e1d600f0 	ldrsh	r0, [r6]
    8c54:	e1a00080 	mov	r0, r0, lsl #1
    8c58:	eb00026a 	bl	9608 <__floatsidf>
    8c5c:	e28f2e1b 	add	r2, pc, #432	; 0x1b0
    8c60:	e892000c 	ldmia	r2, {r2, r3}
    8c64:	eb000285 	bl	9680 <__muldf3>
    8c68:	eb0003b5 	bl	9b44 <__fixdfsi>
    8c6c:	e2800dfa 	add	r0, r0, #16000	; 0x3e80
    8c70:	e1a00800 	mov	r0, r0, lsl #16
    8c74:	e1a00820 	mov	r0, r0, lsr #16
    8c78:	e3500dfa 	cmp	r0, #16000	; 0x3e80
    8c7c:	33a02dfa 	movcc	r2, #16000	; 0x3e80
    8c80:	3a000002 	bcc	8c90 <servo_set+0x98>
    8c84:	e3500c7d 	cmp	r0, #32000	; 0x7d00
    8c88:	31a02000 	movcc	r2, r0
    8c8c:	23a02c7d 	movcs	r2, #32000	; 0x7d00
    8c90:	e59f31ac 	ldr	r3, [pc, #428]	; 8e44 <.text+0xe44>
    8c94:	e1c321b2 	strh	r2, [r3, #18]
    8c98:	e1d600f4 	ldrsh	r0, [r6, #4]
    8c9c:	eb000259 	bl	9608 <__floatsidf>
    8ca0:	e28f2f5d 	add	r2, pc, #372	; 0x174
    8ca4:	e892000c 	ldmia	r2, {r2, r3}
    8ca8:	eb000274 	bl	9680 <__muldf3>
    8cac:	eb0003a4 	bl	9b44 <__fixdfsi>
    8cb0:	e2800c5f 	add	r0, r0, #24320	; 0x5f00
    8cb4:	e28000a0 	add	r0, r0, #160	; 0xa0
    8cb8:	e1a00800 	mov	r0, r0, lsl #16
    8cbc:	e1a00820 	mov	r0, r0, lsr #16
    8cc0:	e3500dfa 	cmp	r0, #16000	; 0x3e80
    8cc4:	33a02dfa 	movcc	r2, #16000	; 0x3e80
    8cc8:	3a000002 	bcc	8cd8 <servo_set+0xe0>
    8ccc:	e3500c7d 	cmp	r0, #32000	; 0x7d00
    8cd0:	31a02000 	movcc	r2, r0
    8cd4:	23a02c7d 	movcs	r2, #32000	; 0x7d00
    8cd8:	e59f3164 	ldr	r3, [pc, #356]	; 8e44 <.text+0xe44>
    8cdc:	e1c320bc 	strh	r2, [r3, #12]
    8ce0:	e1d620b2 	ldrh	r2, [r6, #2]
    8ce4:	e1a05802 	mov	r5, r2, lsl #16
    8ce8:	e1a04845 	mov	r4, r5, asr #16
    8cec:	e1a00004 	mov	r0, r4
    8cf0:	eb000244 	bl	9608 <__floatsidf>
    8cf4:	e3540000 	cmp	r4, #0	; 0x0
    8cf8:	da000041 	ble	8e04 <servo_set+0x20c>
    8cfc:	e28f2e12 	add	r2, pc, #288	; 0x120
    8d00:	e892000c 	ldmia	r2, {r2, r3}
    8d04:	eb00025d 	bl	9680 <__muldf3>
    8d08:	eb00038d 	bl	9b44 <__fixdfsi>
    8d0c:	e1a00800 	mov	r0, r0, lsl #16
    8d10:	e2800319 	add	r0, r0, #1677721600	; 0x64000000
    8d14:	e1a00820 	mov	r0, r0, lsr #16
    8d18:	e3500dfa 	cmp	r0, #16000	; 0x3e80
    8d1c:	33a02dfa 	movcc	r2, #16000	; 0x3e80
    8d20:	3a000002 	bcc	8d30 <servo_set+0x138>
    8d24:	e3500c7d 	cmp	r0, #32000	; 0x7d00
    8d28:	31a02000 	movcc	r2, r0
    8d2c:	23a02c7d 	movcs	r2, #32000	; 0x7d00
    8d30:	e59f310c 	ldr	r3, [pc, #268]	; 8e44 <.text+0xe44>
    8d34:	e1a04845 	mov	r4, r5, asr #16
    8d38:	e1a00004 	mov	r0, r4
    8d3c:	e1c320b0 	strh	r2, [r3]
    8d40:	eb000230 	bl	9608 <__floatsidf>
    8d44:	e3540000 	cmp	r4, #0	; 0x0
    8d48:	c28f20dc 	addgt	r2, pc, #220	; 0xdc
    8d4c:	c892000c 	ldmgtia	r2, {r2, r3}
    8d50:	cb00024a 	blgt	9680 <__muldf3>
    8d54:	e28f20d8 	add	r2, pc, #216	; 0xd8
    8d58:	e892000c 	ldmia	r2, {r2, r3}
    8d5c:	eb000247 	bl	9680 <__muldf3>
    8d60:	eb000377 	bl	9b44 <__fixdfsi>
    8d64:	e1a00800 	mov	r0, r0, lsl #16
    8d68:	e2800467 	add	r0, r0, #1728053248	; 0x67000000
    8d6c:	e2800602 	add	r0, r0, #2097152	; 0x200000
    8d70:	e1a00820 	mov	r0, r0, lsr #16
    8d74:	e3500dfa 	cmp	r0, #16000	; 0x3e80
    8d78:	33a02dfa 	movcc	r2, #16000	; 0x3e80
    8d7c:	3a000002 	bcc	8d8c <servo_set+0x194>
    8d80:	e3500c7d 	cmp	r0, #32000	; 0x7d00
    8d84:	31a02000 	movcc	r2, r0
    8d88:	23a02c7d 	movcs	r2, #32000	; 0x7d00
    8d8c:	e59f30b0 	ldr	r3, [pc, #176]	; 8e44 <.text+0xe44>
    8d90:	e1c320b4 	strh	r2, [r3, #4]
    8d94:	e1d600f6 	ldrsh	r0, [r6, #6]
    8d98:	eb00021a 	bl	9608 <__floatsidf>
    8d9c:	e1a05001 	mov	r5, r1
    8da0:	e1a04000 	mov	r4, r0
    8da4:	e1d600f2 	ldrsh	r0, [r6, #2]
    8da8:	eb000216 	bl	9608 <__floatsidf>
    8dac:	e1a03001 	mov	r3, r1
    8db0:	e1a02000 	mov	r2, r0
    8db4:	e1a01005 	mov	r1, r5
    8db8:	e1a00004 	mov	r0, r4
    8dbc:	eb00014e 	bl	92fc <__adddf3>
    8dc0:	e28f2074 	add	r2, pc, #116	; 0x74
    8dc4:	e892000c 	ldmia	r2, {r2, r3}
    8dc8:	eb00022c 	bl	9680 <__muldf3>
    8dcc:	eb00035c 	bl	9b44 <__fixdfsi>
    8dd0:	e2800c5a 	add	r0, r0, #23040	; 0x5a00
    8dd4:	e28000a0 	add	r0, r0, #160	; 0xa0
    8dd8:	e1a00800 	mov	r0, r0, lsl #16
    8ddc:	e1a00820 	mov	r0, r0, lsr #16
    8de0:	e3500dfa 	cmp	r0, #16000	; 0x3e80
    8de4:	33a02dfa 	movcc	r2, #16000	; 0x3e80
    8de8:	3a000002 	bcc	8df8 <servo_set+0x200>
    8dec:	e3500c7d 	cmp	r0, #32000	; 0x7d00
    8df0:	31a02000 	movcc	r2, r0
    8df4:	23a02c7d 	movcs	r2, #32000	; 0x7d00
    8df8:	e59f3044 	ldr	r3, [pc, #68]	; 8e44 <.text+0xe44>
    8dfc:	e1c320be 	strh	r2, [r3, #14]
    8e00:	e89da870 	ldmia	sp, {r4, r5, r6, fp, sp, pc}
    8e04:	e28f2020 	add	r2, pc, #32	; 0x20
    8e08:	e892000c 	ldmia	r2, {r2, r3}
    8e0c:	eb00021b 	bl	9680 <__muldf3>
    8e10:	eaffffb9 	b	8cfc <servo_set+0x104>
    8e14:	3feaaaaa 	swicc	0x00eaaaaa
    8e18:	aaaa9ef0 	bge	feab09e0 <_stack+0xfea309e0>
    8e1c:	3fdfc962 	swicc	0x00dfc962
    8e20:	fc96473e 	ldc2	7, cr4, [r6], {62}
    8e24:	bfe19999 	swilt	0x00e19999
    8e28:	9999999a 	ldmlsib	r9, {r1, r3, r4, r7, r8, fp, ip, pc}
    8e2c:	3fe51eb8 	swicc	0x00e51eb8
    8e30:	51eb851f 	mvnpl	r8, pc, lsl r5
    8e34:	bfe0aaaa 	swilt	0x00e0aaaa
    8e38:	aaaa9ef0 	bge	feab0a00 <_stack+0xfea30a00>
    8e3c:	bfdeeeee 	swilt	0x00deeeee
    8e40:	eeeed77a 	mcr	7, 7, sp, cr14, cr10, {3}
    8e44:	0000a3fa 	streqd	sl, [r0], -sl

00008e48 <spi_reset>:
    8e48:	e59f2038 	ldr	r2, [pc, #56]	; 8e88 <.text+0xe88>
    8e4c:	e59f3038 	ldr	r3, [pc, #56]	; 8e8c <.text+0xe8c>
    8e50:	e3a0c000 	mov	ip, #0	; 0x0
    8e54:	e5c2c000 	strb	ip, [r2]
    8e58:	e5c3c000 	strb	ip, [r3]
    8e5c:	e59f302c 	ldr	r3, [pc, #44]	; 8e90 <.text+0xe90>
    8e60:	e5d21000 	ldrb	r1, [r2]
    8e64:	e59f2028 	ldr	r2, [pc, #40]	; 8e94 <.text+0xe94>
    8e68:	e7d10003 	ldrb	r0, [r1, r3]
    8e6c:	e5c20000 	strb	r0, [r2]
    8e70:	e5d21000 	ldrb	r1, [r2]
    8e74:	e59f201c 	ldr	r2, [pc, #28]	; 8e98 <.text+0xe98>
    8e78:	e3a0302f 	mov	r3, #47	; 0x2f
    8e7c:	e5c31000 	strb	r1, [r3]
    8e80:	e5c2c000 	strb	ip, [r2]
    8e84:	e1a0f00e 	mov	pc, lr
    8e88:	0000a410 	andeq	sl, r0, r0, lsl r4
    8e8c:	0000a412 	andeq	sl, r0, r2, lsl r4
    8e90:	0000a618 	andeq	sl, r0, r8, lsl r6
    8e94:	0000a413 	andeq	sl, r0, r3, lsl r4
    8e98:	0000a40f 	andeq	sl, r0, pc, lsl #8

00008e9c <fbw_spi_init>:
    8e9c:	e3a00037 	mov	r0, #55	; 0x37
    8ea0:	e5d03000 	ldrb	r3, [r0]
    8ea4:	e3a0102d 	mov	r1, #45	; 0x2d
    8ea8:	e3833010 	orr	r3, r3, #16	; 0x10
    8eac:	e3a02040 	mov	r2, #64	; 0x40
    8eb0:	e5c03000 	strb	r3, [r0]
    8eb4:	e5c12000 	strb	r2, [r1]
    8eb8:	e5d13000 	ldrb	r3, [r1]
    8ebc:	e59f0018 	ldr	r0, [pc, #24]	; 8edc <.text+0xedc>
    8ec0:	e1e03c83 	mvn	r3, r3, lsl #25
    8ec4:	e2422040 	sub	r2, r2, #64	; 0x40
    8ec8:	e1e03ca3 	mvn	r3, r3, lsr #25
    8ecc:	e5c02014 	strb	r2, [r0, #20]
    8ed0:	e5c13000 	strb	r3, [r1]
    8ed4:	e5c02013 	strb	r2, [r0, #19]
    8ed8:	e1a0f00e 	mov	pc, lr
    8edc:	0000a618 	andeq	sl, r0, r8, lsl r6

00008ee0 <__vector_10>:
    8ee0:	e52de004 	str	lr, [sp, #-4]!
    8ee4:	e59f00ec 	ldr	r0, [pc, #236]	; 8fd8 <.text+0xfd8>
    8ee8:	e5d03000 	ldrb	r3, [r0]
    8eec:	e59f20e8 	ldr	r2, [pc, #232]	; 8fdc <.text+0xfdc>
    8ef0:	e2833001 	add	r3, r3, #1	; 0x1
    8ef4:	e3a0c001 	mov	ip, #1	; 0x1
    8ef8:	e5c03000 	strb	r3, [r0]
    8efc:	e5c2c000 	strb	ip, [r2]
    8f00:	e5d03000 	ldrb	r3, [r0]
    8f04:	e3530019 	cmp	r3, #25	; 0x19
    8f08:	849df004 	ldrhi	pc, [sp], #4
    8f0c:	e5d03000 	ldrb	r3, [r0]
    8f10:	e3530019 	cmp	r3, #25	; 0x19
    8f14:	e59fe0c4 	ldr	lr, [pc, #196]	; 8fe0 <.text+0xfe0>
    8f18:	0a000020 	beq	8fa0 <__vector_10+0xc0>
    8f1c:	e5d03000 	ldrb	r3, [r0]
    8f20:	e3530017 	cmp	r3, #23	; 0x17
    8f24:	e59fe0b4 	ldr	lr, [pc, #180]	; 8fe0 <.text+0xfe0>
    8f28:	e59fc0b4 	ldr	ip, [pc, #180]	; 8fe4 <.text+0xfe4>
    8f2c:	9a000010 	bls	8f74 <__vector_10+0x94>
    8f30:	e59f30ac 	ldr	r3, [pc, #172]	; 8fe4 <.text+0xfe4>
    8f34:	e5d31000 	ldrb	r1, [r3]
    8f38:	e3a0202f 	mov	r2, #47	; 0x2f
    8f3c:	e5c21000 	strb	r1, [r2]
    8f40:	e59fe098 	ldr	lr, [pc, #152]	; 8fe0 <.text+0xfe0>
    8f44:	e3a0302f 	mov	r3, #47	; 0x2f
    8f48:	e5d32000 	ldrb	r2, [r3]
    8f4c:	e59fc094 	ldr	ip, [pc, #148]	; 8fe8 <.text+0xfe8>
    8f50:	e5ce2000 	strb	r2, [lr]
    8f54:	e5d00000 	ldrb	r0, [r0]
    8f58:	e5de1000 	ldrb	r1, [lr]
    8f5c:	e5dc3000 	ldrb	r3, [ip]
    8f60:	e59f2084 	ldr	r2, [pc, #132]	; 8fec <.text+0xfec>
    8f64:	e0233001 	eor	r3, r3, r1
    8f68:	e7c01002 	strb	r1, [r0, r2]
    8f6c:	e5cc3000 	strb	r3, [ip]
    8f70:	e49df004 	ldr	pc, [sp], #4
    8f74:	e5d01000 	ldrb	r1, [r0]
    8f78:	e59f3070 	ldr	r3, [pc, #112]	; 8ff0 <.text+0xff0>
    8f7c:	e7d12003 	ldrb	r2, [r1, r3]
    8f80:	e5ce2000 	strb	r2, [lr]
    8f84:	e5de1000 	ldrb	r1, [lr]
    8f88:	e3a0202f 	mov	r2, #47	; 0x2f
    8f8c:	e5c21000 	strb	r1, [r2]
    8f90:	e5dc3000 	ldrb	r3, [ip]
    8f94:	e0233001 	eor	r3, r3, r1
    8f98:	e5cc3000 	strb	r3, [ip]
    8f9c:	eaffffe8 	b	8f44 <__vector_10+0x64>
    8fa0:	e2833016 	add	r3, r3, #22	; 0x16
    8fa4:	e5d31000 	ldrb	r1, [r3]
    8fa8:	e59f3038 	ldr	r3, [pc, #56]	; 8fe8 <.text+0xfe8>
    8fac:	e5ce1000 	strb	r1, [lr]
    8fb0:	e5d32000 	ldrb	r2, [r3]
    8fb4:	e5de3000 	ldrb	r3, [lr]
    8fb8:	e59f0030 	ldr	r0, [pc, #48]	; 8ff0 <.text+0xff0>
    8fbc:	e1530002 	cmp	r3, r2
    8fc0:	15d03014 	ldrneb	r3, [r0, #20]
    8fc4:	059f3028 	ldreq	r3, [pc, #40]	; 8ff4 <.text+0xff4>
    8fc8:	12833001 	addne	r3, r3, #1	; 0x1
    8fcc:	05c3c000 	streqb	ip, [r3]
    8fd0:	15c03014 	strneb	r3, [r0, #20]
    8fd4:	e49df004 	ldr	pc, [sp], #4
    8fd8:	0000a410 	andeq	sl, r0, r0, lsl r4
    8fdc:	0000a40e 	andeq	sl, r0, lr, lsl #8
    8fe0:	0000a411 	andeq	sl, r0, r1, lsl r4
    8fe4:	0000a413 	andeq	sl, r0, r3, lsl r4
    8fe8:	0000a412 	andeq	sl, r0, r2, lsl r4
    8fec:	0000a5ff 	streqd	sl, [r0], -pc
    8ff0:	0000a618 	andeq	sl, r0, r8, lsl r6
    8ff4:	0000a40f 	andeq	sl, r0, pc, lsl #8

00008ff8 <uart_init_tx>:
    8ff8:	e3a0c040 	mov	ip, #64	; 0x40
    8ffc:	e3a00000 	mov	r0, #0	; 0x0
    9000:	e3a01019 	mov	r1, #25	; 0x19
    9004:	e3a03029 	mov	r3, #41	; 0x29
    9008:	e3a0202b 	mov	r2, #43	; 0x2b
    900c:	e5cc0000 	strb	r0, [ip]
    9010:	e5c31000 	strb	r1, [r3]
    9014:	e5c20000 	strb	r0, [r2]
    9018:	e2411011 	sub	r1, r1, #17	; 0x11
    901c:	e2833001 	add	r3, r3, #1	; 0x1
    9020:	e24220a5 	sub	r2, r2, #165	; 0xa5
    9024:	e5c31000 	strb	r1, [r3]
    9028:	e5cc2000 	strb	r2, [ip]
    902c:	e1a0f00e 	mov	pc, lr

00009030 <uart_init_rx>:
    9030:	e3a0302a 	mov	r3, #42	; 0x2a
    9034:	e5d32000 	ldrb	r2, [r3]
    9038:	e3822010 	orr	r2, r2, #16	; 0x10
    903c:	e5c32000 	strb	r2, [r3]
    9040:	e5d31000 	ldrb	r1, [r3]
    9044:	e1e01c81 	mvn	r1, r1, lsl #25
    9048:	e1e01ca1 	mvn	r1, r1, lsr #25
    904c:	e5c31000 	strb	r1, [r3]
    9050:	e1a0f00e 	mov	pc, lr

00009054 <uart_transmit>:
    9054:	e52de004 	str	lr, [sp, #-4]!
    9058:	e3a0102a 	mov	r1, #42	; 0x2a
    905c:	e5d13000 	ldrb	r3, [r1]
    9060:	e3130040 	tst	r3, #64	; 0x40
    9064:	e59fe048 	ldr	lr, [pc, #72]	; 90b4 <.text+0x10b4>
    9068:	e20000ff 	and	r0, r0, #255	; 0xff
    906c:	0a00000a 	beq	909c <uart_transmit+0x48>
    9070:	e5de2000 	ldrb	r2, [lr]
    9074:	e59f303c 	ldr	r3, [pc, #60]	; 90b8 <.text+0x10b8>
    9078:	e202c0ff 	and	ip, r2, #255	; 0xff
    907c:	e5d31000 	ldrb	r1, [r3]
    9080:	e28c3001 	add	r3, ip, #1	; 0x1
    9084:	e1510003 	cmp	r1, r3
    9088:	159f302c 	ldrne	r3, [pc, #44]	; 90bc <.text+0x10bc>
    908c:	e2822001 	add	r2, r2, #1	; 0x1
    9090:	17c3000c 	strneb	r0, [r3, ip]
    9094:	15ce2000 	strneb	r2, [lr]
    9098:	e49df004 	ldr	pc, [sp], #4
    909c:	e3a0202c 	mov	r2, #44	; 0x2c
    90a0:	e5c20000 	strb	r0, [r2]
    90a4:	e5d13000 	ldrb	r3, [r1]
    90a8:	e3833040 	orr	r3, r3, #64	; 0x40
    90ac:	e5c13000 	strb	r3, [r1]
    90b0:	e49df004 	ldr	pc, [sp], #4
    90b4:	0000a414 	andeq	sl, r0, r4, lsl r4
    90b8:	0000a415 	andeq	sl, r0, r5, lsl r4
    90bc:	0000a416 	andeq	sl, r0, r6, lsl r4

000090c0 <uart_print_hex>:
    90c0:	e1a0c00d 	mov	ip, sp
    90c4:	e92dd810 	stmdb	sp!, {r4, fp, ip, lr, pc}
    90c8:	e24cb004 	sub	fp, ip, #4	; 0x4
    90cc:	e24dd010 	sub	sp, sp, #16	; 0x10
    90d0:	e1a04000 	mov	r4, r0
    90d4:	e59f1038 	ldr	r1, [pc, #56]	; 9114 <.text+0x1114>
    90d8:	e3a02010 	mov	r2, #16	; 0x10
    90dc:	e24b0020 	sub	r0, fp, #32	; 0x20
    90e0:	eb000440 	bl	a1e8 <memcpy>
    90e4:	e20430f0 	and	r3, r4, #240	; 0xf0
    90e8:	e24b1010 	sub	r1, fp, #16	; 0x10
    90ec:	e0812223 	add	r2, r1, r3, lsr #4
    90f0:	e5520010 	ldrb	r0, [r2, #-16]
    90f4:	ebffffd6 	bl	9054 <uart_transmit>
    90f8:	e204400f 	and	r4, r4, #15	; 0xf
    90fc:	e24b2010 	sub	r2, fp, #16	; 0x10
    9100:	e0823004 	add	r3, r2, r4
    9104:	e5530010 	ldrb	r0, [r3, #-16]
    9108:	ebffffd1 	bl	9054 <uart_transmit>
    910c:	e24bd010 	sub	sp, fp, #16	; 0x10
    9110:	e89da810 	ldmia	sp, {r4, fp, sp, pc}
    9114:	0000a2cb 	andeq	sl, r0, fp, asr #5

00009118 <uart_print_hex16>:
    9118:	e1a0c00d 	mov	ip, sp
    911c:	e1a00800 	mov	r0, r0, lsl #16
    9120:	e92dd810 	stmdb	sp!, {r4, fp, ip, lr, pc}
    9124:	e24cb004 	sub	fp, ip, #4	; 0x4
    9128:	e1a04820 	mov	r4, r0, lsr #16
    912c:	e1a00c20 	mov	r0, r0, lsr #24
    9130:	ebffffe2 	bl	90c0 <uart_print_hex>
    9134:	e20440ff 	and	r4, r4, #255	; 0xff
    9138:	e1a00004 	mov	r0, r4
    913c:	e89d6810 	ldmia	sp, {r4, fp, sp, lr}
    9140:	eaffffde 	b	90c0 <uart_print_hex>

00009144 <uart_print_string>:
    9144:	e1a0c00d 	mov	ip, sp
    9148:	e92dd830 	stmdb	sp!, {r4, r5, fp, ip, lr, pc}
    914c:	e1a05000 	mov	r5, r0
    9150:	e5d00000 	ldrb	r0, [r0]
    9154:	e3500000 	cmp	r0, #0	; 0x0
    9158:	e24cb004 	sub	fp, ip, #4	; 0x4
    915c:	e3a04000 	mov	r4, #0	; 0x0
    9160:	089da830 	ldmeqia	sp, {r4, r5, fp, sp, pc}
    9164:	ebffffba 	bl	9054 <uart_transmit>
    9168:	e2843001 	add	r3, r4, #1	; 0x1
    916c:	e20340ff 	and	r4, r3, #255	; 0xff
    9170:	e7d40005 	ldrb	r0, [r4, r5]
    9174:	e3500000 	cmp	r0, #0	; 0x0
    9178:	1afffff9 	bne	9164 <uart_print_string+0x20>
    917c:	e89da830 	ldmia	sp, {r4, r5, fp, sp, pc}

00009180 <__vector_13>:
    9180:	e59f3044 	ldr	r3, [pc, #68]	; 91cc <.text+0x11cc>
    9184:	e59fc044 	ldr	ip, [pc, #68]	; 91d0 <.text+0x11d0>
    9188:	e5d31000 	ldrb	r1, [r3]
    918c:	e5dc2000 	ldrb	r2, [ip]
    9190:	e3a0002a 	mov	r0, #42	; 0x2a
    9194:	e1510002 	cmp	r1, r2
    9198:	05d03000 	ldreqb	r3, [r0]
    919c:	03c33040 	biceq	r3, r3, #64	; 0x40
    91a0:	05c03000 	streqb	r3, [r0]
    91a4:	01a0f00e 	moveq	pc, lr
    91a8:	e5dc1000 	ldrb	r1, [ip]
    91ac:	e59f3020 	ldr	r3, [pc, #32]	; 91d4 <.text+0x11d4>
    91b0:	e7d30001 	ldrb	r0, [r3, r1]
    91b4:	e3a0202c 	mov	r2, #44	; 0x2c
    91b8:	e5c20000 	strb	r0, [r2]
    91bc:	e5dc3000 	ldrb	r3, [ip]
    91c0:	e2833001 	add	r3, r3, #1	; 0x1
    91c4:	e5cc3000 	strb	r3, [ip]
    91c8:	e1a0f00e 	mov	pc, lr
    91cc:	0000a414 	andeq	sl, r0, r4, lsl r4
    91d0:	0000a415 	andeq	sl, r0, r5, lsl r4
    91d4:	0000a416 	andeq	sl, r0, r6, lsl r4

000091d8 <fbw_adc_buf_channel>:
    91d8:	e59f3008 	ldr	r3, [pc, #8]	; 91e8 <.text+0x11e8>
    91dc:	e20000ff 	and	r0, r0, #255	; 0xff
    91e0:	e7831100 	str	r1, [r3, r0, lsl #2]
    91e4:	e1a0f00e 	mov	pc, lr
    91e8:	0000a518 	andeq	sl, r0, r8, lsl r5

000091ec <fbw_adc_init>:
    91ec:	e3a00000 	mov	r0, #0	; 0x0
    91f0:	e3a03035 	mov	r3, #53	; 0x35
    91f4:	e5c30000 	strb	r0, [r3]
    91f8:	e3a02034 	mov	r2, #52	; 0x34
    91fc:	e3e0103f 	mvn	r1, #63	; 0x3f
    9200:	e243300e 	sub	r3, r3, #14	; 0xe
    9204:	e5c20000 	strb	r0, [r2]
    9208:	e5c31000 	strb	r1, [r3]
    920c:	e2422065 	sub	r2, r2, #101	; 0x65
    9210:	e2433001 	sub	r3, r3, #1	; 0x1
    9214:	e59f101c 	ldr	r1, [pc, #28]	; 9238 <.text+0x1238>
    9218:	e5c32000 	strb	r2, [r3]
    921c:	e1a02000 	mov	r2, r0
    9220:	e2803001 	add	r3, r0, #1	; 0x1
    9224:	e7812100 	str	r2, [r1, r0, lsl #2]
    9228:	e20300ff 	and	r0, r3, #255	; 0xff
    922c:	e3500007 	cmp	r0, #7	; 0x7
    9230:	9afffffa 	bls	9220 <fbw_adc_init+0x34>
    9234:	e1a0f00e 	mov	pc, lr
    9238:	0000a518 	andeq	sl, r0, r8, lsl r5

0000923c <__vector_14>:
    923c:	e92d4010 	stmdb	sp!, {r4, lr}
    9240:	e3a03027 	mov	r3, #39	; 0x27
    9244:	e5d32000 	ldrb	r2, [r3]
    9248:	e59f30a0 	ldr	r3, [pc, #160]	; 92f0 <.text+0x12f0>
    924c:	e202e007 	and	lr, r2, #7	; 0x7
    9250:	e3a02024 	mov	r2, #36	; 0x24
    9254:	e793c10e 	ldr	ip, [r3, lr, lsl #2]
    9258:	e1d230b0 	ldrh	r3, [r2]
    925c:	e1a04003 	mov	r4, r3
    9260:	e59f308c 	ldr	r3, [pc, #140]	; 92f4 <.text+0x12f4>
    9264:	e1a0208e 	mov	r2, lr, lsl #1
    9268:	e28e1001 	add	r1, lr, #1	; 0x1
    926c:	e35c0000 	cmp	ip, #0	; 0x0
    9270:	e201e0ff 	and	lr, r1, #255	; 0xff
    9274:	e18240b3 	strh	r4, [r2, r3]
    9278:	0a00000e 	beq	92b8 <__vector_14+0x7c>
    927c:	e5dc3042 	ldrb	r3, [ip, #66]
    9280:	e2833001 	add	r3, r3, #1	; 0x1
    9284:	e20330ff 	and	r3, r3, #255	; 0xff
    9288:	e353001f 	cmp	r3, #31	; 0x1f
    928c:	83a03000 	movhi	r3, #0	; 0x0
    9290:	e08c0083 	add	r0, ip, r3, lsl #1
    9294:	e1dc20b0 	ldrh	r2, [ip]
    9298:	e1d010b2 	ldrh	r1, [r0, #2]
    929c:	e0612002 	rsb	r2, r1, r2
    92a0:	e1cc20b0 	strh	r2, [ip]
    92a4:	e1dc10b0 	ldrh	r1, [ip]
    92a8:	e0841001 	add	r1, r4, r1
    92ac:	e5cc3042 	strb	r3, [ip, #66]
    92b0:	e1c040b2 	strh	r4, [r0, #2]
    92b4:	e1cc10b0 	strh	r1, [ip]
    92b8:	e35e0004 	cmp	lr, #4	; 0x4
    92bc:	028ee002 	addeq	lr, lr, #2	; 0x2
    92c0:	0a000001 	beq	92cc <__vector_14+0x90>
    92c4:	e35e0007 	cmp	lr, #7	; 0x7
    92c8:	83a0e000 	movhi	lr, #0	; 0x0
    92cc:	e1e02d0e 	mvn	r2, lr, lsl #26
    92d0:	e1e02d22 	mvn	r2, r2, lsr #26
    92d4:	e3a01027 	mov	r1, #39	; 0x27
    92d8:	e5c12000 	strb	r2, [r1]
    92dc:	e3a00026 	mov	r0, #38	; 0x26
    92e0:	e5d03000 	ldrb	r3, [r0]
    92e4:	e3833040 	orr	r3, r3, #64	; 0x40
    92e8:	e5c03000 	strb	r3, [r0]
    92ec:	e8bd8010 	ldmia	sp!, {r4, pc}
    92f0:	0000a518 	andeq	sl, r0, r8, lsl r5
    92f4:	0000a630 	andeq	sl, r0, r0, lsr r6

000092f8 <__subdf3>:
    92f8:	e2222102 	eor	r2, r2, #-2147483648	; 0x80000000

000092fc <__adddf3>:
    92fc:	e1310003 	teq	r1, r3
    9300:	0020c002 	eoreq	ip, r0, r2
    9304:	033c0102 	teqeq	ip, #-2147483648	; 0x80000000
    9308:	0a00009e 	beq	9588 <__adddf3+0x28c>
    930c:	e191c080 	orrs	ip, r1, r0, lsl #1
    9310:	01a01003 	moveq	r1, r3
    9314:	01a00002 	moveq	r0, r2
    9318:	1193c082 	orrnes	ip, r3, r2, lsl #1
    931c:	012fff1e 	bxeq	lr
    9320:	e92d4030 	stmdb	sp!, {r4, r5, lr}
    9324:	e3a0c47f 	mov	ip, #2130706432	; 0x7f000000
    9328:	e38cc60f 	orr	ip, ip, #15728640	; 0xf00000
    932c:	e000400c 	and	r4, r0, ip
    9330:	e002500c 	and	r5, r2, ip
    9334:	e134000c 	teq	r4, ip
    9338:	1135000c 	teqne	r5, ip
    933c:	0a00009c 	beq	95b4 <__adddf3+0x2b8>
    9340:	e0555004 	subs	r5, r5, r4
    9344:	b2655000 	rsblt	r5, r5, #0	; 0x0
    9348:	da000006 	ble	9368 <__adddf3+0x6c>
    934c:	e0844005 	add	r4, r4, r5
    9350:	e0213003 	eor	r3, r1, r3
    9354:	e0202002 	eor	r2, r0, r2
    9358:	e0231001 	eor	r1, r3, r1
    935c:	e0220000 	eor	r0, r2, r0
    9360:	e0213003 	eor	r3, r1, r3
    9364:	e0202002 	eor	r2, r0, r2
    9368:	e3550636 	cmp	r5, #56623104	; 0x3600000
    936c:	88bd8030 	ldmhiia	sp!, {r4, r5, pc}
    9370:	e3100102 	tst	r0, #-2147483648	; 0x80000000
    9374:	e1c0008c 	bic	r0, r0, ip, lsl #1
    9378:	e3800601 	orr	r0, r0, #1048576	; 0x100000
    937c:	0a000001 	beq	9388 <__adddf3+0x8c>
    9380:	e2711000 	rsbs	r1, r1, #0	; 0x0
    9384:	e2e00000 	rsc	r0, r0, #0	; 0x0
    9388:	e3120102 	tst	r2, #-2147483648	; 0x80000000
    938c:	e1c2208c 	bic	r2, r2, ip, lsl #1
    9390:	e3822601 	orr	r2, r2, #1048576	; 0x100000
    9394:	0a000001 	beq	93a0 <__adddf3+0xa4>
    9398:	e2733000 	rsbs	r3, r3, #0	; 0x0
    939c:	e2e22000 	rsc	r2, r2, #0	; 0x0
    93a0:	e1340005 	teq	r4, r5
    93a4:	0a000071 	beq	9570 <__adddf3+0x274>
    93a8:	e3a0c000 	mov	ip, #0	; 0x0
    93ac:	e1b05a25 	movs	r5, r5, lsr #20
    93b0:	0a000013 	beq	9404 <__adddf3+0x108>
    93b4:	e3340601 	teq	r4, #1048576	; 0x100000
    93b8:	0a000004 	beq	93d0 <__adddf3+0xd4>
    93bc:	e1b01081 	movs	r1, r1, lsl #1
    93c0:	e0ac0080 	adc	r0, ip, r0, lsl #1
    93c4:	e2444601 	sub	r4, r4, #1048576	; 0x100000
    93c8:	e2555001 	subs	r5, r5, #1	; 0x1
    93cc:	0a00000c 	beq	9404 <__adddf3+0x108>
    93d0:	e275e020 	rsbs	lr, r5, #32	; 0x20
    93d4:	ba000004 	blt	93ec <__adddf3+0xf0>
    93d8:	e1a0ce13 	mov	ip, r3, lsl lr
    93dc:	e1a03533 	mov	r3, r3, lsr r5
    93e0:	e1833e12 	orr	r3, r3, r2, lsl lr
    93e4:	e1a02552 	mov	r2, r2, asr r5
    93e8:	ea000005 	b	9404 <__adddf3+0x108>
    93ec:	e2455020 	sub	r5, r5, #32	; 0x20
    93f0:	e28ee020 	add	lr, lr, #32	; 0x20
    93f4:	e3530001 	cmp	r3, #1	; 0x1
    93f8:	e0acce12 	adc	ip, ip, r2, lsl lr
    93fc:	e1a03552 	mov	r3, r2, asr r5
    9400:	e1a02042 	mov	r2, r2, asr #32
    9404:	e0911003 	adds	r1, r1, r3
    9408:	e0a00002 	adc	r0, r0, r2
    940c:	e2105102 	ands	r5, r0, #-2147483648	; 0x80000000
    9410:	5a000002 	bpl	9420 <__adddf3+0x124>
    9414:	e27cc000 	rsbs	ip, ip, #0	; 0x0
    9418:	e2f11000 	rscs	r1, r1, #0	; 0x0
    941c:	e2e00000 	rsc	r0, r0, #0	; 0x0
    9420:	e3500601 	cmp	r0, #1048576	; 0x100000
    9424:	3a000019 	bcc	9490 <__adddf3+0x194>
    9428:	e3500602 	cmp	r0, #2097152	; 0x200000
    942c:	3a00000b 	bcc	9460 <__adddf3+0x164>
    9430:	e3500501 	cmp	r0, #4194304	; 0x400000
    9434:	3a000004 	bcc	944c <__adddf3+0x150>
    9438:	e1b000a0 	movs	r0, r0, lsr #1
    943c:	e1b01061 	movs	r1, r1, rrx
    9440:	e1b0c06c 	movs	ip, ip, rrx
    9444:	238cc001 	orrcs	ip, ip, #1	; 0x1
    9448:	e2844601 	add	r4, r4, #1048576	; 0x100000
    944c:	e1b000a0 	movs	r0, r0, lsr #1
    9450:	e1b01061 	movs	r1, r1, rrx
    9454:	e1b0c06c 	movs	ip, ip, rrx
    9458:	238cc001 	orrcs	ip, ip, #1	; 0x1
    945c:	e2844601 	add	r4, r4, #1048576	; 0x100000
    9460:	e0911fac 	adds	r1, r1, ip, lsr #31
    9464:	e2a00000 	adc	r0, r0, #0	; 0x0
    9468:	e33c0102 	teq	ip, #-2147483648	; 0x80000000
    946c:	03c11001 	biceq	r1, r1, #1	; 0x1
    9470:	e3100602 	tst	r0, #2097152	; 0x200000
    9474:	12844601 	addne	r4, r4, #1048576	; 0x100000
    9478:	e294c601 	adds	ip, r4, #1048576	; 0x100000
    947c:	4a000048 	bmi	95a4 <__adddf3+0x2a8>
    9480:	e3c00603 	bic	r0, r0, #3145728	; 0x300000
    9484:	e1800004 	orr	r0, r0, r4
    9488:	e1800005 	orr	r0, r0, r5
    948c:	e8bd8030 	ldmia	sp!, {r4, r5, pc}
    9490:	e3300000 	teq	r0, #0	; 0x0
    9494:	13e0300a 	mvnne	r3, #10	; 0xa
    9498:	03a03015 	moveq	r3, #21	; 0x15
    949c:	01a00001 	moveq	r0, r1
    94a0:	03a01000 	moveq	r1, #0	; 0x0
    94a4:	e1a02000 	mov	r2, r0
    94a8:	e1b0c820 	movs	ip, r0, lsr #16
    94ac:	01a02802 	moveq	r2, r2, lsl #16
    94b0:	02833010 	addeq	r3, r3, #16	; 0x10
    94b4:	e31204ff 	tst	r2, #-16777216	; 0xff000000
    94b8:	01a02402 	moveq	r2, r2, lsl #8
    94bc:	02833008 	addeq	r3, r3, #8	; 0x8
    94c0:	e312020f 	tst	r2, #-268435456	; 0xf0000000
    94c4:	01a02202 	moveq	r2, r2, lsl #4
    94c8:	02833004 	addeq	r3, r3, #4	; 0x4
    94cc:	e3120103 	tst	r2, #-1073741824	; 0xc0000000
    94d0:	01a02102 	moveq	r2, r2, lsl #2
    94d4:	02833002 	addeq	r3, r3, #2	; 0x2
    94d8:	e3120102 	tst	r2, #-2147483648	; 0x80000000
    94dc:	02833001 	addeq	r3, r3, #1	; 0x1
    94e0:	e2532020 	subs	r2, r3, #32	; 0x20
    94e4:	aa000007 	bge	9508 <__adddf3+0x20c>
    94e8:	e292200c 	adds	r2, r2, #12	; 0xc
    94ec:	da000004 	ble	9504 <__adddf3+0x208>
    94f0:	e282c014 	add	ip, r2, #20	; 0x14
    94f4:	e262200c 	rsb	r2, r2, #12	; 0xc
    94f8:	e1a01c10 	mov	r1, r0, lsl ip
    94fc:	e1a00230 	mov	r0, r0, lsr r2
    9500:	ea000004 	b	9518 <__adddf3+0x21c>
    9504:	e2822014 	add	r2, r2, #20	; 0x14
    9508:	d262c020 	rsble	ip, r2, #32	; 0x20
    950c:	e1a00210 	mov	r0, r0, lsl r2
    9510:	d1800c31 	orrle	r0, r0, r1, lsr ip
    9514:	d1a01211 	movle	r1, r1, lsl r2
    9518:	e0544a03 	subs	r4, r4, r3, lsl #20
    951c:	caffffd7 	bgt	9480 <__adddf3+0x184>
    9520:	e1e04a44 	mvn	r4, r4, asr #20
    9524:	e254401e 	subs	r4, r4, #30	; 0x1e
    9528:	aa00000d 	bge	9564 <__adddf3+0x268>
    952c:	e294400c 	adds	r4, r4, #12	; 0xc
    9530:	ca000005 	bgt	954c <__adddf3+0x250>
    9534:	e2844014 	add	r4, r4, #20	; 0x14
    9538:	e2642020 	rsb	r2, r4, #32	; 0x20
    953c:	e1a01431 	mov	r1, r1, lsr r4
    9540:	e1811210 	orr	r1, r1, r0, lsl r2
    9544:	e1850430 	orr	r0, r5, r0, lsr r4
    9548:	e8bd8030 	ldmia	sp!, {r4, r5, pc}
    954c:	e264400c 	rsb	r4, r4, #12	; 0xc
    9550:	e2642020 	rsb	r2, r4, #32	; 0x20
    9554:	e1a01231 	mov	r1, r1, lsr r2
    9558:	e1811410 	orr	r1, r1, r0, lsl r4
    955c:	e1a00005 	mov	r0, r5
    9560:	e8bd8030 	ldmia	sp!, {r4, r5, pc}
    9564:	e1a01430 	mov	r1, r0, lsr r4
    9568:	e1a00005 	mov	r0, r5
    956c:	e8bd8030 	ldmia	sp!, {r4, r5, pc}
    9570:	e3340000 	teq	r4, #0	; 0x0
    9574:	02200601 	eoreq	r0, r0, #1048576	; 0x100000
    9578:	02844601 	addeq	r4, r4, #1048576	; 0x100000
    957c:	e2222601 	eor	r2, r2, #1048576	; 0x100000
    9580:	12455601 	subne	r5, r5, #1048576	; 0x100000
    9584:	eaffff87 	b	93a8 <__adddf3+0xac>
    9588:	e24cc601 	sub	ip, ip, #1048576	; 0x100000
    958c:	e000200c 	and	r2, r0, ip
    9590:	e132000c 	teq	r2, ip
    9594:	038c0702 	orreq	r0, ip, #524288	; 0x80000
    9598:	13a00000 	movne	r0, #0	; 0x0
    959c:	e3a01000 	mov	r1, #0	; 0x0
    95a0:	e12fff1e 	bx	lr
    95a4:	e385047f 	orr	r0, r5, #2130706432	; 0x7f000000
    95a8:	e380060f 	orr	r0, r0, #15728640	; 0xf00000
    95ac:	e3a01000 	mov	r1, #0	; 0x0
    95b0:	e8bd8030 	ldmia	sp!, {r4, r5, pc}
    95b4:	e134000c 	teq	r4, ip
    95b8:	11a00002 	movne	r0, r2
    95bc:	11a01003 	movne	r1, r3
    95c0:	0135000c 	teqeq	r5, ip
    95c4:	18bd8030 	ldmneia	sp!, {r4, r5, pc}
    95c8:	e1914600 	orrs	r4, r1, r0, lsl #12
    95cc:	01934602 	orreqs	r4, r3, r2, lsl #12
    95d0:	01300002 	teqeq	r0, r2
    95d4:	13850702 	orrne	r0, r5, #524288	; 0x80000
    95d8:	13a01000 	movne	r1, #0	; 0x0
    95dc:	e8bd8030 	ldmia	sp!, {r4, r5, pc}

000095e0 <__floatunsidf>:
    95e0:	e3300000 	teq	r0, #0	; 0x0
    95e4:	03a01000 	moveq	r1, #0	; 0x0
    95e8:	012fff1e 	bxeq	lr
    95ec:	e92d4030 	stmdb	sp!, {r4, r5, lr}
    95f0:	e3a04101 	mov	r4, #1073741824	; 0x40000000
    95f4:	e2844633 	add	r4, r4, #53477376	; 0x3300000
    95f8:	e3a05000 	mov	r5, #0	; 0x0
    95fc:	e1a01000 	mov	r1, r0
    9600:	e3a00000 	mov	r0, #0	; 0x0
    9604:	eaffffa1 	b	9490 <__adddf3+0x194>

00009608 <__floatsidf>:
    9608:	e3300000 	teq	r0, #0	; 0x0
    960c:	03a01000 	moveq	r1, #0	; 0x0
    9610:	012fff1e 	bxeq	lr
    9614:	e92d4030 	stmdb	sp!, {r4, r5, lr}
    9618:	e3a04101 	mov	r4, #1073741824	; 0x40000000
    961c:	e2844633 	add	r4, r4, #53477376	; 0x3300000
    9620:	e2105102 	ands	r5, r0, #-2147483648	; 0x80000000
    9624:	42600000 	rsbmi	r0, r0, #0	; 0x0
    9628:	e1a01000 	mov	r1, r0
    962c:	e3a00000 	mov	r0, #0	; 0x0
    9630:	eaffff96 	b	9490 <__adddf3+0x194>

00009634 <__extendsfdf2>:
    9634:	e1b02080 	movs	r2, r0, lsl #1
    9638:	0a000007 	beq	965c <__extendsfdf2+0x28>
    963c:	e1a001c2 	mov	r0, r2, asr #3
    9640:	e1a00060 	mov	r0, r0, rrx
    9644:	e1a01e02 	mov	r1, r2, lsl #28
    9648:	e21224ff 	ands	r2, r2, #-16777216	; 0xff000000
    964c:	0a000005 	beq	9668 <__extendsfdf2+0x34>
    9650:	e33204ff 	teq	r2, #-16777216	; 0xff000000
    9654:	1220030e 	eorne	r0, r0, #939524096	; 0x38000000
    9658:	e12fff1e 	bx	lr
    965c:	e1a00000 	nop			(mov r0,r0)
    9660:	e3a01000 	mov	r1, #0	; 0x0
    9664:	e12fff1e 	bx	lr
    9668:	e92d4030 	stmdb	sp!, {r4, r5, lr}
    966c:	e3a0430e 	mov	r4, #939524096	; 0x38000000
    9670:	e2844601 	add	r4, r4, #1048576	; 0x100000
    9674:	e2005102 	and	r5, r0, #-2147483648	; 0x80000000
    9678:	e3c00102 	bic	r0, r0, #-2147483648	; 0x80000000
    967c:	eaffff83 	b	9490 <__adddf3+0x194>

00009680 <__muldf3>:
    9680:	e92d4070 	stmdb	sp!, {r4, r5, r6, lr}
    9684:	e3a0c47f 	mov	ip, #2130706432	; 0x7f000000
    9688:	e38cc60f 	orr	ip, ip, #15728640	; 0xf00000
    968c:	e000400c 	and	r4, r0, ip
    9690:	e002500c 	and	r5, r2, ip
    9694:	e134000c 	teq	r4, ip
    9698:	1135000c 	teqne	r5, ip
    969c:	0a000079 	beq	9888 <__muldf3+0x208>
    96a0:	e1916080 	orrs	r6, r1, r0, lsl #1
    96a4:	11936082 	orrnes	r6, r3, r2, lsl #1
    96a8:	0a00002f 	beq	976c <__muldf3+0xec>
    96ac:	e1b040a4 	movs	r4, r4, lsr #1
    96b0:	13350000 	teqne	r5, #0	; 0x0
    96b4:	0a00005f 	beq	9838 <__muldf3+0x1b8>
    96b8:	e08440c5 	add	r4, r4, r5, asr #1
    96bc:	e1300002 	teq	r0, r2
    96c0:	43844902 	orrmi	r4, r4, #32768	; 0x8000
    96c4:	e1c0008c 	bic	r0, r0, ip, lsl #1
    96c8:	e1c2208c 	bic	r2, r2, ip, lsl #1
    96cc:	e3800601 	orr	r0, r0, #1048576	; 0x100000
    96d0:	e3822601 	orr	r2, r2, #1048576	; 0x100000
    96d4:	e08ec391 	umull	ip, lr, r1, r3
    96d8:	e3a05000 	mov	r5, #0	; 0x0
    96dc:	e0a5e291 	umlal	lr, r5, r1, r2
    96e0:	e0a5e390 	umlal	lr, r5, r0, r3
    96e4:	e3a06000 	mov	r6, #0	; 0x0
    96e8:	e0a65290 	umlal	r5, r6, r0, r2
    96ec:	e33c0000 	teq	ip, #0	; 0x0
    96f0:	138ee001 	orrne	lr, lr, #1	; 0x1
    96f4:	e1a00804 	mov	r0, r4, lsl #16
    96f8:	e3c44902 	bic	r4, r4, #32768	; 0x8000
    96fc:	e3160c02 	tst	r6, #512	; 0x200
    9700:	0a000004 	beq	9718 <__muldf3+0x98>
    9704:	e2844702 	add	r4, r4, #524288	; 0x80000
    9708:	e1b060a6 	movs	r6, r6, lsr #1
    970c:	e1b05065 	movs	r5, r5, rrx
    9710:	e1b0e06e 	movs	lr, lr, rrx
    9714:	238ee001 	orrcs	lr, lr, #1	; 0x1
    9718:	e1800606 	orr	r0, r0, r6, lsl #12
    971c:	e1800a25 	orr	r0, r0, r5, lsr #20
    9720:	e1a01605 	mov	r1, r5, lsl #12
    9724:	e1811a2e 	orr	r1, r1, lr, lsr #20
    9728:	e244473e 	sub	r4, r4, #16252928	; 0xf80000
    972c:	e254441f 	subs	r4, r4, #520093696	; 0x1f000000
    9730:	da000011 	ble	977c <__muldf3+0xfc>
    9734:	e1b0e60e 	movs	lr, lr, lsl #12
    9738:	5a000005 	bpl	9754 <__muldf3+0xd4>
    973c:	e2911001 	adds	r1, r1, #1	; 0x1
    9740:	e2a00000 	adc	r0, r0, #0	; 0x0
    9744:	e33e0102 	teq	lr, #-2147483648	; 0x80000000
    9748:	03c11001 	biceq	r1, r1, #1	; 0x1
    974c:	e3100602 	tst	r0, #2097152	; 0x200000
    9750:	12844702 	addne	r4, r4, #524288	; 0x80000
    9754:	e294c702 	adds	ip, r4, #524288	; 0x80000
    9758:	e31c0101 	tst	ip, #1073741824	; 0x40000000
    975c:	1a000055 	bne	98b8 <__muldf3+0x238>
    9760:	e3c00603 	bic	r0, r0, #3145728	; 0x300000
    9764:	e1800084 	orr	r0, r0, r4, lsl #1
    9768:	e8bd8070 	ldmia	sp!, {r4, r5, r6, pc}
    976c:	e0200002 	eor	r0, r0, r2
    9770:	e2000102 	and	r0, r0, #-2147483648	; 0x80000000
    9774:	e3a01000 	mov	r1, #0	; 0x0
    9778:	e8bd8070 	ldmia	sp!, {r4, r5, r6, pc}
    977c:	e374076a 	cmn	r4, #27787264	; 0x1a80000
    9780:	d3a01000 	movle	r1, #0	; 0x0
    9784:	d2000102 	andle	r0, r0, #-2147483648	; 0x80000000
    9788:	d8bd8070 	ldmleia	sp!, {r4, r5, r6, pc}
    978c:	e1e049c4 	mvn	r4, r4, asr #19
    9790:	e254401e 	subs	r4, r4, #30	; 0x1e
    9794:	aa00001b 	bge	9808 <__muldf3+0x188>
    9798:	e294400c 	adds	r4, r4, #12	; 0xc
    979c:	ca00000d 	bgt	97d8 <__muldf3+0x158>
    97a0:	e2844014 	add	r4, r4, #20	; 0x14
    97a4:	e2645020 	rsb	r5, r4, #32	; 0x20
    97a8:	e1a03511 	mov	r3, r1, lsl r5
    97ac:	e1a01431 	mov	r1, r1, lsr r4
    97b0:	e1811510 	orr	r1, r1, r0, lsl r5
    97b4:	e1b00080 	movs	r0, r0, lsl #1
    97b8:	e1a00430 	mov	r0, r0, lsr r4
    97bc:	e1a00060 	mov	r0, r0, rrx
    97c0:	e0911fa3 	adds	r1, r1, r3, lsr #31
    97c4:	e2a00000 	adc	r0, r0, #0	; 0x0
    97c8:	e33e0000 	teq	lr, #0	; 0x0
    97cc:	03330102 	teqeq	r3, #-2147483648	; 0x80000000
    97d0:	03c11001 	biceq	r1, r1, #1	; 0x1
    97d4:	e8bd8070 	ldmia	sp!, {r4, r5, r6, pc}
    97d8:	e264400c 	rsb	r4, r4, #12	; 0xc
    97dc:	e2645020 	rsb	r5, r4, #32	; 0x20
    97e0:	e1a03411 	mov	r3, r1, lsl r4
    97e4:	e1a01531 	mov	r1, r1, lsr r5
    97e8:	e1811410 	orr	r1, r1, r0, lsl r4
    97ec:	e2000102 	and	r0, r0, #-2147483648	; 0x80000000
    97f0:	e0911fa3 	adds	r1, r1, r3, lsr #31
    97f4:	e2a00000 	adc	r0, r0, #0	; 0x0
    97f8:	e33e0000 	teq	lr, #0	; 0x0
    97fc:	03330102 	teqeq	r3, #-2147483648	; 0x80000000
    9800:	03c11001 	biceq	r1, r1, #1	; 0x1
    9804:	e8bd8070 	ldmia	sp!, {r4, r5, r6, pc}
    9808:	e2645020 	rsb	r5, r4, #32	; 0x20
    980c:	e1a06511 	mov	r6, r1, lsl r5
    9810:	e1a03431 	mov	r3, r1, lsr r4
    9814:	e1833510 	orr	r3, r3, r0, lsl r5
    9818:	e1a01430 	mov	r1, r0, lsr r4
    981c:	e2000102 	and	r0, r0, #-2147483648	; 0x80000000
    9820:	e1c11430 	bic	r1, r1, r0, lsr r4
    9824:	e0811fa3 	add	r1, r1, r3, lsr #31
    9828:	e196600e 	orrs	r6, r6, lr
    982c:	03330102 	teqeq	r3, #-2147483648	; 0x80000000
    9830:	03c11001 	biceq	r1, r1, #1	; 0x1
    9834:	e8bd8070 	ldmia	sp!, {r4, r5, r6, pc}
    9838:	e3a0e000 	mov	lr, #0	; 0x0
    983c:	e3340000 	teq	r4, #0	; 0x0
    9840:	1a000008 	bne	9868 <__muldf3+0x1e8>
    9844:	e2006102 	and	r6, r0, #-2147483648	; 0x80000000
    9848:	e1b01081 	movs	r1, r1, lsl #1
    984c:	e0ae0080 	adc	r0, lr, r0, lsl #1
    9850:	e3100601 	tst	r0, #1048576	; 0x100000
    9854:	02444702 	subeq	r4, r4, #524288	; 0x80000
    9858:	0afffffa 	beq	9848 <__muldf3+0x1c8>
    985c:	e1800006 	orr	r0, r0, r6
    9860:	e3350000 	teq	r5, #0	; 0x0
    9864:	1affff93 	bne	96b8 <__muldf3+0x38>
    9868:	e2026102 	and	r6, r2, #-2147483648	; 0x80000000
    986c:	e1b03083 	movs	r3, r3, lsl #1
    9870:	e0ae2082 	adc	r2, lr, r2, lsl #1
    9874:	e3120601 	tst	r2, #1048576	; 0x100000
    9878:	02455601 	subeq	r5, r5, #1048576	; 0x100000
    987c:	0afffffa 	beq	986c <__muldf3+0x1ec>
    9880:	e1822006 	orr	r2, r2, r6
    9884:	eaffff8b 	b	96b8 <__muldf3+0x38>
    9888:	e1916080 	orrs	r6, r1, r0, lsl #1
    988c:	11936082 	orrnes	r6, r3, r2, lsl #1
    9890:	0a00000d 	beq	98cc <__muldf3+0x24c>
    9894:	e134000c 	teq	r4, ip
    9898:	1a000001 	bne	98a4 <__muldf3+0x224>
    989c:	e1916600 	orrs	r6, r1, r0, lsl #12
    98a0:	1a000009 	bne	98cc <__muldf3+0x24c>
    98a4:	e135000c 	teq	r5, ip
    98a8:	1a000001 	bne	98b4 <__muldf3+0x234>
    98ac:	e1936602 	orrs	r6, r3, r2, lsl #12
    98b0:	1a000005 	bne	98cc <__muldf3+0x24c>
    98b4:	e0200002 	eor	r0, r0, r2
    98b8:	e2000102 	and	r0, r0, #-2147483648	; 0x80000000
    98bc:	e380047f 	orr	r0, r0, #2130706432	; 0x7f000000
    98c0:	e380060f 	orr	r0, r0, #15728640	; 0xf00000
    98c4:	e3a01000 	mov	r1, #0	; 0x0
    98c8:	e8bd8070 	ldmia	sp!, {r4, r5, r6, pc}
    98cc:	e3a0047f 	mov	r0, #2130706432	; 0x7f000000
    98d0:	e380073e 	orr	r0, r0, #16252928	; 0xf80000
    98d4:	e8bd8070 	ldmia	sp!, {r4, r5, r6, pc}

000098d8 <__divdf3>:
    98d8:	e92d4070 	stmdb	sp!, {r4, r5, r6, lr}
    98dc:	e3a0c47f 	mov	ip, #2130706432	; 0x7f000000
    98e0:	e38cc60f 	orr	ip, ip, #15728640	; 0xf00000
    98e4:	e000400c 	and	r4, r0, ip
    98e8:	e002500c 	and	r5, r2, ip
    98ec:	e134000c 	teq	r4, ip
    98f0:	1135000c 	teqne	r5, ip
    98f4:	11916080 	orrnes	r6, r1, r0, lsl #1
    98f8:	11936082 	orrnes	r6, r3, r2, lsl #1
    98fc:	0a00007e 	beq	9afc <__divdf3+0x224>
    9900:	e1b040a4 	movs	r4, r4, lsr #1
    9904:	13350000 	teqne	r5, #0	; 0x0
    9908:	0a000067 	beq	9aac <__divdf3+0x1d4>
    990c:	e04440c5 	sub	r4, r4, r5, asr #1
    9910:	e020e002 	eor	lr, r0, r2
    9914:	e3a05201 	mov	r5, #268435456	; 0x10000000
    9918:	e1a02602 	mov	r2, r2, lsl #12
    991c:	e1852222 	orr	r2, r5, r2, lsr #4
    9920:	e1822c23 	orr	r2, r2, r3, lsr #24
    9924:	e1b03403 	movs	r3, r3, lsl #8
    9928:	e1a00600 	mov	r0, r0, lsl #12
    992c:	01320005 	teqeq	r2, r5
    9930:	0a00004d 	beq	9a6c <__divdf3+0x194>
    9934:	e1855220 	orr	r5, r5, r0, lsr #4
    9938:	e1855c21 	orr	r5, r5, r1, lsr #24
    993c:	e1a06401 	mov	r6, r1, lsl #8
    9940:	e20e0102 	and	r0, lr, #-2147483648	; 0x80000000
    9944:	e1550002 	cmp	r5, r2
    9948:	01560003 	cmpeq	r6, r3
    994c:	2a000002 	bcs	995c <__divdf3+0x84>
    9950:	e2444702 	sub	r4, r4, #524288	; 0x80000
    9954:	e1b020a2 	movs	r2, r2, lsr #1
    9958:	e1a03063 	mov	r3, r3, rrx
    995c:	e284441f 	add	r4, r4, #520093696	; 0x1f000000
    9960:	e284473e 	add	r4, r4, #16252928	; 0xf80000
    9964:	e374076a 	cmn	r4, #27787264	; 0x1a80000
    9968:	daffff80 	ble	9770 <__muldf3+0xf0>
    996c:	e15400ac 	cmp	r4, ip, lsr #1
    9970:	aaffffd0 	bge	98b8 <__muldf3+0x238>
    9974:	e0566003 	subs	r6, r6, r3
    9978:	e0c55002 	sbc	r5, r5, r2
    997c:	e1b020a2 	movs	r2, r2, lsr #1
    9980:	e1a03063 	mov	r3, r3, rrx
    9984:	e3a01601 	mov	r1, #1048576	; 0x100000
    9988:	e3a0c702 	mov	ip, #524288	; 0x80000
    998c:	e056e003 	subs	lr, r6, r3
    9990:	e0d5e002 	sbcs	lr, r5, r2
    9994:	20466003 	subcs	r6, r6, r3
    9998:	21a0500e 	movcs	r5, lr
    999c:	2181100c 	orrcs	r1, r1, ip
    99a0:	e1b020a2 	movs	r2, r2, lsr #1
    99a4:	e1a03063 	mov	r3, r3, rrx
    99a8:	e056e003 	subs	lr, r6, r3
    99ac:	e0d5e002 	sbcs	lr, r5, r2
    99b0:	20466003 	subcs	r6, r6, r3
    99b4:	21a0500e 	movcs	r5, lr
    99b8:	218110ac 	orrcs	r1, r1, ip, lsr #1
    99bc:	e1b020a2 	movs	r2, r2, lsr #1
    99c0:	e1a03063 	mov	r3, r3, rrx
    99c4:	e056e003 	subs	lr, r6, r3
    99c8:	e0d5e002 	sbcs	lr, r5, r2
    99cc:	20466003 	subcs	r6, r6, r3
    99d0:	21a0500e 	movcs	r5, lr
    99d4:	2181112c 	orrcs	r1, r1, ip, lsr #2
    99d8:	e1b020a2 	movs	r2, r2, lsr #1
    99dc:	e1a03063 	mov	r3, r3, rrx
    99e0:	e056e003 	subs	lr, r6, r3
    99e4:	e0d5e002 	sbcs	lr, r5, r2
    99e8:	20466003 	subcs	r6, r6, r3
    99ec:	21a0500e 	movcs	r5, lr
    99f0:	218111ac 	orrcs	r1, r1, ip, lsr #3
    99f4:	e195e006 	orrs	lr, r5, r6
    99f8:	0a00000d 	beq	9a34 <__divdf3+0x15c>
    99fc:	e1a05205 	mov	r5, r5, lsl #4
    9a00:	e1855e26 	orr	r5, r5, r6, lsr #28
    9a04:	e1a06206 	mov	r6, r6, lsl #4
    9a08:	e1a02182 	mov	r2, r2, lsl #3
    9a0c:	e1822ea3 	orr	r2, r2, r3, lsr #29
    9a10:	e1a03183 	mov	r3, r3, lsl #3
    9a14:	e1b0c22c 	movs	ip, ip, lsr #4
    9a18:	1affffdb 	bne	998c <__divdf3+0xb4>
    9a1c:	e3100601 	tst	r0, #1048576	; 0x100000
    9a20:	1a000006 	bne	9a40 <__divdf3+0x168>
    9a24:	e1800001 	orr	r0, r0, r1
    9a28:	e3a01000 	mov	r1, #0	; 0x0
    9a2c:	e3a0c102 	mov	ip, #-2147483648	; 0x80000000
    9a30:	eaffffd5 	b	998c <__divdf3+0xb4>
    9a34:	e3100601 	tst	r0, #1048576	; 0x100000
    9a38:	01800001 	orreq	r0, r0, r1
    9a3c:	03a01000 	moveq	r1, #0	; 0x0
    9a40:	e3540000 	cmp	r4, #0	; 0x0
    9a44:	da000016 	ble	9aa4 <__divdf3+0x1cc>
    9a48:	e055c002 	subs	ip, r5, r2
    9a4c:	0056c003 	subeqs	ip, r6, r3
    9a50:	e2b11000 	adcs	r1, r1, #0	; 0x0
    9a54:	e2a00000 	adc	r0, r0, #0	; 0x0
    9a58:	e33c0000 	teq	ip, #0	; 0x0
    9a5c:	03c11001 	biceq	r1, r1, #1	; 0x1
    9a60:	e3c00601 	bic	r0, r0, #1048576	; 0x100000
    9a64:	e1800084 	orr	r0, r0, r4, lsl #1
    9a68:	e8bd8070 	ldmia	sp!, {r4, r5, r6, pc}
    9a6c:	e20ee102 	and	lr, lr, #-2147483648	; 0x80000000
    9a70:	e18e0620 	orr	r0, lr, r0, lsr #12
    9a74:	e284441f 	add	r4, r4, #520093696	; 0x1f000000
    9a78:	e284473e 	add	r4, r4, #16252928	; 0xf80000
    9a7c:	e15400ac 	cmp	r4, ip, lsr #1
    9a80:	aaffff8c 	bge	98b8 <__muldf3+0x238>
    9a84:	e3540000 	cmp	r4, #0	; 0x0
    9a88:	c1800084 	orrgt	r0, r0, r4, lsl #1
    9a8c:	c8bd8070 	ldmgtia	sp!, {r4, r5, r6, pc}
    9a90:	e374076a 	cmn	r4, #27787264	; 0x1a80000
    9a94:	daffff35 	ble	9770 <__muldf3+0xf0>
    9a98:	e3800601 	orr	r0, r0, #1048576	; 0x100000
    9a9c:	e3a0e000 	mov	lr, #0	; 0x0
    9aa0:	eaffff39 	b	978c <__muldf3+0x10c>
    9aa4:	e185e006 	orr	lr, r5, r6
    9aa8:	eaffff37 	b	978c <__muldf3+0x10c>
    9aac:	e3a0e000 	mov	lr, #0	; 0x0
    9ab0:	e3340000 	teq	r4, #0	; 0x0
    9ab4:	1a000008 	bne	9adc <__divdf3+0x204>
    9ab8:	e2006102 	and	r6, r0, #-2147483648	; 0x80000000
    9abc:	e1b01081 	movs	r1, r1, lsl #1
    9ac0:	e0ae0080 	adc	r0, lr, r0, lsl #1
    9ac4:	e3100601 	tst	r0, #1048576	; 0x100000
    9ac8:	02444702 	subeq	r4, r4, #524288	; 0x80000
    9acc:	0afffffa 	beq	9abc <__divdf3+0x1e4>
    9ad0:	e1800006 	orr	r0, r0, r6
    9ad4:	e3350000 	teq	r5, #0	; 0x0
    9ad8:	1affff8b 	bne	990c <__divdf3+0x34>
    9adc:	e2026102 	and	r6, r2, #-2147483648	; 0x80000000
    9ae0:	e1b03083 	movs	r3, r3, lsl #1
    9ae4:	e0ae2082 	adc	r2, lr, r2, lsl #1
    9ae8:	e3120601 	tst	r2, #1048576	; 0x100000
    9aec:	02455601 	subeq	r5, r5, #1048576	; 0x100000
    9af0:	0afffffa 	beq	9ae0 <__divdf3+0x208>
    9af4:	e1822006 	orr	r2, r2, r6
    9af8:	eaffff83 	b	990c <__divdf3+0x34>
    9afc:	e134000c 	teq	r4, ip
    9b00:	0135000c 	teqeq	r5, ip
    9b04:	0affff70 	beq	98cc <__muldf3+0x24c>
    9b08:	e134000c 	teq	r4, ip
    9b0c:	1a000002 	bne	9b1c <__divdf3+0x244>
    9b10:	e1914600 	orrs	r4, r1, r0, lsl #12
    9b14:	1affff6c 	bne	98cc <__muldf3+0x24c>
    9b18:	eaffff65 	b	98b4 <__muldf3+0x234>
    9b1c:	e135000c 	teq	r5, ip
    9b20:	1a000002 	bne	9b30 <__divdf3+0x258>
    9b24:	e1935602 	orrs	r5, r3, r2, lsl #12
    9b28:	1affff67 	bne	98cc <__muldf3+0x24c>
    9b2c:	eaffff0e 	b	976c <__muldf3+0xec>
    9b30:	e1914080 	orrs	r4, r1, r0, lsl #1
    9b34:	1affff5e 	bne	98b4 <__muldf3+0x234>
    9b38:	e1935082 	orrs	r5, r3, r2, lsl #1
    9b3c:	1affff0a 	bne	976c <__muldf3+0xec>
    9b40:	eaffff61 	b	98cc <__muldf3+0x24c>

00009b44 <__fixdfsi>:
    9b44:	e191c080 	orrs	ip, r1, r0, lsl #1
    9b48:	0a000014 	beq	9ba0 <__fixdfsi+0x5c>
    9b4c:	e1a03063 	mov	r3, r3, rrx
    9b50:	e3a0c47f 	mov	ip, #2130706432	; 0x7f000000
    9b54:	e38cc60f 	orr	ip, ip, #15728640	; 0xf00000
    9b58:	e000200c 	and	r2, r0, ip
    9b5c:	e132000c 	teq	r2, ip
    9b60:	0a000010 	beq	9ba8 <__fixdfsi+0x64>
    9b64:	e3ccc101 	bic	ip, ip, #1073741824	; 0x40000000
    9b68:	e152000c 	cmp	r2, ip
    9b6c:	3a00000b 	bcc	9ba0 <__fixdfsi+0x5c>
    9b70:	e28cc61f 	add	ip, ip, #32505856	; 0x1f00000
    9b74:	e152000c 	cmp	r2, ip
    9b78:	2a00000c 	bcs	9bb0 <__fixdfsi+0x6c>
    9b7c:	e062200c 	rsb	r2, r2, ip
    9b80:	e1a0c580 	mov	ip, r0, lsl #11
    9b84:	e38cc102 	orr	ip, ip, #-2147483648	; 0x80000000
    9b88:	e18ccaa1 	orr	ip, ip, r1, lsr #21
    9b8c:	e1a02a22 	mov	r2, r2, lsr #20
    9b90:	e3130102 	tst	r3, #-2147483648	; 0x80000000
    9b94:	e1a0023c 	mov	r0, ip, lsr r2
    9b98:	12600000 	rsbne	r0, r0, #0	; 0x0
    9b9c:	e12fff1e 	bx	lr
    9ba0:	e3a00000 	mov	r0, #0	; 0x0
    9ba4:	e12fff1e 	bx	lr
    9ba8:	e1911600 	orrs	r1, r1, r0, lsl #12
    9bac:	1a000002 	bne	9bbc <__fixdfsi+0x78>
    9bb0:	e2130102 	ands	r0, r3, #-2147483648	; 0x80000000
    9bb4:	03e00102 	mvneq	r0, #-2147483648	; 0x80000000
    9bb8:	e12fff1e 	bx	lr
    9bbc:	e3a00000 	mov	r0, #0	; 0x0
    9bc0:	e12fff1e 	bx	lr

00009bc4 <__fixunsdfsi>:
    9bc4:	e191c080 	orrs	ip, r1, r0, lsl #1
    9bc8:	23b00000 	movcss	r0, #0	; 0x0
    9bcc:	012fff1e 	bxeq	lr
    9bd0:	e3a0c47f 	mov	ip, #2130706432	; 0x7f000000
    9bd4:	e38cc60f 	orr	ip, ip, #15728640	; 0xf00000
    9bd8:	e000200c 	and	r2, r0, ip
    9bdc:	e132000c 	teq	r2, ip
    9be0:	0a00000e 	beq	9c20 <__fixunsdfsi+0x5c>
    9be4:	e3ccc101 	bic	ip, ip, #1073741824	; 0x40000000
    9be8:	e152000c 	cmp	r2, ip
    9bec:	3a000009 	bcc	9c18 <__fixunsdfsi+0x54>
    9bf0:	e28cc61f 	add	ip, ip, #32505856	; 0x1f00000
    9bf4:	e152000c 	cmp	r2, ip
    9bf8:	8a00000a 	bhi	9c28 <__fixunsdfsi+0x64>
    9bfc:	e062200c 	rsb	r2, r2, ip
    9c00:	e1a0c580 	mov	ip, r0, lsl #11
    9c04:	e38cc102 	orr	ip, ip, #-2147483648	; 0x80000000
    9c08:	e18ccaa1 	orr	ip, ip, r1, lsr #21
    9c0c:	e1a02a22 	mov	r2, r2, lsr #20
    9c10:	e1a0023c 	mov	r0, ip, lsr r2
    9c14:	e12fff1e 	bx	lr
    9c18:	e3a00000 	mov	r0, #0	; 0x0
    9c1c:	e12fff1e 	bx	lr
    9c20:	e1911600 	orrs	r1, r1, r0, lsl #12
    9c24:	1a000001 	bne	9c30 <__fixunsdfsi+0x6c>
    9c28:	e3e00000 	mvn	r0, #0	; 0x0
    9c2c:	e12fff1e 	bx	lr
    9c30:	e3a00000 	mov	r0, #0	; 0x0
    9c34:	e12fff1e 	bx	lr

00009c38 <__subsf3>:
    9c38:	e2211102 	eor	r1, r1, #-2147483648	; 0x80000000

00009c3c <__addsf3>:
    9c3c:	e0202001 	eor	r2, r0, r1
    9c40:	e3320102 	teq	r2, #-2147483648	; 0x80000000
    9c44:	0a00005a 	beq	9db4 <__addsf3+0x178>
    9c48:	e3d02102 	bics	r2, r0, #-2147483648	; 0x80000000
    9c4c:	01a00001 	moveq	r0, r1
    9c50:	13d12102 	bicnes	r2, r1, #-2147483648	; 0x80000000
    9c54:	012fff1e 	bxeq	lr
    9c58:	e3a0c4ff 	mov	ip, #-16777216	; 0xff000000
    9c5c:	e00020ac 	and	r2, r0, ip, lsr #1
    9c60:	e00130ac 	and	r3, r1, ip, lsr #1
    9c64:	e13200ac 	teq	r2, ip, lsr #1
    9c68:	113300ac 	teqne	r3, ip, lsr #1
    9c6c:	0a000059 	beq	9dd8 <__addsf3+0x19c>
    9c70:	e0533002 	subs	r3, r3, r2
    9c74:	c0822003 	addgt	r2, r2, r3
    9c78:	c0201001 	eorgt	r1, r0, r1
    9c7c:	c0210000 	eorgt	r0, r1, r0
    9c80:	c0201001 	eorgt	r1, r0, r1
    9c84:	b2633000 	rsblt	r3, r3, #0	; 0x0
    9c88:	e3530532 	cmp	r3, #209715200	; 0xc800000
    9c8c:	812fff1e 	bxhi	lr
    9c90:	e3100102 	tst	r0, #-2147483648	; 0x80000000
    9c94:	e3800502 	orr	r0, r0, #8388608	; 0x800000
    9c98:	e3c004ff 	bic	r0, r0, #-16777216	; 0xff000000
    9c9c:	12600000 	rsbne	r0, r0, #0	; 0x0
    9ca0:	e3110102 	tst	r1, #-2147483648	; 0x80000000
    9ca4:	e3811502 	orr	r1, r1, #8388608	; 0x800000
    9ca8:	e3c114ff 	bic	r1, r1, #-16777216	; 0xff000000
    9cac:	12611000 	rsbne	r1, r1, #0	; 0x0
    9cb0:	e1320003 	teq	r2, r3
    9cb4:	0a000038 	beq	9d9c <__addsf3+0x160>
    9cb8:	e1b03ba3 	movs	r3, r3, lsr #23
    9cbc:	13320502 	teqne	r2, #8388608	; 0x800000
    9cc0:	11a00080 	movne	r0, r0, lsl #1
    9cc4:	12422502 	subne	r2, r2, #8388608	; 0x800000
    9cc8:	12433001 	subne	r3, r3, #1	; 0x1
    9ccc:	e1a0c351 	mov	ip, r1, asr r3
    9cd0:	e2633020 	rsb	r3, r3, #32	; 0x20
    9cd4:	e1a01311 	mov	r1, r1, lsl r3
    9cd8:	e080000c 	add	r0, r0, ip
    9cdc:	e2103102 	ands	r3, r0, #-2147483648	; 0x80000000
    9ce0:	5a000001 	bpl	9cec <__addsf3+0xb0>
    9ce4:	e2711000 	rsbs	r1, r1, #0	; 0x0
    9ce8:	e2e00000 	rsc	r0, r0, #0	; 0x0
    9cec:	e3500502 	cmp	r0, #8388608	; 0x800000
    9cf0:	3a000014 	bcc	9d48 <__addsf3+0x10c>
    9cf4:	e3500401 	cmp	r0, #16777216	; 0x1000000
    9cf8:	3a000007 	bcc	9d1c <__addsf3+0xe0>
    9cfc:	e3500402 	cmp	r0, #33554432	; 0x2000000
    9d00:	3a000002 	bcc	9d10 <__addsf3+0xd4>
    9d04:	e1b000a0 	movs	r0, r0, lsr #1
    9d08:	e1a01061 	mov	r1, r1, rrx
    9d0c:	e2822502 	add	r2, r2, #8388608	; 0x800000
    9d10:	e1b000a0 	movs	r0, r0, lsr #1
    9d14:	e1a01061 	mov	r1, r1, rrx
    9d18:	e2822502 	add	r2, r2, #8388608	; 0x800000
    9d1c:	e0800fa1 	add	r0, r0, r1, lsr #31
    9d20:	e3310102 	teq	r1, #-2147483648	; 0x80000000
    9d24:	03c00001 	biceq	r0, r0, #1	; 0x1
    9d28:	e3100401 	tst	r0, #16777216	; 0x1000000
    9d2c:	12822502 	addne	r2, r2, #8388608	; 0x800000
    9d30:	e352047f 	cmp	r2, #2130706432	; 0x7f000000
    9d34:	8a000024 	bhi	9dcc <__addsf3+0x190>
    9d38:	e3c00506 	bic	r0, r0, #25165824	; 0x1800000
    9d3c:	e1800002 	orr	r0, r0, r2
    9d40:	e1800003 	orr	r0, r0, r3
    9d44:	e12fff1e 	bx	lr
    9d48:	e1b0c620 	movs	ip, r0, lsr #12
    9d4c:	01a00600 	moveq	r0, r0, lsl #12
    9d50:	02422406 	subeq	r2, r2, #100663296	; 0x6000000
    9d54:	e31008ff 	tst	r0, #16711680	; 0xff0000
    9d58:	01a00400 	moveq	r0, r0, lsl #8
    9d5c:	02422301 	subeq	r2, r2, #67108864	; 0x4000000
    9d60:	e310060f 	tst	r0, #15728640	; 0xf00000
    9d64:	01a00200 	moveq	r0, r0, lsl #4
    9d68:	02422402 	subeq	r2, r2, #33554432	; 0x2000000
    9d6c:	e3100503 	tst	r0, #12582912	; 0xc00000
    9d70:	01a00100 	moveq	r0, r0, lsl #2
    9d74:	02422401 	subeq	r2, r2, #16777216	; 0x1000000
    9d78:	e3100502 	tst	r0, #8388608	; 0x800000
    9d7c:	01a00080 	moveq	r0, r0, lsl #1
    9d80:	02422502 	subeq	r2, r2, #8388608	; 0x800000
    9d84:	e3520000 	cmp	r2, #0	; 0x0
    9d88:	caffffea 	bgt	9d38 <__addsf3+0xfc>
    9d8c:	e1e02bc2 	mvn	r2, r2, asr #23
    9d90:	e2822002 	add	r2, r2, #2	; 0x2
    9d94:	e1830230 	orr	r0, r3, r0, lsr r2
    9d98:	e12fff1e 	bx	lr
    9d9c:	e3320000 	teq	r2, #0	; 0x0
    9da0:	02200502 	eoreq	r0, r0, #8388608	; 0x800000
    9da4:	02822502 	addeq	r2, r2, #8388608	; 0x800000
    9da8:	e2211502 	eor	r1, r1, #8388608	; 0x800000
    9dac:	12433502 	subne	r3, r3, #8388608	; 0x800000
    9db0:	eaffffc0 	b	9cb8 <__addsf3+0x7c>
    9db4:	e3a0c4ff 	mov	ip, #-16777216	; 0xff000000
    9db8:	e00020ac 	and	r2, r0, ip, lsr #1
    9dbc:	e13200ac 	teq	r2, ip, lsr #1
    9dc0:	01a0014c 	moveq	r0, ip, asr #2
    9dc4:	13a00000 	movne	r0, #0	; 0x0
    9dc8:	e12fff1e 	bx	lr
    9dcc:	e383047f 	orr	r0, r3, #2130706432	; 0x7f000000
    9dd0:	e3800502 	orr	r0, r0, #8388608	; 0x800000
    9dd4:	e12fff1e 	bx	lr
    9dd8:	e13200ac 	teq	r2, ip, lsr #1
    9ddc:	11a00001 	movne	r0, r1
    9de0:	013300ac 	teqeq	r3, ip, lsr #1
    9de4:	112fff1e 	bxne	lr
    9de8:	e1b02480 	movs	r2, r0, lsl #9
    9dec:	01b02481 	moveqs	r2, r1, lsl #9
    9df0:	01300001 	teqeq	r0, r1
    9df4:	13830501 	orrne	r0, r3, #4194304	; 0x400000
    9df8:	e12fff1e 	bx	lr

00009dfc <__floatunsisf>:
    9dfc:	e3a03000 	mov	r3, #0	; 0x0
    9e00:	ea000001 	b	9e0c <__floatsisf+0x8>

00009e04 <__floatsisf>:
    9e04:	e2103102 	ands	r3, r0, #-2147483648	; 0x80000000
    9e08:	42600000 	rsbmi	r0, r0, #0	; 0x0
    9e0c:	e3300000 	teq	r0, #0	; 0x0
    9e10:	012fff1e 	bxeq	lr
    9e14:	e3a01000 	mov	r1, #0	; 0x0
    9e18:	e3a0244b 	mov	r2, #1258291200	; 0x4b000000
    9e1c:	e310033f 	tst	r0, #-67108864	; 0xfc000000
    9e20:	0affffb1 	beq	9cec <__addsf3+0xb0>
    9e24:	e310020f 	tst	r0, #-268435456	; 0xf0000000
    9e28:	11a01e00 	movne	r1, r0, lsl #28
    9e2c:	11a00220 	movne	r0, r0, lsr #4
    9e30:	12822402 	addne	r2, r2, #33554432	; 0x2000000
    9e34:	e3100303 	tst	r0, #201326592	; 0xc000000
    9e38:	0affffab 	beq	9cec <__addsf3+0xb0>
    9e3c:	e1a01121 	mov	r1, r1, lsr #2
    9e40:	e1811f00 	orr	r1, r1, r0, lsl #30
    9e44:	e1a00120 	mov	r0, r0, lsr #2
    9e48:	e2822401 	add	r2, r2, #16777216	; 0x1000000
    9e4c:	eaffffa6 	b	9cec <__addsf3+0xb0>

00009e50 <__mulsf3>:
    9e50:	e3a0c4ff 	mov	ip, #-16777216	; 0xff000000
    9e54:	e00020ac 	and	r2, r0, ip, lsr #1
    9e58:	e00130ac 	and	r3, r1, ip, lsr #1
    9e5c:	e13200ac 	teq	r2, ip, lsr #1
    9e60:	113300ac 	teqne	r3, ip, lsr #1
    9e64:	0a000048 	beq	9f8c <__mulsf3+0x13c>
    9e68:	e3d0c102 	bics	ip, r0, #-2147483648	; 0x80000000
    9e6c:	13d1c102 	bicnes	ip, r1, #-2147483648	; 0x80000000
    9e70:	0a00001e 	beq	9ef0 <__mulsf3+0xa0>
    9e74:	e1b020a2 	movs	r2, r2, lsr #1
    9e78:	13330000 	teqne	r3, #0	; 0x0
    9e7c:	0a000033 	beq	9f50 <__mulsf3+0x100>
    9e80:	e08220c3 	add	r2, r2, r3, asr #1
    9e84:	e1300001 	teq	r0, r1
    9e88:	43822902 	orrmi	r2, r2, #32768	; 0x8000
    9e8c:	e3c004ff 	bic	r0, r0, #-16777216	; 0xff000000
    9e90:	e3c114ff 	bic	r1, r1, #-16777216	; 0xff000000
    9e94:	e3800502 	orr	r0, r0, #8388608	; 0x800000
    9e98:	e3811502 	orr	r1, r1, #8388608	; 0x800000
    9e9c:	e08c3190 	umull	r3, ip, r0, r1
    9ea0:	e1a00802 	mov	r0, r2, lsl #16
    9ea4:	e3c22902 	bic	r2, r2, #32768	; 0x8000
    9ea8:	e31c0902 	tst	ip, #32768	; 0x8000
    9eac:	12822501 	addne	r2, r2, #4194304	; 0x400000
    9eb0:	11b0c0ac 	movnes	ip, ip, lsr #1
    9eb4:	11a03063 	movne	r3, r3, rrx
    9eb8:	e252257f 	subs	r2, r2, #532676608	; 0x1fc00000
    9ebc:	da00000e 	ble	9efc <__mulsf3+0xac>
    9ec0:	e1900ba3 	orrs	r0, r0, r3, lsr #23
    9ec4:	e0a0048c 	adc	r0, r0, ip, lsl #9
    9ec8:	e1a03483 	mov	r3, r3, lsl #9
    9ecc:	e3330102 	teq	r3, #-2147483648	; 0x80000000
    9ed0:	03c00001 	biceq	r0, r0, #1	; 0x1
    9ed4:	e3100401 	tst	r0, #16777216	; 0x1000000
    9ed8:	12822501 	addne	r2, r2, #4194304	; 0x400000
    9edc:	e35205ff 	cmp	r2, #1069547520	; 0x3fc00000
    9ee0:	aa000037 	bge	9fc4 <__mulsf3+0x174>
    9ee4:	e3c00506 	bic	r0, r0, #25165824	; 0x1800000
    9ee8:	e1800082 	orr	r0, r0, r2, lsl #1
    9eec:	e12fff1e 	bx	lr
    9ef0:	e0200001 	eor	r0, r0, r1
    9ef4:	e2000102 	and	r0, r0, #-2147483648	; 0x80000000
    9ef8:	e12fff1e 	bx	lr
    9efc:	e3720406 	cmn	r2, #100663296	; 0x6000000
    9f00:	d12fff1e 	bxle	lr
    9f04:	e1e01b42 	mvn	r1, r2, asr #22
    9f08:	e2511007 	subs	r1, r1, #7	; 0x7
    9f0c:	ca000007 	bgt	9f30 <__mulsf3+0xe0>
    9f10:	e2811020 	add	r1, r1, #32	; 0x20
    9f14:	e1900133 	orrs	r0, r0, r3, lsr r1
    9f18:	e2611020 	rsb	r1, r1, #32	; 0x20
    9f1c:	e0a0011c 	adc	r0, r0, ip, lsl r1
    9f20:	e1a0c113 	mov	ip, r3, lsl r1
    9f24:	e33c0102 	teq	ip, #-2147483648	; 0x80000000
    9f28:	03c00001 	biceq	r0, r0, #1	; 0x1
    9f2c:	e12fff1e 	bx	lr
    9f30:	e190013c 	orrs	r0, r0, ip, lsr r1
    9f34:	e2a00000 	adc	r0, r0, #0	; 0x0
    9f38:	e2611020 	rsb	r1, r1, #32	; 0x20
    9f3c:	e1a0c11c 	mov	ip, ip, lsl r1
    9f40:	e3330000 	teq	r3, #0	; 0x0
    9f44:	033c0102 	teqeq	ip, #-2147483648	; 0x80000000
    9f48:	03c00001 	biceq	r0, r0, #1	; 0x1
    9f4c:	e12fff1e 	bx	lr
    9f50:	e3320000 	teq	r2, #0	; 0x0
    9f54:	e200c102 	and	ip, r0, #-2147483648	; 0x80000000
    9f58:	01a00080 	moveq	r0, r0, lsl #1
    9f5c:	03100502 	tsteq	r0, #8388608	; 0x800000
    9f60:	02422501 	subeq	r2, r2, #4194304	; 0x400000
    9f64:	0afffffb 	beq	9f58 <__mulsf3+0x108>
    9f68:	e180000c 	orr	r0, r0, ip
    9f6c:	e3330000 	teq	r3, #0	; 0x0
    9f70:	e201c102 	and	ip, r1, #-2147483648	; 0x80000000
    9f74:	01a01081 	moveq	r1, r1, lsl #1
    9f78:	03110502 	tsteq	r1, #8388608	; 0x800000
    9f7c:	02433502 	subeq	r3, r3, #8388608	; 0x800000
    9f80:	0afffffb 	beq	9f74 <__mulsf3+0x124>
    9f84:	e181100c 	orr	r1, r1, ip
    9f88:	eaffffbc 	b	9e80 <__mulsf3+0x30>
    9f8c:	e3300000 	teq	r0, #0	; 0x0
    9f90:	13310000 	teqne	r1, #0	; 0x0
    9f94:	13300102 	teqne	r0, #-2147483648	; 0x80000000
    9f98:	13310102 	teqne	r1, #-2147483648	; 0x80000000
    9f9c:	0a00000c 	beq	9fd4 <__mulsf3+0x184>
    9fa0:	e13200ac 	teq	r2, ip, lsr #1
    9fa4:	1a000001 	bne	9fb0 <__mulsf3+0x160>
    9fa8:	e1b02480 	movs	r2, r0, lsl #9
    9fac:	1a000008 	bne	9fd4 <__mulsf3+0x184>
    9fb0:	e13300ac 	teq	r3, ip, lsr #1
    9fb4:	1a000001 	bne	9fc0 <__mulsf3+0x170>
    9fb8:	e1b03481 	movs	r3, r1, lsl #9
    9fbc:	1a000004 	bne	9fd4 <__mulsf3+0x184>
    9fc0:	e0200001 	eor	r0, r0, r1
    9fc4:	e2000102 	and	r0, r0, #-2147483648	; 0x80000000
    9fc8:	e380047f 	orr	r0, r0, #2130706432	; 0x7f000000
    9fcc:	e3800502 	orr	r0, r0, #8388608	; 0x800000
    9fd0:	e12fff1e 	bx	lr
    9fd4:	e3a0047f 	mov	r0, #2130706432	; 0x7f000000
    9fd8:	e3800503 	orr	r0, r0, #12582912	; 0xc00000
    9fdc:	e12fff1e 	bx	lr

00009fe0 <__divsf3>:
    9fe0:	e3a0c4ff 	mov	ip, #-16777216	; 0xff000000
    9fe4:	e00020ac 	and	r2, r0, ip, lsr #1
    9fe8:	e00130ac 	and	r3, r1, ip, lsr #1
    9fec:	e13200ac 	teq	r2, ip, lsr #1
    9ff0:	113300ac 	teqne	r3, ip, lsr #1
    9ff4:	13d0c102 	bicnes	ip, r0, #-2147483648	; 0x80000000
    9ff8:	13d1c102 	bicnes	ip, r1, #-2147483648	; 0x80000000
    9ffc:	0a00004c 	beq	a134 <__divsf3+0x154>
    a000:	e1b020a2 	movs	r2, r2, lsr #1
    a004:	13330000 	teqne	r3, #0	; 0x0
    a008:	0a00003a 	beq	a0f8 <__divsf3+0x118>
    a00c:	e04220c3 	sub	r2, r2, r3, asr #1
    a010:	e020c001 	eor	ip, r0, r1
    a014:	e3a03201 	mov	r3, #268435456	; 0x10000000
    a018:	e1b01481 	movs	r1, r1, lsl #9
    a01c:	e1a00480 	mov	r0, r0, lsl #9
    a020:	0a000022 	beq	a0b0 <__divsf3+0xd0>
    a024:	e1831221 	orr	r1, r3, r1, lsr #4
    a028:	e1833220 	orr	r3, r3, r0, lsr #4
    a02c:	e20c0102 	and	r0, ip, #-2147483648	; 0x80000000
    a030:	e1530001 	cmp	r3, r1
    a034:	32422501 	subcc	r2, r2, #4194304	; 0x400000
    a038:	31a03083 	movcc	r3, r3, lsl #1
    a03c:	e282257f 	add	r2, r2, #532676608	; 0x1fc00000
    a040:	e3720406 	cmn	r2, #100663296	; 0x6000000
    a044:	d12fff1e 	bxle	lr
    a048:	e35205ff 	cmp	r2, #1069547520	; 0x3fc00000
    a04c:	aaffffdc 	bge	9fc4 <__mulsf3+0x174>
    a050:	e3a0c502 	mov	ip, #8388608	; 0x800000
    a054:	e1530001 	cmp	r3, r1
    a058:	20433001 	subcs	r3, r3, r1
    a05c:	2180000c 	orrcs	r0, r0, ip
    a060:	e15300a1 	cmp	r3, r1, lsr #1
    a064:	204330a1 	subcs	r3, r3, r1, lsr #1
    a068:	218000ac 	orrcs	r0, r0, ip, lsr #1
    a06c:	e1530121 	cmp	r3, r1, lsr #2
    a070:	20433121 	subcs	r3, r3, r1, lsr #2
    a074:	2180012c 	orrcs	r0, r0, ip, lsr #2
    a078:	e15301a1 	cmp	r3, r1, lsr #3
    a07c:	204331a1 	subcs	r3, r3, r1, lsr #3
    a080:	218001ac 	orrcs	r0, r0, ip, lsr #3
    a084:	e1b03203 	movs	r3, r3, lsl #4
    a088:	11b0c22c 	movnes	ip, ip, lsr #4
    a08c:	1afffff0 	bne	a054 <__divsf3+0x74>
    a090:	e3520000 	cmp	r2, #0	; 0x0
    a094:	da000012 	ble	a0e4 <__divsf3+0x104>
    a098:	e1530001 	cmp	r3, r1
    a09c:	22800001 	addcs	r0, r0, #1	; 0x1
    a0a0:	03c00001 	biceq	r0, r0, #1	; 0x1
    a0a4:	e3c00502 	bic	r0, r0, #8388608	; 0x800000
    a0a8:	e1800082 	orr	r0, r0, r2, lsl #1
    a0ac:	e12fff1e 	bx	lr
    a0b0:	e20cc102 	and	ip, ip, #-2147483648	; 0x80000000
    a0b4:	e18c04a0 	orr	r0, ip, r0, lsr #9
    a0b8:	e282257f 	add	r2, r2, #532676608	; 0x1fc00000
    a0bc:	e35205ff 	cmp	r2, #1069547520	; 0x3fc00000
    a0c0:	aaffffbf 	bge	9fc4 <__mulsf3+0x174>
    a0c4:	e3520000 	cmp	r2, #0	; 0x0
    a0c8:	c1800082 	orrgt	r0, r0, r2, lsl #1
    a0cc:	c12fff1e 	bxgt	lr
    a0d0:	e3720406 	cmn	r2, #100663296	; 0x6000000
    a0d4:	d1a0000c 	movle	r0, ip
    a0d8:	d12fff1e 	bxle	lr
    a0dc:	e3800502 	orr	r0, r0, #8388608	; 0x800000
    a0e0:	e3a03000 	mov	r3, #0	; 0x0
    a0e4:	e3c0c102 	bic	ip, r0, #-2147483648	; 0x80000000
    a0e8:	e2000102 	and	r0, r0, #-2147483648	; 0x80000000
    a0ec:	e1e01b42 	mvn	r1, r2, asr #22
    a0f0:	e2811002 	add	r1, r1, #2	; 0x2
    a0f4:	eaffff8d 	b	9f30 <__mulsf3+0xe0>
    a0f8:	e3320000 	teq	r2, #0	; 0x0
    a0fc:	e200c102 	and	ip, r0, #-2147483648	; 0x80000000
    a100:	01a00080 	moveq	r0, r0, lsl #1
    a104:	03100502 	tsteq	r0, #8388608	; 0x800000
    a108:	02422501 	subeq	r2, r2, #4194304	; 0x400000
    a10c:	0afffffb 	beq	a100 <__divsf3+0x120>
    a110:	e180000c 	orr	r0, r0, ip
    a114:	e3330000 	teq	r3, #0	; 0x0
    a118:	e201c102 	and	ip, r1, #-2147483648	; 0x80000000
    a11c:	01a01081 	moveq	r1, r1, lsl #1
    a120:	03110502 	tsteq	r1, #8388608	; 0x800000
    a124:	02433502 	subeq	r3, r3, #8388608	; 0x800000
    a128:	0afffffb 	beq	a11c <__divsf3+0x13c>
    a12c:	e181100c 	orr	r1, r1, ip
    a130:	eaffffb5 	b	a00c <__divsf3+0x2c>
    a134:	e3a0c4ff 	mov	ip, #-16777216	; 0xff000000
    a138:	e13200ac 	teq	r2, ip, lsr #1
    a13c:	013300ac 	teqeq	r3, ip, lsr #1
    a140:	0affffa3 	beq	9fd4 <__mulsf3+0x184>
    a144:	e13200ac 	teq	r2, ip, lsr #1
    a148:	1a000002 	bne	a158 <__divsf3+0x178>
    a14c:	e1b02480 	movs	r2, r0, lsl #9
    a150:	1affff9f 	bne	9fd4 <__mulsf3+0x184>
    a154:	eaffff99 	b	9fc0 <__mulsf3+0x170>
    a158:	e13300ac 	teq	r3, ip, lsr #1
    a15c:	1a000002 	bne	a16c <__divsf3+0x18c>
    a160:	e1b03481 	movs	r3, r1, lsl #9
    a164:	1affff9a 	bne	9fd4 <__mulsf3+0x184>
    a168:	eaffff60 	b	9ef0 <__mulsf3+0xa0>
    a16c:	e3d02102 	bics	r2, r0, #-2147483648	; 0x80000000
    a170:	1affff92 	bne	9fc0 <__mulsf3+0x170>
    a174:	e3d13102 	bics	r3, r1, #-2147483648	; 0x80000000
    a178:	1affff5c 	bne	9ef0 <__mulsf3+0xa0>
    a17c:	eaffff94 	b	9fd4 <__mulsf3+0x184>

0000a180 <__fixsfsi>:
    a180:	e1b00080 	movs	r0, r0, lsl #1
    a184:	012fff1e 	bxeq	lr
    a188:	e1a01061 	mov	r1, r1, rrx
    a18c:	e20024ff 	and	r2, r0, #-16777216	; 0xff000000
    a190:	e352047f 	cmp	r2, #2130706432	; 0x7f000000
    a194:	33a00000 	movcc	r0, #0	; 0x0
    a198:	312fff1e 	bxcc	lr
    a19c:	e352049e 	cmp	r2, #-1644167168	; 0x9e000000
    a1a0:	2a000007 	bcs	a1c4 <__fixsfsi+0x44>
    a1a4:	e1a00380 	mov	r0, r0, lsl #7
    a1a8:	e3800102 	orr	r0, r0, #-2147483648	; 0x80000000
    a1ac:	e1a02c22 	mov	r2, r2, lsr #24
    a1b0:	e262209e 	rsb	r2, r2, #158	; 0x9e
    a1b4:	e3110102 	tst	r1, #-2147483648	; 0x80000000
    a1b8:	e1a00230 	mov	r0, r0, lsr r2
    a1bc:	12600000 	rsbne	r0, r0, #0	; 0x0
    a1c0:	e12fff1e 	bx	lr
    a1c4:	e33204ff 	teq	r2, #-16777216	; 0xff000000
    a1c8:	1a000001 	bne	a1d4 <__fixsfsi+0x54>
    a1cc:	e1b00400 	movs	r0, r0, lsl #8
    a1d0:	1a000002 	bne	a1e0 <__fixsfsi+0x60>
    a1d4:	e2110102 	ands	r0, r1, #-2147483648	; 0x80000000
    a1d8:	03e00102 	mvneq	r0, #-2147483648	; 0x80000000
    a1dc:	e12fff1e 	bx	lr
    a1e0:	e3a00000 	mov	r0, #0	; 0x0
    a1e4:	e12fff1e 	bx	lr

0000a1e8 <memcpy>:
    a1e8:	e352000f 	cmp	r2, #15	; 0xf
    a1ec:	e1a0c002 	mov	ip, r2
    a1f0:	e52de004 	str	lr, [sp, #-4]!
    a1f4:	e1a02000 	mov	r2, r0
    a1f8:	9a000016 	bls	a258 <memcpy+0x70>
    a1fc:	e1813000 	orr	r3, r1, r0
    a200:	e3130003 	tst	r3, #3	; 0x3
    a204:	1a000013 	bne	a258 <memcpy+0x70>
    a208:	e1a0e000 	mov	lr, r0
    a20c:	e4913004 	ldr	r3, [r1], #4
    a210:	e48e3004 	str	r3, [lr], #4
    a214:	e4912004 	ldr	r2, [r1], #4
    a218:	e48e2004 	str	r2, [lr], #4
    a21c:	e4913004 	ldr	r3, [r1], #4
    a220:	e48e3004 	str	r3, [lr], #4
    a224:	e24cc010 	sub	ip, ip, #16	; 0x10
    a228:	e4913004 	ldr	r3, [r1], #4
    a22c:	e35c000f 	cmp	ip, #15	; 0xf
    a230:	e48e3004 	str	r3, [lr], #4
    a234:	8afffff4 	bhi	a20c <memcpy+0x24>
    a238:	e35c0003 	cmp	ip, #3	; 0x3
    a23c:	9a000004 	bls	a254 <memcpy+0x6c>
    a240:	e4913004 	ldr	r3, [r1], #4
    a244:	e24cc004 	sub	ip, ip, #4	; 0x4
    a248:	e35c0003 	cmp	ip, #3	; 0x3
    a24c:	e48e3004 	str	r3, [lr], #4
    a250:	8afffffa 	bhi	a240 <memcpy+0x58>
    a254:	e1a0200e 	mov	r2, lr
    a258:	e25cc001 	subs	ip, ip, #1	; 0x1
    a25c:	349df004 	ldrcc	pc, [sp], #4
    a260:	e24cc001 	sub	ip, ip, #1	; 0x1
    a264:	e4d13001 	ldrb	r3, [r1], #1
    a268:	e37c0001 	cmn	ip, #1	; 0x1
    a26c:	e4c23001 	strb	r3, [r2], #1
    a270:	1afffffa 	bne	a260 <memcpy+0x78>
    a274:	e49df004 	ldr	pc, [sp], #4
