
autopilot.elf:     format de fichier elf32-littlearm

Déassemblage de la section .text:

00008000 <_start>:
    8000:	e1a0c00d 	mov	ip, sp
    8004:	e92dd800 	stmdb	sp!, {fp, ip, lr, pc}
    8008:	e24cb004 	sub	fp, ip, #4	; 0x4
    800c:	e3a0d102 	mov	sp, #-2147483648	; 0x80000000
    8010:	e3a00001 	mov	r0, #1	; 0x1
    8014:	e59f1008 	ldr	r1, [pc, #8]	; 8024 <.text+0x24>
    8018:	e59f2008 	ldr	r2, [pc, #8]	; 8028 <.text+0x28>
    801c:	eb00276d 	bl	11dd8 <main>
    8020:	eafffffe 	b	8020 <_start+0x20>
    8024:	000134f8 	streqd	r3, [r1], -r8
    8028:	0001359c 	muleq	r1, ip, r5

0000802c <ground_calibrate>:
    802c:	e1a0c00d 	mov	ip, sp
    8030:	e92ddff0 	stmdb	sp!, {r4, r5, r6, r7, r8, r9, sl, fp, ip, lr, pc}
    8034:	e59f582c 	ldr	r5, [pc, #2092]	; 8868 <.text+0x868>
    8038:	e5d53000 	ldrb	r3, [r5]
    803c:	e3530000 	cmp	r3, #0	; 0x0
    8040:	e24cb004 	sub	fp, ip, #4	; 0x4
    8044:	1a000048 	bne	816c <ground_calibrate+0x140>
    8048:	e59f381c 	ldr	r3, [pc, #2076]	; 886c <.text+0x86c>
    804c:	e1d320b0 	ldrh	r2, [r3]
    8050:	e3520009 	cmp	r2, #9	; 0x9
    8054:	889daff0 	ldmhiia	sp, {r4, r5, r6, r7, r8, r9, sl, fp, sp, pc}
    8058:	e59f3810 	ldr	r3, [pc, #2064]	; 8870 <.text+0x870>
    805c:	e5d32000 	ldrb	r2, [r3]
    8060:	e3520001 	cmp	r2, #1	; 0x1
    8064:	189daff0 	ldmneia	sp, {r4, r5, r6, r7, r8, r9, sl, fp, sp, pc}
    8068:	e59fa804 	ldr	sl, [pc, #2052]	; 8874 <.text+0x874>
    806c:	e59f8804 	ldr	r8, [pc, #2052]	; 8878 <.text+0x878>
    8070:	e5da3000 	ldrb	r3, [sl]
    8074:	e5d81000 	ldrb	r1, [r8]
    8078:	e1510003 	cmp	r1, r3
    807c:	25da3000 	ldrcsb	r3, [sl]
    8080:	35da3000 	ldrccb	r3, [sl]
    8084:	20633001 	rsbcs	r3, r3, r1
    8088:	226330ff 	rsbcs	r3, r3, #255	; 0xff
    808c:	30613003 	rsbcc	r3, r1, r3
    8090:	e3530004 	cmp	r3, #4	; 0x4
    8094:	e5c52000 	strb	r2, [r5]
    8098:	da0001ed 	ble	8854 <ground_calibrate+0x828>
    809c:	e5d83000 	ldrb	r3, [r8]
    80a0:	e2832001 	add	r2, r3, #1	; 0x1
    80a4:	e5c82000 	strb	r2, [r8]
    80a8:	e5d81000 	ldrb	r1, [r8]
    80ac:	e59f47c8 	ldr	r4, [pc, #1992]	; 887c <.text+0x87c>
    80b0:	e35100ff 	cmp	r1, #255	; 0xff
    80b4:	e3a02005 	mov	r2, #5	; 0x5
    80b8:	e7c42003 	strb	r2, [r4, r3]
    80bc:	03a03000 	moveq	r3, #0	; 0x0
    80c0:	e59f07b0 	ldr	r0, [pc, #1968]	; 8878 <.text+0x878>
    80c4:	01a01003 	moveq	r1, r3
    80c8:	05c83000 	streqb	r3, [r8]
    80cc:	e2813001 	add	r3, r1, #1	; 0x1
    80d0:	e5c03000 	strb	r3, [r0]
    80d4:	e3a0c002 	mov	ip, #2	; 0x2
    80d8:	e7c4c001 	strb	ip, [r4, r1]
    80dc:	e5d01000 	ldrb	r1, [r0]
    80e0:	e35100ff 	cmp	r1, #255	; 0xff
    80e4:	03a03000 	moveq	r3, #0	; 0x0
    80e8:	01a01003 	moveq	r1, r3
    80ec:	05c03000 	streqb	r3, [r0]
    80f0:	e2813001 	add	r3, r1, #1	; 0x1
    80f4:	e5c03000 	strb	r3, [r0]
    80f8:	e7c4c001 	strb	ip, [r4, r1]
    80fc:	e5d01000 	ldrb	r1, [r0]
    8100:	e59f3778 	ldr	r3, [pc, #1912]	; 8880 <.text+0x880>
    8104:	e35100ff 	cmp	r1, #255	; 0xff
    8108:	e5c3c000 	strb	ip, [r3]
    810c:	03a03000 	moveq	r3, #0	; 0x0
    8110:	01a01003 	moveq	r1, r3
    8114:	05c03000 	streqb	r3, [r0]
    8118:	e2813001 	add	r3, r1, #1	; 0x1
    811c:	e5c03000 	strb	r3, [r0]
    8120:	e59f275c 	ldr	r2, [pc, #1884]	; 8884 <.text+0x884>
    8124:	e5c2c000 	strb	ip, [r2]
    8128:	e5d02000 	ldrb	r2, [r0]
    812c:	e35200ff 	cmp	r2, #255	; 0xff
    8130:	03a03000 	moveq	r3, #0	; 0x0
    8134:	e7c4c001 	strb	ip, [r4, r1]
    8138:	05c03000 	streqb	r3, [r0]
    813c:	e3a0c059 	mov	ip, #89	; 0x59
    8140:	e5dc3000 	ldrb	r3, [ip]
    8144:	e1a03223 	mov	r3, r3, lsr #4
    8148:	e213e001 	ands	lr, r3, #1	; 0x1
    814c:	189daff0 	ldmneia	sp, {r4, r5, r6, r7, r8, r9, sl, fp, sp, pc}
    8150:	e5da0000 	ldrb	r0, [sl]
    8154:	e5da3000 	ldrb	r3, [sl]
    8158:	e2833001 	add	r3, r3, #1	; 0x1
    815c:	e5ca3000 	strb	r3, [sl]
    8160:	e7d41000 	ldrb	r1, [r4, r0]
    8164:	e5da2000 	ldrb	r2, [sl]
    8168:	ea0001ab 	b	881c <ground_calibrate+0x7f0>
    816c:	e3530001 	cmp	r3, #1	; 0x1
    8170:	189daff0 	ldmneia	sp, {r4, r5, r6, r7, r8, r9, sl, fp, sp, pc}
    8174:	e59f270c 	ldr	r2, [pc, #1804]	; 8888 <.text+0x888>
    8178:	e1d230b2 	ldrh	r3, [r2, #2]
    817c:	e2833d4b 	add	r3, r3, #4800	; 0x12c0
    8180:	e1a03803 	mov	r3, r3, lsl #16
    8184:	e353057d 	cmp	r3, #524288000	; 0x1f400000
    8188:	989daff0 	ldmlsia	sp, {r4, r5, r6, r7, r8, r9, sl, fp, sp, pc}
    818c:	e59fa6e0 	ldr	sl, [pc, #1760]	; 8874 <.text+0x874>
    8190:	e59f86e0 	ldr	r8, [pc, #1760]	; 8878 <.text+0x878>
    8194:	eb001a7d 	bl	eb90 <ir_gain_calib>
    8198:	e5da3000 	ldrb	r3, [sl]
    819c:	e5d80000 	ldrb	r0, [r8]
    81a0:	e1500003 	cmp	r0, r3
    81a4:	25da3000 	ldrcsb	r3, [sl]
    81a8:	35da3000 	ldrccb	r3, [sl]
    81ac:	20633000 	rsbcs	r3, r3, r0
    81b0:	e59f26d4 	ldr	r2, [pc, #1748]	; 888c <.text+0x88c>
    81b4:	226330ff 	rsbcs	r3, r3, #255	; 0xff
    81b8:	30603003 	rsbcc	r3, r0, r3
    81bc:	e3530014 	cmp	r3, #20	; 0x14
    81c0:	e5921000 	ldr	r1, [r2]
    81c4:	d59f26c4 	ldrle	r2, [pc, #1732]	; 8890 <.text+0x890>
    81c8:	d5d23000 	ldrleb	r3, [r2]
    81cc:	e59f96c0 	ldr	r9, [pc, #1728]	; 8894 <.text+0x894>
    81d0:	d2833001 	addle	r3, r3, #1	; 0x1
    81d4:	e5891000 	str	r1, [r9]
    81d8:	d5c23000 	strleb	r3, [r2]
    81dc:	da000131 	ble	86a8 <ground_calibrate+0x67c>
    81e0:	e5d82000 	ldrb	r2, [r8]
    81e4:	e2823001 	add	r3, r2, #1	; 0x1
    81e8:	e5c83000 	strb	r3, [r8]
    81ec:	e5d80000 	ldrb	r0, [r8]
    81f0:	e35000ff 	cmp	r0, #255	; 0xff
    81f4:	03a03000 	moveq	r3, #0	; 0x0
    81f8:	e59fc678 	ldr	ip, [pc, #1656]	; 8878 <.text+0x878>
    81fc:	01a00003 	moveq	r0, r3
    8200:	05c83000 	streqb	r3, [r8]
    8204:	e2803001 	add	r3, r0, #1	; 0x1
    8208:	e59f666c 	ldr	r6, [pc, #1644]	; 887c <.text+0x87c>
    820c:	e5cc3000 	strb	r3, [ip]
    8210:	e3a01005 	mov	r1, #5	; 0x5
    8214:	e7c61002 	strb	r1, [r6, r2]
    8218:	e7c61000 	strb	r1, [r6, r0]
    821c:	e5dc0000 	ldrb	r0, [ip]
    8220:	e35000ff 	cmp	r0, #255	; 0xff
    8224:	03a03000 	moveq	r3, #0	; 0x0
    8228:	05cc3000 	streqb	r3, [ip]
    822c:	e59f7664 	ldr	r7, [pc, #1636]	; 8898 <.text+0x898>
    8230:	e5d71000 	ldrb	r1, [r7]
    8234:	e59fe644 	ldr	lr, [pc, #1604]	; 8880 <.text+0x880>
    8238:	01a00003 	moveq	r0, r3
    823c:	e2802001 	add	r2, r0, #1	; 0x1
    8240:	e2813005 	add	r3, r1, #5	; 0x5
    8244:	e5cc2000 	strb	r2, [ip]
    8248:	e5ce3000 	strb	r3, [lr]
    824c:	e7c61000 	strb	r1, [r6, r0]
    8250:	e5de2000 	ldrb	r2, [lr]
    8254:	e5dc0000 	ldrb	r0, [ip]
    8258:	e59f4624 	ldr	r4, [pc, #1572]	; 8884 <.text+0x884>
    825c:	e2823005 	add	r3, r2, #5	; 0x5
    8260:	e35000ff 	cmp	r0, #255	; 0xff
    8264:	e5c43000 	strb	r3, [r4]
    8268:	03a03000 	moveq	r3, #0	; 0x0
    826c:	05cc3000 	streqb	r3, [ip]
    8270:	e5d71001 	ldrb	r1, [r7, #1]
    8274:	01a00003 	moveq	r0, r3
    8278:	e0813002 	add	r3, r1, r2
    827c:	e2802001 	add	r2, r0, #1	; 0x1
    8280:	e5cc2000 	strb	r2, [ip]
    8284:	e5ce3000 	strb	r3, [lr]
    8288:	e7c61000 	strb	r1, [r6, r0]
    828c:	e5de2000 	ldrb	r2, [lr]
    8290:	e5dc0000 	ldrb	r0, [ip]
    8294:	e5d43000 	ldrb	r3, [r4]
    8298:	e35000ff 	cmp	r0, #255	; 0xff
    829c:	e0833002 	add	r3, r3, r2
    82a0:	e5c43000 	strb	r3, [r4]
    82a4:	03a03000 	moveq	r3, #0	; 0x0
    82a8:	05cc3000 	streqb	r3, [ip]
    82ac:	e5d71002 	ldrb	r1, [r7, #2]
    82b0:	01a00003 	moveq	r0, r3
    82b4:	e0813002 	add	r3, r1, r2
    82b8:	e2802001 	add	r2, r0, #1	; 0x1
    82bc:	e5ce3000 	strb	r3, [lr]
    82c0:	e5cc2000 	strb	r2, [ip]
    82c4:	e7c61000 	strb	r1, [r6, r0]
    82c8:	e5de2000 	ldrb	r2, [lr]
    82cc:	e5dc0000 	ldrb	r0, [ip]
    82d0:	e5d43000 	ldrb	r3, [r4]
    82d4:	e35000ff 	cmp	r0, #255	; 0xff
    82d8:	e0833002 	add	r3, r3, r2
    82dc:	e5c43000 	strb	r3, [r4]
    82e0:	03a03000 	moveq	r3, #0	; 0x0
    82e4:	05cc3000 	streqb	r3, [ip]
    82e8:	e5d71003 	ldrb	r1, [r7, #3]
    82ec:	01a00003 	moveq	r0, r3
    82f0:	e0813002 	add	r3, r1, r2
    82f4:	e2802001 	add	r2, r0, #1	; 0x1
    82f8:	e5cc2000 	strb	r2, [ip]
    82fc:	e5ce3000 	strb	r3, [lr]
    8300:	e7c61000 	strb	r1, [r6, r0]
    8304:	e5de2000 	ldrb	r2, [lr]
    8308:	e5dc0000 	ldrb	r0, [ip]
    830c:	e5d43000 	ldrb	r3, [r4]
    8310:	e35000ff 	cmp	r0, #255	; 0xff
    8314:	e0833002 	add	r3, r3, r2
    8318:	e5c43000 	strb	r3, [r4]
    831c:	03a03000 	moveq	r3, #0	; 0x0
    8320:	05cc3000 	streqb	r3, [ip]
    8324:	e59f7570 	ldr	r7, [pc, #1392]	; 889c <.text+0x89c>
    8328:	e5d71000 	ldrb	r1, [r7]
    832c:	01a00003 	moveq	r0, r3
    8330:	e0813002 	add	r3, r1, r2
    8334:	e2802001 	add	r2, r0, #1	; 0x1
    8338:	e5cc2000 	strb	r2, [ip]
    833c:	e5ce3000 	strb	r3, [lr]
    8340:	e7c61000 	strb	r1, [r6, r0]
    8344:	e5de2000 	ldrb	r2, [lr]
    8348:	e5dc0000 	ldrb	r0, [ip]
    834c:	e5d43000 	ldrb	r3, [r4]
    8350:	e35000ff 	cmp	r0, #255	; 0xff
    8354:	e0833002 	add	r3, r3, r2
    8358:	e5c43000 	strb	r3, [r4]
    835c:	03a03000 	moveq	r3, #0	; 0x0
    8360:	05cc3000 	streqb	r3, [ip]
    8364:	e5d71001 	ldrb	r1, [r7, #1]
    8368:	01a00003 	moveq	r0, r3
    836c:	e0813002 	add	r3, r1, r2
    8370:	e2802001 	add	r2, r0, #1	; 0x1
    8374:	e5cc2000 	strb	r2, [ip]
    8378:	e5ce3000 	strb	r3, [lr]
    837c:	e7c61000 	strb	r1, [r6, r0]
    8380:	e5de2000 	ldrb	r2, [lr]
    8384:	e5dc0000 	ldrb	r0, [ip]
    8388:	e5d43000 	ldrb	r3, [r4]
    838c:	e35000ff 	cmp	r0, #255	; 0xff
    8390:	e0833002 	add	r3, r3, r2
    8394:	e5c43000 	strb	r3, [r4]
    8398:	03a03000 	moveq	r3, #0	; 0x0
    839c:	05cc3000 	streqb	r3, [ip]
    83a0:	e5d71002 	ldrb	r1, [r7, #2]
    83a4:	01a00003 	moveq	r0, r3
    83a8:	e0813002 	add	r3, r1, r2
    83ac:	e2802001 	add	r2, r0, #1	; 0x1
    83b0:	e5ce3000 	strb	r3, [lr]
    83b4:	e5cc2000 	strb	r2, [ip]
    83b8:	e7c61000 	strb	r1, [r6, r0]
    83bc:	e5de2000 	ldrb	r2, [lr]
    83c0:	e5dc0000 	ldrb	r0, [ip]
    83c4:	e5d43000 	ldrb	r3, [r4]
    83c8:	e35000ff 	cmp	r0, #255	; 0xff
    83cc:	e0833002 	add	r3, r3, r2
    83d0:	e5c43000 	strb	r3, [r4]
    83d4:	03a03000 	moveq	r3, #0	; 0x0
    83d8:	05cc3000 	streqb	r3, [ip]
    83dc:	e5d71003 	ldrb	r1, [r7, #3]
    83e0:	01a00003 	moveq	r0, r3
    83e4:	e0813002 	add	r3, r1, r2
    83e8:	e2802001 	add	r2, r0, #1	; 0x1
    83ec:	e5cc2000 	strb	r2, [ip]
    83f0:	e5ce3000 	strb	r3, [lr]
    83f4:	e7c61000 	strb	r1, [r6, r0]
    83f8:	e5de2000 	ldrb	r2, [lr]
    83fc:	e5dc0000 	ldrb	r0, [ip]
    8400:	e5d43000 	ldrb	r3, [r4]
    8404:	e35000ff 	cmp	r0, #255	; 0xff
    8408:	e0833002 	add	r3, r3, r2
    840c:	e5c43000 	strb	r3, [r4]
    8410:	03a03000 	moveq	r3, #0	; 0x0
    8414:	05cc3000 	streqb	r3, [ip]
    8418:	e5d91000 	ldrb	r1, [r9]
    841c:	01a00003 	moveq	r0, r3
    8420:	e0813002 	add	r3, r1, r2
    8424:	e2802001 	add	r2, r0, #1	; 0x1
    8428:	e5cc2000 	strb	r2, [ip]
    842c:	e5ce3000 	strb	r3, [lr]
    8430:	e7c61000 	strb	r1, [r6, r0]
    8434:	e5de2000 	ldrb	r2, [lr]
    8438:	e5dc0000 	ldrb	r0, [ip]
    843c:	e5d43000 	ldrb	r3, [r4]
    8440:	e35000ff 	cmp	r0, #255	; 0xff
    8444:	e0833002 	add	r3, r3, r2
    8448:	e5c43000 	strb	r3, [r4]
    844c:	03a03000 	moveq	r3, #0	; 0x0
    8450:	05cc3000 	streqb	r3, [ip]
    8454:	e59f7438 	ldr	r7, [pc, #1080]	; 8894 <.text+0x894>
    8458:	e5d71001 	ldrb	r1, [r7, #1]
    845c:	01a00003 	moveq	r0, r3
    8460:	e0813002 	add	r3, r1, r2
    8464:	e2802001 	add	r2, r0, #1	; 0x1
    8468:	e5cc2000 	strb	r2, [ip]
    846c:	e5ce3000 	strb	r3, [lr]
    8470:	e7c61000 	strb	r1, [r6, r0]
    8474:	e5de2000 	ldrb	r2, [lr]
    8478:	e5dc0000 	ldrb	r0, [ip]
    847c:	e5d43000 	ldrb	r3, [r4]
    8480:	e35000ff 	cmp	r0, #255	; 0xff
    8484:	e0833002 	add	r3, r3, r2
    8488:	e5c43000 	strb	r3, [r4]
    848c:	03a03000 	moveq	r3, #0	; 0x0
    8490:	05cc3000 	streqb	r3, [ip]
    8494:	e5d71002 	ldrb	r1, [r7, #2]
    8498:	01a00003 	moveq	r0, r3
    849c:	e0813002 	add	r3, r1, r2
    84a0:	e2802001 	add	r2, r0, #1	; 0x1
    84a4:	e5ce3000 	strb	r3, [lr]
    84a8:	e5cc2000 	strb	r2, [ip]
    84ac:	e7c61000 	strb	r1, [r6, r0]
    84b0:	e5de2000 	ldrb	r2, [lr]
    84b4:	e5dc0000 	ldrb	r0, [ip]
    84b8:	e5d43000 	ldrb	r3, [r4]
    84bc:	e35000ff 	cmp	r0, #255	; 0xff
    84c0:	e0833002 	add	r3, r3, r2
    84c4:	e5c43000 	strb	r3, [r4]
    84c8:	03a03000 	moveq	r3, #0	; 0x0
    84cc:	05cc3000 	streqb	r3, [ip]
    84d0:	e5d71003 	ldrb	r1, [r7, #3]
    84d4:	01a00003 	moveq	r0, r3
    84d8:	e0813002 	add	r3, r1, r2
    84dc:	e2802001 	add	r2, r0, #1	; 0x1
    84e0:	e5cc2000 	strb	r2, [ip]
    84e4:	e5ce3000 	strb	r3, [lr]
    84e8:	e7c61000 	strb	r1, [r6, r0]
    84ec:	e5de2000 	ldrb	r2, [lr]
    84f0:	e5dc0000 	ldrb	r0, [ip]
    84f4:	e5d43000 	ldrb	r3, [r4]
    84f8:	e35000ff 	cmp	r0, #255	; 0xff
    84fc:	e0833002 	add	r3, r3, r2
    8500:	e5c43000 	strb	r3, [r4]
    8504:	03a03000 	moveq	r3, #0	; 0x0
    8508:	05cc3000 	streqb	r3, [ip]
    850c:	e59f738c 	ldr	r7, [pc, #908]	; 88a0 <.text+0x8a0>
    8510:	e5d71000 	ldrb	r1, [r7]
    8514:	01a00003 	moveq	r0, r3
    8518:	e0813002 	add	r3, r1, r2
    851c:	e2802001 	add	r2, r0, #1	; 0x1
    8520:	e5cc2000 	strb	r2, [ip]
    8524:	e5ce3000 	strb	r3, [lr]
    8528:	e7c61000 	strb	r1, [r6, r0]
    852c:	e5de2000 	ldrb	r2, [lr]
    8530:	e5dc0000 	ldrb	r0, [ip]
    8534:	e5d43000 	ldrb	r3, [r4]
    8538:	e35000ff 	cmp	r0, #255	; 0xff
    853c:	e0833002 	add	r3, r3, r2
    8540:	e5c43000 	strb	r3, [r4]
    8544:	03a03000 	moveq	r3, #0	; 0x0
    8548:	05cc3000 	streqb	r3, [ip]
    854c:	e5d71001 	ldrb	r1, [r7, #1]
    8550:	01a00003 	moveq	r0, r3
    8554:	e0813002 	add	r3, r1, r2
    8558:	e2802001 	add	r2, r0, #1	; 0x1
    855c:	e5cc2000 	strb	r2, [ip]
    8560:	e5ce3000 	strb	r3, [lr]
    8564:	e7c61000 	strb	r1, [r6, r0]
    8568:	e5de2000 	ldrb	r2, [lr]
    856c:	e5dc0000 	ldrb	r0, [ip]
    8570:	e5d43000 	ldrb	r3, [r4]
    8574:	e35000ff 	cmp	r0, #255	; 0xff
    8578:	e0833002 	add	r3, r3, r2
    857c:	e5c43000 	strb	r3, [r4]
    8580:	03a03000 	moveq	r3, #0	; 0x0
    8584:	05cc3000 	streqb	r3, [ip]
    8588:	e59f7314 	ldr	r7, [pc, #788]	; 88a4 <.text+0x8a4>
    858c:	e5d71000 	ldrb	r1, [r7]
    8590:	01a00003 	moveq	r0, r3
    8594:	e0813002 	add	r3, r1, r2
    8598:	e2802001 	add	r2, r0, #1	; 0x1
    859c:	e5ce3000 	strb	r3, [lr]
    85a0:	e5cc2000 	strb	r2, [ip]
    85a4:	e7c61000 	strb	r1, [r6, r0]
    85a8:	e5de2000 	ldrb	r2, [lr]
    85ac:	e5dc0000 	ldrb	r0, [ip]
    85b0:	e5d43000 	ldrb	r3, [r4]
    85b4:	e35000ff 	cmp	r0, #255	; 0xff
    85b8:	e0833002 	add	r3, r3, r2
    85bc:	e5c43000 	strb	r3, [r4]
    85c0:	03a03000 	moveq	r3, #0	; 0x0
    85c4:	05cc3000 	streqb	r3, [ip]
    85c8:	e5d71001 	ldrb	r1, [r7, #1]
    85cc:	01a00003 	moveq	r0, r3
    85d0:	e0813002 	add	r3, r1, r2
    85d4:	e2802001 	add	r2, r0, #1	; 0x1
    85d8:	e5cc2000 	strb	r2, [ip]
    85dc:	e5ce3000 	strb	r3, [lr]
    85e0:	e7c61000 	strb	r1, [r6, r0]
    85e4:	e5d43000 	ldrb	r3, [r4]
    85e8:	e5dc0000 	ldrb	r0, [ip]
    85ec:	e5de1000 	ldrb	r1, [lr]
    85f0:	e35000ff 	cmp	r0, #255	; 0xff
    85f4:	e0833001 	add	r3, r3, r1
    85f8:	e5c43000 	strb	r3, [r4]
    85fc:	03a03000 	moveq	r3, #0	; 0x0
    8600:	01a00003 	moveq	r0, r3
    8604:	05cc3000 	streqb	r3, [ip]
    8608:	e2803001 	add	r3, r0, #1	; 0x1
    860c:	e5cc3000 	strb	r3, [ip]
    8610:	e7c61000 	strb	r1, [r6, r0]
    8614:	e5dc0000 	ldrb	r0, [ip]
    8618:	e35000ff 	cmp	r0, #255	; 0xff
    861c:	03a03000 	moveq	r3, #0	; 0x0
    8620:	01a00003 	moveq	r0, r3
    8624:	05cc3000 	streqb	r3, [ip]
    8628:	e2803001 	add	r3, r0, #1	; 0x1
    862c:	e5cc3000 	strb	r3, [ip]
    8630:	e5dc2000 	ldrb	r2, [ip]
    8634:	e5d43000 	ldrb	r3, [r4]
    8638:	e35200ff 	cmp	r2, #255	; 0xff
    863c:	e7c63000 	strb	r3, [r6, r0]
    8640:	03a03000 	moveq	r3, #0	; 0x0
    8644:	05cc3000 	streqb	r3, [ip]
    8648:	e3a0c059 	mov	ip, #89	; 0x59
    864c:	e5dc3000 	ldrb	r3, [ip]
    8650:	e1a03223 	mov	r3, r3, lsr #4
    8654:	e213e001 	ands	lr, r3, #1	; 0x1
    8658:	1a000012 	bne	86a8 <ground_calibrate+0x67c>
    865c:	e5da0000 	ldrb	r0, [sl]
    8660:	e5da3000 	ldrb	r3, [sl]
    8664:	e2833001 	add	r3, r3, #1	; 0x1
    8668:	e5ca3000 	strb	r3, [sl]
    866c:	e5da2000 	ldrb	r2, [sl]
    8670:	e7d61000 	ldrb	r1, [r6, r0]
    8674:	e35200ff 	cmp	r2, #255	; 0xff
    8678:	e59f3228 	ldr	r3, [pc, #552]	; 88a8 <.text+0x8a8>
    867c:	e59f2228 	ldr	r2, [pc, #552]	; 88ac <.text+0x8ac>
    8680:	e5c31000 	strb	r1, [r3]
    8684:	e5c2e000 	strb	lr, [r2]
    8688:	05cae000 	streqb	lr, [sl]
    868c:	e3a03058 	mov	r3, #88	; 0x58
    8690:	e5d32000 	ldrb	r2, [r3]
    8694:	e3822001 	orr	r2, r2, #1	; 0x1
    8698:	e5c32000 	strb	r2, [r3]
    869c:	e5dc1000 	ldrb	r1, [ip]
    86a0:	e3811010 	orr	r1, r1, #16	; 0x10
    86a4:	e5cc1000 	strb	r1, [ip]
    86a8:	e5da2000 	ldrb	r2, [sl]
    86ac:	e5d81000 	ldrb	r1, [r8]
    86b0:	e1510002 	cmp	r1, r2
    86b4:	e3a03002 	mov	r3, #2	; 0x2
    86b8:	359f21b4 	ldrcc	r2, [pc, #436]	; 8874 <.text+0x874>
    86bc:	e5c53000 	strb	r3, [r5]
    86c0:	25da3000 	ldrcsb	r3, [sl]
    86c4:	35d23000 	ldrccb	r3, [r2]
    86c8:	20633001 	rsbcs	r3, r3, r1
    86cc:	226330ff 	rsbcs	r3, r3, #255	; 0xff
    86d0:	30613003 	rsbcc	r3, r1, r3
    86d4:	e3530006 	cmp	r3, #6	; 0x6
    86d8:	da00005d 	ble	8854 <ground_calibrate+0x828>
    86dc:	e5d83000 	ldrb	r3, [r8]
    86e0:	e2832001 	add	r2, r3, #1	; 0x1
    86e4:	e5c82000 	strb	r2, [r8]
    86e8:	e5d80000 	ldrb	r0, [r8]
    86ec:	e59f5188 	ldr	r5, [pc, #392]	; 887c <.text+0x87c>
    86f0:	e35000ff 	cmp	r0, #255	; 0xff
    86f4:	e3a02005 	mov	r2, #5	; 0x5
    86f8:	e7c52003 	strb	r2, [r5, r3]
    86fc:	03a03000 	moveq	r3, #0	; 0x0
    8700:	e59fc170 	ldr	ip, [pc, #368]	; 8878 <.text+0x878>
    8704:	01a00003 	moveq	r0, r3
    8708:	05c83000 	streqb	r3, [r8]
    870c:	e2803001 	add	r3, r0, #1	; 0x1
    8710:	e5cc3000 	strb	r3, [ip]
    8714:	e3a02003 	mov	r2, #3	; 0x3
    8718:	e7c52000 	strb	r2, [r5, r0]
    871c:	e5dc0000 	ldrb	r0, [ip]
    8720:	e35000ff 	cmp	r0, #255	; 0xff
    8724:	03a03000 	moveq	r3, #0	; 0x0
    8728:	05cc3000 	streqb	r3, [ip]
    872c:	e59f717c 	ldr	r7, [pc, #380]	; 88b0 <.text+0x8b0>
    8730:	e5d71000 	ldrb	r1, [r7]
    8734:	01a00003 	moveq	r0, r3
    8738:	e59f4140 	ldr	r4, [pc, #320]	; 8880 <.text+0x880>
    873c:	e2802001 	add	r2, r0, #1	; 0x1
    8740:	e2813003 	add	r3, r1, #3	; 0x3
    8744:	e5cc2000 	strb	r2, [ip]
    8748:	e5c43000 	strb	r3, [r4]
    874c:	e7c51000 	strb	r1, [r5, r0]
    8750:	e5d4e000 	ldrb	lr, [r4]
    8754:	e5dc0000 	ldrb	r0, [ip]
    8758:	e59f6124 	ldr	r6, [pc, #292]	; 8884 <.text+0x884>
    875c:	e28e3003 	add	r3, lr, #3	; 0x3
    8760:	e35000ff 	cmp	r0, #255	; 0xff
    8764:	e5c63000 	strb	r3, [r6]
    8768:	03a03000 	moveq	r3, #0	; 0x0
    876c:	05cc3000 	streqb	r3, [ip]
    8770:	e5d71001 	ldrb	r1, [r7, #1]
    8774:	01a00003 	moveq	r0, r3
    8778:	e2802001 	add	r2, r0, #1	; 0x1
    877c:	e081300e 	add	r3, r1, lr
    8780:	e5cc2000 	strb	r2, [ip]
    8784:	e5c43000 	strb	r3, [r4]
    8788:	e7c51000 	strb	r1, [r5, r0]
    878c:	e5d63000 	ldrb	r3, [r6]
    8790:	e5dc0000 	ldrb	r0, [ip]
    8794:	e5d41000 	ldrb	r1, [r4]
    8798:	e35000ff 	cmp	r0, #255	; 0xff
    879c:	e0833001 	add	r3, r3, r1
    87a0:	e5c63000 	strb	r3, [r6]
    87a4:	03a03000 	moveq	r3, #0	; 0x0
    87a8:	01a00003 	moveq	r0, r3
    87ac:	05cc3000 	streqb	r3, [ip]
    87b0:	e2803001 	add	r3, r0, #1	; 0x1
    87b4:	e5cc3000 	strb	r3, [ip]
    87b8:	e7c51000 	strb	r1, [r5, r0]
    87bc:	e5dc0000 	ldrb	r0, [ip]
    87c0:	e35000ff 	cmp	r0, #255	; 0xff
    87c4:	03a03000 	moveq	r3, #0	; 0x0
    87c8:	01a00003 	moveq	r0, r3
    87cc:	05cc3000 	streqb	r3, [ip]
    87d0:	e2803001 	add	r3, r0, #1	; 0x1
    87d4:	e5cc3000 	strb	r3, [ip]
    87d8:	e5dc2000 	ldrb	r2, [ip]
    87dc:	e5d63000 	ldrb	r3, [r6]
    87e0:	e35200ff 	cmp	r2, #255	; 0xff
    87e4:	e7c53000 	strb	r3, [r5, r0]
    87e8:	03a03000 	moveq	r3, #0	; 0x0
    87ec:	05cc3000 	streqb	r3, [ip]
    87f0:	e3a0c059 	mov	ip, #89	; 0x59
    87f4:	e5dc3000 	ldrb	r3, [ip]
    87f8:	e1a03223 	mov	r3, r3, lsr #4
    87fc:	e213e001 	ands	lr, r3, #1	; 0x1
    8800:	189daff0 	ldmneia	sp, {r4, r5, r6, r7, r8, r9, sl, fp, sp, pc}
    8804:	e5da0000 	ldrb	r0, [sl]
    8808:	e5da3000 	ldrb	r3, [sl]
    880c:	e2833001 	add	r3, r3, #1	; 0x1
    8810:	e5ca3000 	strb	r3, [sl]
    8814:	e7d51000 	ldrb	r1, [r5, r0]
    8818:	e5da2000 	ldrb	r2, [sl]
    881c:	e35200ff 	cmp	r2, #255	; 0xff
    8820:	e59f3080 	ldr	r3, [pc, #128]	; 88a8 <.text+0x8a8>
    8824:	e59f2080 	ldr	r2, [pc, #128]	; 88ac <.text+0x8ac>
    8828:	e5c31000 	strb	r1, [r3]
    882c:	e5c2e000 	strb	lr, [r2]
    8830:	05cae000 	streqb	lr, [sl]
    8834:	e3a03058 	mov	r3, #88	; 0x58
    8838:	e5d32000 	ldrb	r2, [r3]
    883c:	e3822001 	orr	r2, r2, #1	; 0x1
    8840:	e5c32000 	strb	r2, [r3]
    8844:	e5dc1000 	ldrb	r1, [ip]
    8848:	e3811010 	orr	r1, r1, #16	; 0x10
    884c:	e5cc1000 	strb	r1, [ip]
    8850:	e89daff0 	ldmia	sp, {r4, r5, r6, r7, r8, r9, sl, fp, sp, pc}
    8854:	e59f2034 	ldr	r2, [pc, #52]	; 8890 <.text+0x890>
    8858:	e5d23000 	ldrb	r3, [r2]
    885c:	e2833001 	add	r3, r3, #1	; 0x1
    8860:	e5c23000 	strb	r3, [r2]
    8864:	e89daff0 	ldmia	sp, {r4, r5, r6, r7, r8, r9, sl, fp, sp, pc}
    8868:	000135ab 	andeq	r3, r1, fp, lsr #11
    886c:	000135a6 	andeq	r3, r1, r6, lsr #11
    8870:	000135a4 	andeq	r3, r1, r4, lsr #11
    8874:	000139f6 	streqd	r3, [r1], -r6
    8878:	000139f5 	streqd	r3, [r1], -r5
    887c:	000139f8 	streqd	r3, [r1], -r8
    8880:	00013af7 	streqd	r3, [r1], -r7
    8884:	000139f2 	streqd	r3, [r1], -r2
    8888:	00013b10 	andeq	r3, r1, r0, lsl fp
    888c:	00013504 	andeq	r3, r1, r4, lsl #10
    8890:	000139f3 	streqd	r3, [r1], -r3
    8894:	00013bbc 	streqh	r3, [r1], -ip
    8898:	00013bc4 	andeq	r3, r1, r4, asr #23
    889c:	00013bdc 	ldreqd	r3, [r1], -ip
    88a0:	0001350a 	andeq	r3, r1, sl, lsl #10
    88a4:	00013508 	andeq	r3, r1, r8, lsl #10
    88a8:	000139f4 	streqd	r3, [r1], -r4
    88ac:	000139f7 	streqd	r3, [r1], -r7
    88b0:	0001350c 	andeq	r3, r1, ip, lsl #10

000088b4 <pprz_mode_update>:
    88b4:	e59f105c 	ldr	r1, [pc, #92]	; 8918 <.text+0x918>
    88b8:	e5d13000 	ldrb	r3, [r1]
    88bc:	e3530003 	cmp	r3, #3	; 0x3
    88c0:	0a00000d 	beq	88fc <pprz_mode_update+0x48>
    88c4:	e59f3050 	ldr	r3, [pc, #80]	; 891c <.text+0x91c>
    88c8:	e1d330f8 	ldrsh	r3, [r3, #8]
    88cc:	e3530d32 	cmp	r3, #3200	; 0xc80
    88d0:	c3a02002 	movgt	r2, #2	; 0x2
    88d4:	ca000002 	bgt	88e4 <pprz_mode_update+0x30>
    88d8:	e3730d4b 	cmn	r3, #4800	; 0x12c0
    88dc:	d3a02000 	movle	r2, #0	; 0x0
    88e0:	c3a02001 	movgt	r2, #1	; 0x1
    88e4:	e5d13000 	ldrb	r3, [r1]
    88e8:	e1530002 	cmp	r3, r2
    88ec:	13a00001 	movne	r0, #1	; 0x1
    88f0:	03a00000 	moveq	r0, #0	; 0x0
    88f4:	15c12000 	strneb	r2, [r1]
    88f8:	e1a0f00e 	mov	pc, lr
    88fc:	e59f201c 	ldr	r2, [pc, #28]	; 8920 <.text+0x920>
    8900:	e5d20000 	ldrb	r0, [r2]
    8904:	e3500000 	cmp	r0, #0	; 0x0
    8908:	01a0f00e 	moveq	pc, lr
    890c:	e2433003 	sub	r3, r3, #3	; 0x3
    8910:	e5c23000 	strb	r3, [r2]
    8914:	eaffffea 	b	88c4 <pprz_mode_update+0x10>
    8918:	000135a4 	andeq	r3, r1, r4, lsr #11
    891c:	00013b10 	andeq	r3, r1, r0, lsl fp
    8920:	000139e4 	andeq	r3, r1, r4, ror #19

00008924 <ir_estim_mode_update>:
    8924:	e59f3028 	ldr	r3, [pc, #40]	; 8954 <.text+0x954>
    8928:	e59fc028 	ldr	ip, [pc, #40]	; 8958 <.text+0x958>
    892c:	e1d320fe 	ldrsh	r2, [r3, #14]
    8930:	e5dc1000 	ldrb	r1, [ip]
    8934:	e3520d32 	cmp	r2, #3200	; 0xc80
    8938:	b3a02000 	movlt	r2, #0	; 0x0
    893c:	a3a02001 	movge	r2, #1	; 0x1
    8940:	e1510002 	cmp	r1, r2
    8944:	e3a00001 	mov	r0, #1	; 0x1
    8948:	03a00000 	moveq	r0, #0	; 0x0
    894c:	15cc2000 	strneb	r2, [ip]
    8950:	e1a0f00e 	mov	pc, lr
    8954:	00013b10 	andeq	r3, r1, r0, lsl fp
    8958:	00013500 	andeq	r3, r1, r0, lsl #10

0000895c <mcu1_status_update>:
    895c:	e59f3030 	ldr	r3, [pc, #48]	; 8994 <.text+0x994>
    8960:	e59fc030 	ldr	ip, [pc, #48]	; 8998 <.text+0x998>
    8964:	e5d32013 	ldrb	r2, [r3, #19]
    8968:	e5dc1000 	ldrb	r1, [ip]
    896c:	e2023003 	and	r3, r2, #3	; 0x3
    8970:	e20220ff 	and	r2, r2, #255	; 0xff
    8974:	e1510002 	cmp	r1, r2
    8978:	e2010003 	and	r0, r1, #3	; 0x3
    897c:	03a00000 	moveq	r0, #0	; 0x0
    8980:	01a0f00e 	moveq	pc, lr
    8984:	e0500003 	subs	r0, r0, r3
    8988:	13a00001 	movne	r0, #1	; 0x1
    898c:	e5cc2000 	strb	r2, [ip]
    8990:	e1a0f00e 	mov	pc, lr
    8994:	00013b10 	andeq	r3, r1, r0, lsl fp
    8998:	000135b4 	streqh	r3, [r1], -r4

0000899c <copy_from_to_fbw>:
    899c:	e59f1014 	ldr	r1, [pc, #20]	; 89b8 <.text+0x9b8>
    89a0:	e59f3014 	ldr	r3, [pc, #20]	; 89bc <.text+0x9bc>
    89a4:	e1d110b6 	ldrh	r1, [r1, #6]
    89a8:	e3a02000 	mov	r2, #0	; 0x0
    89ac:	e5c32013 	strb	r2, [r3, #19]
    89b0:	e1c310b6 	strh	r1, [r3, #6]
    89b4:	e1a0f00e 	mov	pc, lr
    89b8:	00013b10 	andeq	r3, r1, r0, lsl fp
    89bc:	00013af8 	streqd	r3, [r1], -r8

000089c0 <send_boot>:
    89c0:	e92d47f0 	stmdb	sp!, {r4, r5, r6, r7, r8, r9, sl, lr}
    89c4:	e59f96d0 	ldr	r9, [pc, #1744]	; 909c <.text+0x109c>
    89c8:	e5d93000 	ldrb	r3, [r9]
    89cc:	e3530000 	cmp	r3, #0	; 0x0
    89d0:	08bd87f0 	ldmeqia	sp!, {r4, r5, r6, r7, r8, r9, sl, pc}
    89d4:	e59fa6c4 	ldr	sl, [pc, #1732]	; 90a0 <.text+0x10a0>
    89d8:	e59f76c4 	ldr	r7, [pc, #1732]	; 90a4 <.text+0x10a4>
    89dc:	e5da3000 	ldrb	r3, [sl]
    89e0:	e5d72000 	ldrb	r2, [r7]
    89e4:	e1520003 	cmp	r2, r3
    89e8:	25da3000 	ldrcsb	r3, [sl]
    89ec:	35da3000 	ldrccb	r3, [sl]
    89f0:	20633002 	rsbcs	r3, r3, r2
    89f4:	30623003 	rsbcc	r3, r2, r3
    89f8:	226330ff 	rsbcs	r3, r3, #255	; 0xff
    89fc:	e3530006 	cmp	r3, #6	; 0x6
    8a00:	d59f26a0 	ldrle	r2, [pc, #1696]	; 90a8 <.text+0x10a8>
    8a04:	d5d23000 	ldrleb	r3, [r2]
    8a08:	d2833001 	addle	r3, r3, #1	; 0x1
    8a0c:	d5c23000 	strleb	r3, [r2]
    8a10:	ca000143 	bgt	8f24 <send_boot+0x564>
    8a14:	e5da3000 	ldrb	r3, [sl]
    8a18:	e5d71000 	ldrb	r1, [r7]
    8a1c:	e1510003 	cmp	r1, r3
    8a20:	359f2678 	ldrcc	r2, [pc, #1656]	; 90a0 <.text+0x10a0>
    8a24:	25da3000 	ldrcsb	r3, [sl]
    8a28:	35d23000 	ldrccb	r3, [r2]
    8a2c:	20633001 	rsbcs	r3, r3, r1
    8a30:	226330ff 	rsbcs	r3, r3, #255	; 0xff
    8a34:	30613003 	rsbcc	r3, r1, r3
    8a38:	e3530014 	cmp	r3, #20	; 0x14
    8a3c:	d59f2664 	ldrle	r2, [pc, #1636]	; 90a8 <.text+0x10a8>
    8a40:	d5d23000 	ldrleb	r3, [r2]
    8a44:	d2833001 	addle	r3, r3, #1	; 0x1
    8a48:	d5c23000 	strleb	r3, [r2]
    8a4c:	da000131 	ble	8f18 <send_boot+0x558>
    8a50:	e5d72000 	ldrb	r2, [r7]
    8a54:	e2823001 	add	r3, r2, #1	; 0x1
    8a58:	e5c73000 	strb	r3, [r7]
    8a5c:	e5d70000 	ldrb	r0, [r7]
    8a60:	e35000ff 	cmp	r0, #255	; 0xff
    8a64:	03a03000 	moveq	r3, #0	; 0x0
    8a68:	e59fc634 	ldr	ip, [pc, #1588]	; 90a4 <.text+0x10a4>
    8a6c:	01a00003 	moveq	r0, r3
    8a70:	05c73000 	streqb	r3, [r7]
    8a74:	e2803001 	add	r3, r0, #1	; 0x1
    8a78:	e59f562c 	ldr	r5, [pc, #1580]	; 90ac <.text+0x10ac>
    8a7c:	e5cc3000 	strb	r3, [ip]
    8a80:	e3a01005 	mov	r1, #5	; 0x5
    8a84:	e7c51002 	strb	r1, [r5, r2]
    8a88:	e7c51000 	strb	r1, [r5, r0]
    8a8c:	e5dc0000 	ldrb	r0, [ip]
    8a90:	e35000ff 	cmp	r0, #255	; 0xff
    8a94:	03a03000 	moveq	r3, #0	; 0x0
    8a98:	05cc3000 	streqb	r3, [ip]
    8a9c:	e59f660c 	ldr	r6, [pc, #1548]	; 90b0 <.text+0x10b0>
    8aa0:	e5d61000 	ldrb	r1, [r6]
    8aa4:	e59fe608 	ldr	lr, [pc, #1544]	; 90b4 <.text+0x10b4>
    8aa8:	01a00003 	moveq	r0, r3
    8aac:	e2802001 	add	r2, r0, #1	; 0x1
    8ab0:	e2813005 	add	r3, r1, #5	; 0x5
    8ab4:	e5cc2000 	strb	r2, [ip]
    8ab8:	e5ce3000 	strb	r3, [lr]
    8abc:	e7c51000 	strb	r1, [r5, r0]
    8ac0:	e5de2000 	ldrb	r2, [lr]
    8ac4:	e5dc0000 	ldrb	r0, [ip]
    8ac8:	e59f45e8 	ldr	r4, [pc, #1512]	; 90b8 <.text+0x10b8>
    8acc:	e2823005 	add	r3, r2, #5	; 0x5
    8ad0:	e35000ff 	cmp	r0, #255	; 0xff
    8ad4:	e5c43000 	strb	r3, [r4]
    8ad8:	03a03000 	moveq	r3, #0	; 0x0
    8adc:	05cc3000 	streqb	r3, [ip]
    8ae0:	e5d61001 	ldrb	r1, [r6, #1]
    8ae4:	01a00003 	moveq	r0, r3
    8ae8:	e0813002 	add	r3, r1, r2
    8aec:	e2802001 	add	r2, r0, #1	; 0x1
    8af0:	e5cc2000 	strb	r2, [ip]
    8af4:	e5ce3000 	strb	r3, [lr]
    8af8:	e7c51000 	strb	r1, [r5, r0]
    8afc:	e5de2000 	ldrb	r2, [lr]
    8b00:	e5dc0000 	ldrb	r0, [ip]
    8b04:	e5d43000 	ldrb	r3, [r4]
    8b08:	e35000ff 	cmp	r0, #255	; 0xff
    8b0c:	e0833002 	add	r3, r3, r2
    8b10:	e5c43000 	strb	r3, [r4]
    8b14:	03a03000 	moveq	r3, #0	; 0x0
    8b18:	05cc3000 	streqb	r3, [ip]
    8b1c:	e5d61002 	ldrb	r1, [r6, #2]
    8b20:	01a00003 	moveq	r0, r3
    8b24:	e0813002 	add	r3, r1, r2
    8b28:	e2802001 	add	r2, r0, #1	; 0x1
    8b2c:	e5ce3000 	strb	r3, [lr]
    8b30:	e5cc2000 	strb	r2, [ip]
    8b34:	e7c51000 	strb	r1, [r5, r0]
    8b38:	e5de2000 	ldrb	r2, [lr]
    8b3c:	e5dc0000 	ldrb	r0, [ip]
    8b40:	e5d43000 	ldrb	r3, [r4]
    8b44:	e35000ff 	cmp	r0, #255	; 0xff
    8b48:	e0833002 	add	r3, r3, r2
    8b4c:	e5c43000 	strb	r3, [r4]
    8b50:	03a03000 	moveq	r3, #0	; 0x0
    8b54:	05cc3000 	streqb	r3, [ip]
    8b58:	e5d61003 	ldrb	r1, [r6, #3]
    8b5c:	01a00003 	moveq	r0, r3
    8b60:	e0813002 	add	r3, r1, r2
    8b64:	e2802001 	add	r2, r0, #1	; 0x1
    8b68:	e5cc2000 	strb	r2, [ip]
    8b6c:	e5ce3000 	strb	r3, [lr]
    8b70:	e7c51000 	strb	r1, [r5, r0]
    8b74:	e5de2000 	ldrb	r2, [lr]
    8b78:	e5dc0000 	ldrb	r0, [ip]
    8b7c:	e5d43000 	ldrb	r3, [r4]
    8b80:	e35000ff 	cmp	r0, #255	; 0xff
    8b84:	e0833002 	add	r3, r3, r2
    8b88:	e5c43000 	strb	r3, [r4]
    8b8c:	03a03000 	moveq	r3, #0	; 0x0
    8b90:	05cc3000 	streqb	r3, [ip]
    8b94:	e59f6520 	ldr	r6, [pc, #1312]	; 90bc <.text+0x10bc>
    8b98:	e5d61000 	ldrb	r1, [r6]
    8b9c:	01a00003 	moveq	r0, r3
    8ba0:	e0813002 	add	r3, r1, r2
    8ba4:	e2802001 	add	r2, r0, #1	; 0x1
    8ba8:	e5cc2000 	strb	r2, [ip]
    8bac:	e5ce3000 	strb	r3, [lr]
    8bb0:	e7c51000 	strb	r1, [r5, r0]
    8bb4:	e5de2000 	ldrb	r2, [lr]
    8bb8:	e5dc0000 	ldrb	r0, [ip]
    8bbc:	e5d43000 	ldrb	r3, [r4]
    8bc0:	e35000ff 	cmp	r0, #255	; 0xff
    8bc4:	e0833002 	add	r3, r3, r2
    8bc8:	e5c43000 	strb	r3, [r4]
    8bcc:	03a03000 	moveq	r3, #0	; 0x0
    8bd0:	05cc3000 	streqb	r3, [ip]
    8bd4:	e5d61001 	ldrb	r1, [r6, #1]
    8bd8:	01a00003 	moveq	r0, r3
    8bdc:	e0813002 	add	r3, r1, r2
    8be0:	e2802001 	add	r2, r0, #1	; 0x1
    8be4:	e5cc2000 	strb	r2, [ip]
    8be8:	e5ce3000 	strb	r3, [lr]
    8bec:	e7c51000 	strb	r1, [r5, r0]
    8bf0:	e5de2000 	ldrb	r2, [lr]
    8bf4:	e5dc0000 	ldrb	r0, [ip]
    8bf8:	e5d43000 	ldrb	r3, [r4]
    8bfc:	e35000ff 	cmp	r0, #255	; 0xff
    8c00:	e0833002 	add	r3, r3, r2
    8c04:	e5c43000 	strb	r3, [r4]
    8c08:	03a03000 	moveq	r3, #0	; 0x0
    8c0c:	05cc3000 	streqb	r3, [ip]
    8c10:	e5d61002 	ldrb	r1, [r6, #2]
    8c14:	01a00003 	moveq	r0, r3
    8c18:	e0813002 	add	r3, r1, r2
    8c1c:	e2802001 	add	r2, r0, #1	; 0x1
    8c20:	e5ce3000 	strb	r3, [lr]
    8c24:	e5cc2000 	strb	r2, [ip]
    8c28:	e7c51000 	strb	r1, [r5, r0]
    8c2c:	e5de2000 	ldrb	r2, [lr]
    8c30:	e5dc0000 	ldrb	r0, [ip]
    8c34:	e5d43000 	ldrb	r3, [r4]
    8c38:	e35000ff 	cmp	r0, #255	; 0xff
    8c3c:	e0833002 	add	r3, r3, r2
    8c40:	e5c43000 	strb	r3, [r4]
    8c44:	03a03000 	moveq	r3, #0	; 0x0
    8c48:	05cc3000 	streqb	r3, [ip]
    8c4c:	e5d61003 	ldrb	r1, [r6, #3]
    8c50:	01a00003 	moveq	r0, r3
    8c54:	e0813002 	add	r3, r1, r2
    8c58:	e2802001 	add	r2, r0, #1	; 0x1
    8c5c:	e5cc2000 	strb	r2, [ip]
    8c60:	e5ce3000 	strb	r3, [lr]
    8c64:	e7c51000 	strb	r1, [r5, r0]
    8c68:	e5de2000 	ldrb	r2, [lr]
    8c6c:	e5dc0000 	ldrb	r0, [ip]
    8c70:	e5d43000 	ldrb	r3, [r4]
    8c74:	e35000ff 	cmp	r0, #255	; 0xff
    8c78:	e0833002 	add	r3, r3, r2
    8c7c:	e5c43000 	strb	r3, [r4]
    8c80:	03a03000 	moveq	r3, #0	; 0x0
    8c84:	05cc3000 	streqb	r3, [ip]
    8c88:	e59f6430 	ldr	r6, [pc, #1072]	; 90c0 <.text+0x10c0>
    8c8c:	e5d61000 	ldrb	r1, [r6]
    8c90:	01a00003 	moveq	r0, r3
    8c94:	e0813002 	add	r3, r1, r2
    8c98:	e2802001 	add	r2, r0, #1	; 0x1
    8c9c:	e5cc2000 	strb	r2, [ip]
    8ca0:	e5ce3000 	strb	r3, [lr]
    8ca4:	e7c51000 	strb	r1, [r5, r0]
    8ca8:	e5de2000 	ldrb	r2, [lr]
    8cac:	e5dc0000 	ldrb	r0, [ip]
    8cb0:	e5d43000 	ldrb	r3, [r4]
    8cb4:	e35000ff 	cmp	r0, #255	; 0xff
    8cb8:	e0833002 	add	r3, r3, r2
    8cbc:	e5c43000 	strb	r3, [r4]
    8cc0:	03a03000 	moveq	r3, #0	; 0x0
    8cc4:	05cc3000 	streqb	r3, [ip]
    8cc8:	e5d61001 	ldrb	r1, [r6, #1]
    8ccc:	01a00003 	moveq	r0, r3
    8cd0:	e0813002 	add	r3, r1, r2
    8cd4:	e2802001 	add	r2, r0, #1	; 0x1
    8cd8:	e5cc2000 	strb	r2, [ip]
    8cdc:	e5ce3000 	strb	r3, [lr]
    8ce0:	e7c51000 	strb	r1, [r5, r0]
    8ce4:	e5de2000 	ldrb	r2, [lr]
    8ce8:	e5dc0000 	ldrb	r0, [ip]
    8cec:	e5d43000 	ldrb	r3, [r4]
    8cf0:	e35000ff 	cmp	r0, #255	; 0xff
    8cf4:	e0833002 	add	r3, r3, r2
    8cf8:	e5c43000 	strb	r3, [r4]
    8cfc:	03a03000 	moveq	r3, #0	; 0x0
    8d00:	05cc3000 	streqb	r3, [ip]
    8d04:	e5d61002 	ldrb	r1, [r6, #2]
    8d08:	01a00003 	moveq	r0, r3
    8d0c:	e0813002 	add	r3, r1, r2
    8d10:	e2802001 	add	r2, r0, #1	; 0x1
    8d14:	e5ce3000 	strb	r3, [lr]
    8d18:	e5cc2000 	strb	r2, [ip]
    8d1c:	e7c51000 	strb	r1, [r5, r0]
    8d20:	e5de2000 	ldrb	r2, [lr]
    8d24:	e5dc0000 	ldrb	r0, [ip]
    8d28:	e5d43000 	ldrb	r3, [r4]
    8d2c:	e35000ff 	cmp	r0, #255	; 0xff
    8d30:	e0833002 	add	r3, r3, r2
    8d34:	e5c43000 	strb	r3, [r4]
    8d38:	03a03000 	moveq	r3, #0	; 0x0
    8d3c:	05cc3000 	streqb	r3, [ip]
    8d40:	e5d61003 	ldrb	r1, [r6, #3]
    8d44:	01a00003 	moveq	r0, r3
    8d48:	e0813002 	add	r3, r1, r2
    8d4c:	e2802001 	add	r2, r0, #1	; 0x1
    8d50:	e5cc2000 	strb	r2, [ip]
    8d54:	e5ce3000 	strb	r3, [lr]
    8d58:	e7c51000 	strb	r1, [r5, r0]
    8d5c:	e5de2000 	ldrb	r2, [lr]
    8d60:	e5dc0000 	ldrb	r0, [ip]
    8d64:	e5d43000 	ldrb	r3, [r4]
    8d68:	e35000ff 	cmp	r0, #255	; 0xff
    8d6c:	e0833002 	add	r3, r3, r2
    8d70:	e5c43000 	strb	r3, [r4]
    8d74:	03a03000 	moveq	r3, #0	; 0x0
    8d78:	05cc3000 	streqb	r3, [ip]
    8d7c:	e59f6340 	ldr	r6, [pc, #832]	; 90c4 <.text+0x10c4>
    8d80:	e5d61000 	ldrb	r1, [r6]
    8d84:	01a00003 	moveq	r0, r3
    8d88:	e0813002 	add	r3, r1, r2
    8d8c:	e2802001 	add	r2, r0, #1	; 0x1
    8d90:	e5cc2000 	strb	r2, [ip]
    8d94:	e5ce3000 	strb	r3, [lr]
    8d98:	e7c51000 	strb	r1, [r5, r0]
    8d9c:	e5de2000 	ldrb	r2, [lr]
    8da0:	e5dc0000 	ldrb	r0, [ip]
    8da4:	e5d43000 	ldrb	r3, [r4]
    8da8:	e35000ff 	cmp	r0, #255	; 0xff
    8dac:	e0833002 	add	r3, r3, r2
    8db0:	e5c43000 	strb	r3, [r4]
    8db4:	03a03000 	moveq	r3, #0	; 0x0
    8db8:	05cc3000 	streqb	r3, [ip]
    8dbc:	e5d61001 	ldrb	r1, [r6, #1]
    8dc0:	01a00003 	moveq	r0, r3
    8dc4:	e0813002 	add	r3, r1, r2
    8dc8:	e2802001 	add	r2, r0, #1	; 0x1
    8dcc:	e5cc2000 	strb	r2, [ip]
    8dd0:	e5ce3000 	strb	r3, [lr]
    8dd4:	e7c51000 	strb	r1, [r5, r0]
    8dd8:	e5de2000 	ldrb	r2, [lr]
    8ddc:	e5dc0000 	ldrb	r0, [ip]
    8de0:	e5d43000 	ldrb	r3, [r4]
    8de4:	e35000ff 	cmp	r0, #255	; 0xff
    8de8:	e0833002 	add	r3, r3, r2
    8dec:	e5c43000 	strb	r3, [r4]
    8df0:	03a03000 	moveq	r3, #0	; 0x0
    8df4:	05cc3000 	streqb	r3, [ip]
    8df8:	e59f62c8 	ldr	r6, [pc, #712]	; 90c8 <.text+0x10c8>
    8dfc:	e5d61000 	ldrb	r1, [r6]
    8e00:	01a00003 	moveq	r0, r3
    8e04:	e0813002 	add	r3, r1, r2
    8e08:	e2802001 	add	r2, r0, #1	; 0x1
    8e0c:	e5ce3000 	strb	r3, [lr]
    8e10:	e5cc2000 	strb	r2, [ip]
    8e14:	e7c51000 	strb	r1, [r5, r0]
    8e18:	e5de2000 	ldrb	r2, [lr]
    8e1c:	e5dc0000 	ldrb	r0, [ip]
    8e20:	e5d43000 	ldrb	r3, [r4]
    8e24:	e35000ff 	cmp	r0, #255	; 0xff
    8e28:	e0833002 	add	r3, r3, r2
    8e2c:	e5c43000 	strb	r3, [r4]
    8e30:	03a03000 	moveq	r3, #0	; 0x0
    8e34:	05cc3000 	streqb	r3, [ip]
    8e38:	e5d61001 	ldrb	r1, [r6, #1]
    8e3c:	01a00003 	moveq	r0, r3
    8e40:	e0813002 	add	r3, r1, r2
    8e44:	e2802001 	add	r2, r0, #1	; 0x1
    8e48:	e5cc2000 	strb	r2, [ip]
    8e4c:	e5ce3000 	strb	r3, [lr]
    8e50:	e7c51000 	strb	r1, [r5, r0]
    8e54:	e5d43000 	ldrb	r3, [r4]
    8e58:	e5dc0000 	ldrb	r0, [ip]
    8e5c:	e5de1000 	ldrb	r1, [lr]
    8e60:	e35000ff 	cmp	r0, #255	; 0xff
    8e64:	e0833001 	add	r3, r3, r1
    8e68:	e5c43000 	strb	r3, [r4]
    8e6c:	03a03000 	moveq	r3, #0	; 0x0
    8e70:	01a00003 	moveq	r0, r3
    8e74:	05cc3000 	streqb	r3, [ip]
    8e78:	e2803001 	add	r3, r0, #1	; 0x1
    8e7c:	e5cc3000 	strb	r3, [ip]
    8e80:	e7c51000 	strb	r1, [r5, r0]
    8e84:	e5dc0000 	ldrb	r0, [ip]
    8e88:	e35000ff 	cmp	r0, #255	; 0xff
    8e8c:	03a03000 	moveq	r3, #0	; 0x0
    8e90:	01a00003 	moveq	r0, r3
    8e94:	05cc3000 	streqb	r3, [ip]
    8e98:	e2803001 	add	r3, r0, #1	; 0x1
    8e9c:	e5cc3000 	strb	r3, [ip]
    8ea0:	e5dc2000 	ldrb	r2, [ip]
    8ea4:	e5d43000 	ldrb	r3, [r4]
    8ea8:	e35200ff 	cmp	r2, #255	; 0xff
    8eac:	e7c53000 	strb	r3, [r5, r0]
    8eb0:	03a03000 	moveq	r3, #0	; 0x0
    8eb4:	05cc3000 	streqb	r3, [ip]
    8eb8:	e3a0c059 	mov	ip, #89	; 0x59
    8ebc:	e5dc3000 	ldrb	r3, [ip]
    8ec0:	e1a03223 	mov	r3, r3, lsr #4
    8ec4:	e213e001 	ands	lr, r3, #1	; 0x1
    8ec8:	1a000012 	bne	8f18 <send_boot+0x558>
    8ecc:	e5da0000 	ldrb	r0, [sl]
    8ed0:	e5da3000 	ldrb	r3, [sl]
    8ed4:	e2833001 	add	r3, r3, #1	; 0x1
    8ed8:	e5ca3000 	strb	r3, [sl]
    8edc:	e5da2000 	ldrb	r2, [sl]
    8ee0:	e7d51000 	ldrb	r1, [r5, r0]
    8ee4:	e35200ff 	cmp	r2, #255	; 0xff
    8ee8:	e59f31dc 	ldr	r3, [pc, #476]	; 90cc <.text+0x10cc>
    8eec:	e59f21dc 	ldr	r2, [pc, #476]	; 90d0 <.text+0x10d0>
    8ef0:	e5c31000 	strb	r1, [r3]
    8ef4:	e5c2e000 	strb	lr, [r2]
    8ef8:	05cae000 	streqb	lr, [sl]
    8efc:	e3a03058 	mov	r3, #88	; 0x58
    8f00:	e5d32000 	ldrb	r2, [r3]
    8f04:	e3822001 	orr	r2, r2, #1	; 0x1
    8f08:	e5c32000 	strb	r2, [r3]
    8f0c:	e5dc1000 	ldrb	r1, [ip]
    8f10:	e3811010 	orr	r1, r1, #16	; 0x10
    8f14:	e5cc1000 	strb	r1, [ip]
    8f18:	e3a03000 	mov	r3, #0	; 0x0
    8f1c:	e5c93000 	strb	r3, [r9]
    8f20:	e8bd87f0 	ldmia	sp!, {r4, r5, r6, r7, r8, r9, sl, pc}
    8f24:	e5d73000 	ldrb	r3, [r7]
    8f28:	e2832001 	add	r2, r3, #1	; 0x1
    8f2c:	e5c72000 	strb	r2, [r7]
    8f30:	e5d70000 	ldrb	r0, [r7]
    8f34:	e59f5170 	ldr	r5, [pc, #368]	; 90ac <.text+0x10ac>
    8f38:	e35000ff 	cmp	r0, #255	; 0xff
    8f3c:	e3a02005 	mov	r2, #5	; 0x5
    8f40:	e7c52003 	strb	r2, [r5, r3]
    8f44:	03a03000 	moveq	r3, #0	; 0x0
    8f48:	e59fc154 	ldr	ip, [pc, #340]	; 90a4 <.text+0x10a4>
    8f4c:	01a00003 	moveq	r0, r3
    8f50:	05c73000 	streqb	r3, [r7]
    8f54:	e2803001 	add	r3, r0, #1	; 0x1
    8f58:	e5cc3000 	strb	r3, [ip]
    8f5c:	e3a02001 	mov	r2, #1	; 0x1
    8f60:	e7c52000 	strb	r2, [r5, r0]
    8f64:	e5dc0000 	ldrb	r0, [ip]
    8f68:	e35000ff 	cmp	r0, #255	; 0xff
    8f6c:	03a03000 	moveq	r3, #0	; 0x0
    8f70:	05cc3000 	streqb	r3, [ip]
    8f74:	e59f8158 	ldr	r8, [pc, #344]	; 90d4 <.text+0x10d4>
    8f78:	e5d81000 	ldrb	r1, [r8]
    8f7c:	01a00003 	moveq	r0, r3
    8f80:	e59f412c 	ldr	r4, [pc, #300]	; 90b4 <.text+0x10b4>
    8f84:	e2802001 	add	r2, r0, #1	; 0x1
    8f88:	e2813001 	add	r3, r1, #1	; 0x1
    8f8c:	e5cc2000 	strb	r2, [ip]
    8f90:	e5c43000 	strb	r3, [r4]
    8f94:	e7c51000 	strb	r1, [r5, r0]
    8f98:	e5d4e000 	ldrb	lr, [r4]
    8f9c:	e5dc0000 	ldrb	r0, [ip]
    8fa0:	e59f6110 	ldr	r6, [pc, #272]	; 90b8 <.text+0x10b8>
    8fa4:	e28e3001 	add	r3, lr, #1	; 0x1
    8fa8:	e35000ff 	cmp	r0, #255	; 0xff
    8fac:	e5c63000 	strb	r3, [r6]
    8fb0:	03a03000 	moveq	r3, #0	; 0x0
    8fb4:	05cc3000 	streqb	r3, [ip]
    8fb8:	e5d81001 	ldrb	r1, [r8, #1]
    8fbc:	01a00003 	moveq	r0, r3
    8fc0:	e2802001 	add	r2, r0, #1	; 0x1
    8fc4:	e081300e 	add	r3, r1, lr
    8fc8:	e5cc2000 	strb	r2, [ip]
    8fcc:	e5c43000 	strb	r3, [r4]
    8fd0:	e7c51000 	strb	r1, [r5, r0]
    8fd4:	e5d63000 	ldrb	r3, [r6]
    8fd8:	e5dc0000 	ldrb	r0, [ip]
    8fdc:	e5d41000 	ldrb	r1, [r4]
    8fe0:	e35000ff 	cmp	r0, #255	; 0xff
    8fe4:	e0833001 	add	r3, r3, r1
    8fe8:	e5c63000 	strb	r3, [r6]
    8fec:	03a03000 	moveq	r3, #0	; 0x0
    8ff0:	01a00003 	moveq	r0, r3
    8ff4:	05cc3000 	streqb	r3, [ip]
    8ff8:	e2803001 	add	r3, r0, #1	; 0x1
    8ffc:	e5cc3000 	strb	r3, [ip]
    9000:	e7c51000 	strb	r1, [r5, r0]
    9004:	e5dc0000 	ldrb	r0, [ip]
    9008:	e35000ff 	cmp	r0, #255	; 0xff
    900c:	03a03000 	moveq	r3, #0	; 0x0
    9010:	01a00003 	moveq	r0, r3
    9014:	05cc3000 	streqb	r3, [ip]
    9018:	e2803001 	add	r3, r0, #1	; 0x1
    901c:	e5cc3000 	strb	r3, [ip]
    9020:	e5dc2000 	ldrb	r2, [ip]
    9024:	e5d63000 	ldrb	r3, [r6]
    9028:	e35200ff 	cmp	r2, #255	; 0xff
    902c:	e7c53000 	strb	r3, [r5, r0]
    9030:	03a03000 	moveq	r3, #0	; 0x0
    9034:	05cc3000 	streqb	r3, [ip]
    9038:	e3a0c059 	mov	ip, #89	; 0x59
    903c:	e5dc3000 	ldrb	r3, [ip]
    9040:	e1a03223 	mov	r3, r3, lsr #4
    9044:	e213e001 	ands	lr, r3, #1	; 0x1
    9048:	1afffe71 	bne	8a14 <send_boot+0x54>
    904c:	e5da0000 	ldrb	r0, [sl]
    9050:	e5da3000 	ldrb	r3, [sl]
    9054:	e2833001 	add	r3, r3, #1	; 0x1
    9058:	e5ca3000 	strb	r3, [sl]
    905c:	e5da2000 	ldrb	r2, [sl]
    9060:	e7d51000 	ldrb	r1, [r5, r0]
    9064:	e35200ff 	cmp	r2, #255	; 0xff
    9068:	e59f305c 	ldr	r3, [pc, #92]	; 90cc <.text+0x10cc>
    906c:	e59f205c 	ldr	r2, [pc, #92]	; 90d0 <.text+0x10d0>
    9070:	e5c31000 	strb	r1, [r3]
    9074:	e5c2e000 	strb	lr, [r2]
    9078:	05cae000 	streqb	lr, [sl]
    907c:	e3a03058 	mov	r3, #88	; 0x58
    9080:	e5d32000 	ldrb	r2, [r3]
    9084:	e3822001 	orr	r2, r2, #1	; 0x1
    9088:	e5c32000 	strb	r2, [r3]
    908c:	e5dc1000 	ldrb	r1, [ip]
    9090:	e3811010 	orr	r1, r1, #16	; 0x10
    9094:	e5cc1000 	strb	r1, [ip]
    9098:	eafffe5d 	b	8a14 <send_boot+0x54>
    909c:	00013501 	andeq	r3, r1, r1, lsl #10
    90a0:	000139f6 	streqd	r3, [r1], -r6
    90a4:	000139f5 	streqd	r3, [r1], -r5
    90a8:	000139f3 	streqd	r3, [r1], -r3
    90ac:	000139f8 	streqd	r3, [r1], -r8
    90b0:	00013bc4 	andeq	r3, r1, r4, asr #23
    90b4:	00013af7 	streqd	r3, [r1], -r7
    90b8:	000139f2 	streqd	r3, [r1], -r2
    90bc:	00013bdc 	ldreqd	r3, [r1], -ip
    90c0:	00013bbc 	streqh	r3, [r1], -ip
    90c4:	0001350a 	andeq	r3, r1, sl, lsl #10
    90c8:	00013508 	andeq	r3, r1, r8, lsl #10
    90cc:	000139f4 	streqd	r3, [r1], -r4
    90d0:	000139f7 	streqd	r3, [r1], -r7
    90d4:	000133ca 	andeq	r3, r1, sl, asr #7

000090d8 <send_attitude>:
    90d8:	e92d41f0 	stmdb	sp!, {r4, r5, r6, r7, r8, lr}
    90dc:	e59f3460 	ldr	r3, [pc, #1120]	; 9544 <.text+0x1544>
    90e0:	e5d32000 	ldrb	r2, [r3]
    90e4:	e3520000 	cmp	r2, #0	; 0x0
    90e8:	18bd81f0 	ldmneia	sp!, {r4, r5, r6, r7, r8, pc}
    90ec:	e59f0454 	ldr	r0, [pc, #1108]	; 9548 <.text+0x1548>
    90f0:	e5d03000 	ldrb	r3, [r0]
    90f4:	e2833001 	add	r3, r3, #1	; 0x1
    90f8:	e5c03000 	strb	r3, [r0]
    90fc:	e5d01000 	ldrb	r1, [r0]
    9100:	e35100fa 	cmp	r1, #250	; 0xfa
    9104:	05c02000 	streqb	r2, [r0]
    9108:	01a01002 	moveq	r1, r2
    910c:	e59f2438 	ldr	r2, [pc, #1080]	; 954c <.text+0x154c>
    9110:	e20110ff 	and	r1, r1, #255	; 0xff
    9114:	e0830192 	umull	r0, r3, r2, r1
    9118:	e1a03123 	mov	r3, r3, lsr #2
    911c:	e0833103 	add	r3, r3, r3, lsl #2
    9120:	e0631001 	rsb	r1, r3, r1
    9124:	e31100ff 	tst	r1, #255	; 0xff
    9128:	18bd81f0 	ldmneia	sp!, {r4, r5, r6, r7, r8, pc}
    912c:	e59f841c 	ldr	r8, [pc, #1052]	; 9550 <.text+0x1550>
    9130:	e59f141c 	ldr	r1, [pc, #1052]	; 9554 <.text+0x1554>
    9134:	e5d83000 	ldrb	r3, [r8]
    9138:	e5d12000 	ldrb	r2, [r1]
    913c:	e1520003 	cmp	r2, r3
    9140:	25d83000 	ldrcsb	r3, [r8]
    9144:	35d83000 	ldrccb	r3, [r8]
    9148:	20633002 	rsbcs	r3, r3, r2
    914c:	30623003 	rsbcc	r3, r2, r3
    9150:	226330ff 	rsbcs	r3, r3, #255	; 0xff
    9154:	e3530010 	cmp	r3, #16	; 0x10
    9158:	d59f23f8 	ldrle	r2, [pc, #1016]	; 9558 <.text+0x1558>
    915c:	d5d23000 	ldrleb	r3, [r2]
    9160:	d2833001 	addle	r3, r3, #1	; 0x1
    9164:	d5c23000 	strleb	r3, [r2]
    9168:	d8bd81f0 	ldmleia	sp!, {r4, r5, r6, r7, r8, pc}
    916c:	e5d13000 	ldrb	r3, [r1]
    9170:	e2832001 	add	r2, r3, #1	; 0x1
    9174:	e5c12000 	strb	r2, [r1]
    9178:	e5d10000 	ldrb	r0, [r1]
    917c:	e59f63d8 	ldr	r6, [pc, #984]	; 955c <.text+0x155c>
    9180:	e35000ff 	cmp	r0, #255	; 0xff
    9184:	e3a02005 	mov	r2, #5	; 0x5
    9188:	e7c62003 	strb	r2, [r6, r3]
    918c:	03a03000 	moveq	r3, #0	; 0x0
    9190:	e59fc3bc 	ldr	ip, [pc, #956]	; 9554 <.text+0x1554>
    9194:	01a00003 	moveq	r0, r3
    9198:	05c13000 	streqb	r3, [r1]
    919c:	e2803001 	add	r3, r0, #1	; 0x1
    91a0:	e5cc3000 	strb	r3, [ip]
    91a4:	e3a02006 	mov	r2, #6	; 0x6
    91a8:	e7c62000 	strb	r2, [r6, r0]
    91ac:	e5dc0000 	ldrb	r0, [ip]
    91b0:	e35000ff 	cmp	r0, #255	; 0xff
    91b4:	03a03000 	moveq	r3, #0	; 0x0
    91b8:	05cc3000 	streqb	r3, [ip]
    91bc:	e59f739c 	ldr	r7, [pc, #924]	; 9560 <.text+0x1560>
    91c0:	e5d71000 	ldrb	r1, [r7]
    91c4:	e59f4398 	ldr	r4, [pc, #920]	; 9564 <.text+0x1564>
    91c8:	01a00003 	moveq	r0, r3
    91cc:	e2802001 	add	r2, r0, #1	; 0x1
    91d0:	e2813006 	add	r3, r1, #6	; 0x6
    91d4:	e5cc2000 	strb	r2, [ip]
    91d8:	e5c43000 	strb	r3, [r4]
    91dc:	e7c61000 	strb	r1, [r6, r0]
    91e0:	e5d4e000 	ldrb	lr, [r4]
    91e4:	e5dc0000 	ldrb	r0, [ip]
    91e8:	e59f5378 	ldr	r5, [pc, #888]	; 9568 <.text+0x1568>
    91ec:	e28e3006 	add	r3, lr, #6	; 0x6
    91f0:	e35000ff 	cmp	r0, #255	; 0xff
    91f4:	e5c53000 	strb	r3, [r5]
    91f8:	03a03000 	moveq	r3, #0	; 0x0
    91fc:	05cc3000 	streqb	r3, [ip]
    9200:	e5d71001 	ldrb	r1, [r7, #1]
    9204:	01a00003 	moveq	r0, r3
    9208:	e2802001 	add	r2, r0, #1	; 0x1
    920c:	e081300e 	add	r3, r1, lr
    9210:	e5cc2000 	strb	r2, [ip]
    9214:	e5c43000 	strb	r3, [r4]
    9218:	e7c61000 	strb	r1, [r6, r0]
    921c:	e5d4e000 	ldrb	lr, [r4]
    9220:	e5dc0000 	ldrb	r0, [ip]
    9224:	e5d53000 	ldrb	r3, [r5]
    9228:	e35000ff 	cmp	r0, #255	; 0xff
    922c:	e083300e 	add	r3, r3, lr
    9230:	e5c53000 	strb	r3, [r5]
    9234:	03a03000 	moveq	r3, #0	; 0x0
    9238:	05cc3000 	streqb	r3, [ip]
    923c:	e5d71002 	ldrb	r1, [r7, #2]
    9240:	01a00003 	moveq	r0, r3
    9244:	e2802001 	add	r2, r0, #1	; 0x1
    9248:	e081300e 	add	r3, r1, lr
    924c:	e5cc2000 	strb	r2, [ip]
    9250:	e5c43000 	strb	r3, [r4]
    9254:	e7c61000 	strb	r1, [r6, r0]
    9258:	e5d4e000 	ldrb	lr, [r4]
    925c:	e5dc0000 	ldrb	r0, [ip]
    9260:	e5d53000 	ldrb	r3, [r5]
    9264:	e35000ff 	cmp	r0, #255	; 0xff
    9268:	e083300e 	add	r3, r3, lr
    926c:	e5c53000 	strb	r3, [r5]
    9270:	03a03000 	moveq	r3, #0	; 0x0
    9274:	05cc3000 	streqb	r3, [ip]
    9278:	e5d71003 	ldrb	r1, [r7, #3]
    927c:	01a00003 	moveq	r0, r3
    9280:	e2802001 	add	r2, r0, #1	; 0x1
    9284:	e081300e 	add	r3, r1, lr
    9288:	e5cc2000 	strb	r2, [ip]
    928c:	e5c43000 	strb	r3, [r4]
    9290:	e7c61000 	strb	r1, [r6, r0]
    9294:	e5d4e000 	ldrb	lr, [r4]
    9298:	e5dc0000 	ldrb	r0, [ip]
    929c:	e5d53000 	ldrb	r3, [r5]
    92a0:	e35000ff 	cmp	r0, #255	; 0xff
    92a4:	e083300e 	add	r3, r3, lr
    92a8:	e5c53000 	strb	r3, [r5]
    92ac:	03a03000 	moveq	r3, #0	; 0x0
    92b0:	05cc3000 	streqb	r3, [ip]
    92b4:	e59f72b0 	ldr	r7, [pc, #688]	; 956c <.text+0x156c>
    92b8:	e5d71000 	ldrb	r1, [r7]
    92bc:	01a00003 	moveq	r0, r3
    92c0:	e2802001 	add	r2, r0, #1	; 0x1
    92c4:	e081300e 	add	r3, r1, lr
    92c8:	e5cc2000 	strb	r2, [ip]
    92cc:	e5c43000 	strb	r3, [r4]
    92d0:	e7c61000 	strb	r1, [r6, r0]
    92d4:	e5d4e000 	ldrb	lr, [r4]
    92d8:	e5dc0000 	ldrb	r0, [ip]
    92dc:	e5d53000 	ldrb	r3, [r5]
    92e0:	e35000ff 	cmp	r0, #255	; 0xff
    92e4:	e083300e 	add	r3, r3, lr
    92e8:	e5c53000 	strb	r3, [r5]
    92ec:	03a03000 	moveq	r3, #0	; 0x0
    92f0:	05cc3000 	streqb	r3, [ip]
    92f4:	e5d71001 	ldrb	r1, [r7, #1]
    92f8:	01a00003 	moveq	r0, r3
    92fc:	e2802001 	add	r2, r0, #1	; 0x1
    9300:	e081300e 	add	r3, r1, lr
    9304:	e5cc2000 	strb	r2, [ip]
    9308:	e5c43000 	strb	r3, [r4]
    930c:	e7c61000 	strb	r1, [r6, r0]
    9310:	e5d4e000 	ldrb	lr, [r4]
    9314:	e5dc0000 	ldrb	r0, [ip]
    9318:	e5d53000 	ldrb	r3, [r5]
    931c:	e35000ff 	cmp	r0, #255	; 0xff
    9320:	e083300e 	add	r3, r3, lr
    9324:	e5c53000 	strb	r3, [r5]
    9328:	03a03000 	moveq	r3, #0	; 0x0
    932c:	05cc3000 	streqb	r3, [ip]
    9330:	e5d71002 	ldrb	r1, [r7, #2]
    9334:	01a00003 	moveq	r0, r3
    9338:	e2802001 	add	r2, r0, #1	; 0x1
    933c:	e081300e 	add	r3, r1, lr
    9340:	e5cc2000 	strb	r2, [ip]
    9344:	e5c43000 	strb	r3, [r4]
    9348:	e7c61000 	strb	r1, [r6, r0]
    934c:	e5d4e000 	ldrb	lr, [r4]
    9350:	e5dc0000 	ldrb	r0, [ip]
    9354:	e5d53000 	ldrb	r3, [r5]
    9358:	e35000ff 	cmp	r0, #255	; 0xff
    935c:	e083300e 	add	r3, r3, lr
    9360:	e5c53000 	strb	r3, [r5]
    9364:	03a03000 	moveq	r3, #0	; 0x0
    9368:	05cc3000 	streqb	r3, [ip]
    936c:	e5d71003 	ldrb	r1, [r7, #3]
    9370:	01a00003 	moveq	r0, r3
    9374:	e2802001 	add	r2, r0, #1	; 0x1
    9378:	e081300e 	add	r3, r1, lr
    937c:	e5cc2000 	strb	r2, [ip]
    9380:	e5c43000 	strb	r3, [r4]
    9384:	e7c61000 	strb	r1, [r6, r0]
    9388:	e5d4e000 	ldrb	lr, [r4]
    938c:	e5dc0000 	ldrb	r0, [ip]
    9390:	e5d53000 	ldrb	r3, [r5]
    9394:	e35000ff 	cmp	r0, #255	; 0xff
    9398:	e083300e 	add	r3, r3, lr
    939c:	e5c53000 	strb	r3, [r5]
    93a0:	03a03000 	moveq	r3, #0	; 0x0
    93a4:	05cc3000 	streqb	r3, [ip]
    93a8:	e59f71c0 	ldr	r7, [pc, #448]	; 9570 <.text+0x1570>
    93ac:	e5d71000 	ldrb	r1, [r7]
    93b0:	01a00003 	moveq	r0, r3
    93b4:	e2802001 	add	r2, r0, #1	; 0x1
    93b8:	e081300e 	add	r3, r1, lr
    93bc:	e5cc2000 	strb	r2, [ip]
    93c0:	e5c43000 	strb	r3, [r4]
    93c4:	e7c61000 	strb	r1, [r6, r0]
    93c8:	e5d4e000 	ldrb	lr, [r4]
    93cc:	e5dc0000 	ldrb	r0, [ip]
    93d0:	e5d53000 	ldrb	r3, [r5]
    93d4:	e35000ff 	cmp	r0, #255	; 0xff
    93d8:	e083300e 	add	r3, r3, lr
    93dc:	e5c53000 	strb	r3, [r5]
    93e0:	03a03000 	moveq	r3, #0	; 0x0
    93e4:	05cc3000 	streqb	r3, [ip]
    93e8:	e5d71001 	ldrb	r1, [r7, #1]
    93ec:	01a00003 	moveq	r0, r3
    93f0:	e2802001 	add	r2, r0, #1	; 0x1
    93f4:	e081300e 	add	r3, r1, lr
    93f8:	e5cc2000 	strb	r2, [ip]
    93fc:	e5c43000 	strb	r3, [r4]
    9400:	e7c61000 	strb	r1, [r6, r0]
    9404:	e5d4e000 	ldrb	lr, [r4]
    9408:	e5dc0000 	ldrb	r0, [ip]
    940c:	e5d53000 	ldrb	r3, [r5]
    9410:	e35000ff 	cmp	r0, #255	; 0xff
    9414:	e083300e 	add	r3, r3, lr
    9418:	e5c53000 	strb	r3, [r5]
    941c:	03a03000 	moveq	r3, #0	; 0x0
    9420:	05cc3000 	streqb	r3, [ip]
    9424:	e5d71002 	ldrb	r1, [r7, #2]
    9428:	01a00003 	moveq	r0, r3
    942c:	e2802001 	add	r2, r0, #1	; 0x1
    9430:	e081300e 	add	r3, r1, lr
    9434:	e5cc2000 	strb	r2, [ip]
    9438:	e5c43000 	strb	r3, [r4]
    943c:	e7c61000 	strb	r1, [r6, r0]
    9440:	e5d4e000 	ldrb	lr, [r4]
    9444:	e5dc0000 	ldrb	r0, [ip]
    9448:	e5d53000 	ldrb	r3, [r5]
    944c:	e35000ff 	cmp	r0, #255	; 0xff
    9450:	e083300e 	add	r3, r3, lr
    9454:	e5c53000 	strb	r3, [r5]
    9458:	03a03000 	moveq	r3, #0	; 0x0
    945c:	05cc3000 	streqb	r3, [ip]
    9460:	e5d71003 	ldrb	r1, [r7, #3]
    9464:	01a00003 	moveq	r0, r3
    9468:	e2802001 	add	r2, r0, #1	; 0x1
    946c:	e081300e 	add	r3, r1, lr
    9470:	e5cc2000 	strb	r2, [ip]
    9474:	e5c43000 	strb	r3, [r4]
    9478:	e7c61000 	strb	r1, [r6, r0]
    947c:	e5d53000 	ldrb	r3, [r5]
    9480:	e5dc0000 	ldrb	r0, [ip]
    9484:	e5d41000 	ldrb	r1, [r4]
    9488:	e35000ff 	cmp	r0, #255	; 0xff
    948c:	e0833001 	add	r3, r3, r1
    9490:	e5c53000 	strb	r3, [r5]
    9494:	03a03000 	moveq	r3, #0	; 0x0
    9498:	01a00003 	moveq	r0, r3
    949c:	05cc3000 	streqb	r3, [ip]
    94a0:	e2803001 	add	r3, r0, #1	; 0x1
    94a4:	e5cc3000 	strb	r3, [ip]
    94a8:	e7c61000 	strb	r1, [r6, r0]
    94ac:	e5dc0000 	ldrb	r0, [ip]
    94b0:	e35000ff 	cmp	r0, #255	; 0xff
    94b4:	03a03000 	moveq	r3, #0	; 0x0
    94b8:	01a00003 	moveq	r0, r3
    94bc:	05cc3000 	streqb	r3, [ip]
    94c0:	e2803001 	add	r3, r0, #1	; 0x1
    94c4:	e5cc3000 	strb	r3, [ip]
    94c8:	e5dc2000 	ldrb	r2, [ip]
    94cc:	e5d53000 	ldrb	r3, [r5]
    94d0:	e35200ff 	cmp	r2, #255	; 0xff
    94d4:	e7c63000 	strb	r3, [r6, r0]
    94d8:	03a03000 	moveq	r3, #0	; 0x0
    94dc:	05cc3000 	streqb	r3, [ip]
    94e0:	e3a0c059 	mov	ip, #89	; 0x59
    94e4:	e5dc3000 	ldrb	r3, [ip]
    94e8:	e1a03223 	mov	r3, r3, lsr #4
    94ec:	e213e001 	ands	lr, r3, #1	; 0x1
    94f0:	18bd81f0 	ldmneia	sp!, {r4, r5, r6, r7, r8, pc}
    94f4:	e5d80000 	ldrb	r0, [r8]
    94f8:	e5d83000 	ldrb	r3, [r8]
    94fc:	e2833001 	add	r3, r3, #1	; 0x1
    9500:	e5c83000 	strb	r3, [r8]
    9504:	e5d82000 	ldrb	r2, [r8]
    9508:	e7d61000 	ldrb	r1, [r6, r0]
    950c:	e35200ff 	cmp	r2, #255	; 0xff
    9510:	e59f305c 	ldr	r3, [pc, #92]	; 9574 <.text+0x1574>
    9514:	e59f205c 	ldr	r2, [pc, #92]	; 9578 <.text+0x1578>
    9518:	e5c31000 	strb	r1, [r3]
    951c:	e5c2e000 	strb	lr, [r2]
    9520:	05c8e000 	streqb	lr, [r8]
    9524:	e3a03058 	mov	r3, #88	; 0x58
    9528:	e5d32000 	ldrb	r2, [r3]
    952c:	e3822001 	orr	r2, r2, #1	; 0x1
    9530:	e5c32000 	strb	r2, [r3]
    9534:	e5dc1000 	ldrb	r1, [ip]
    9538:	e3811010 	orr	r1, r1, #16	; 0x10
    953c:	e5cc1000 	strb	r1, [ip]
    9540:	e8bd81f0 	ldmia	sp!, {r4, r5, r6, r7, r8, pc}
    9544:	00013501 	andeq	r3, r1, r1, lsl #10
    9548:	000135b6 	streqh	r3, [r1], -r6
    954c:	cccccccd 	stcgtl	12, cr12, [ip], {205}
    9550:	000139f6 	streqd	r3, [r1], -r6
    9554:	000139f5 	streqd	r3, [r1], -r5
    9558:	000139f3 	streqd	r3, [r1], -r3
    955c:	000139f8 	streqd	r3, [r1], -r8
    9560:	00013bcc 	andeq	r3, r1, ip, asr #23
    9564:	00013af7 	streqd	r3, [r1], -r7
    9568:	000139f2 	streqd	r3, [r1], -r2
    956c:	00013bb0 	streqh	r3, [r1], -r0
    9570:	00013bc0 	andeq	r3, r1, r0, asr #23
    9574:	000139f4 	streqd	r3, [r1], -r4
    9578:	000139f7 	streqd	r3, [r1], -r7

0000957c <send_adc>:
    957c:	e92d41f0 	stmdb	sp!, {r4, r5, r6, r7, r8, lr}
    9580:	e59f3264 	ldr	r3, [pc, #612]	; 97ec <.text+0x17ec>
    9584:	e5d32000 	ldrb	r2, [r3]
    9588:	e3520000 	cmp	r2, #0	; 0x0
    958c:	18bd81f0 	ldmneia	sp!, {r4, r5, r6, r7, r8, pc}
    9590:	e59f3258 	ldr	r3, [pc, #600]	; 97f0 <.text+0x17f0>
    9594:	e59f1258 	ldr	r1, [pc, #600]	; 97f4 <.text+0x17f4>
    9598:	e5d32000 	ldrb	r2, [r3]
    959c:	e0830291 	umull	r0, r3, r1, r2
    95a0:	e1a03123 	mov	r3, r3, lsr #2
    95a4:	e0833103 	add	r3, r3, r3, lsl #2
    95a8:	e0632002 	rsb	r2, r3, r2
    95ac:	e20220ff 	and	r2, r2, #255	; 0xff
    95b0:	e3520001 	cmp	r2, #1	; 0x1
    95b4:	18bd81f0 	ldmneia	sp!, {r4, r5, r6, r7, r8, pc}
    95b8:	e59f7238 	ldr	r7, [pc, #568]	; 97f8 <.text+0x17f8>
    95bc:	e59f1238 	ldr	r1, [pc, #568]	; 97fc <.text+0x17fc>
    95c0:	e5d73000 	ldrb	r3, [r7]
    95c4:	e5d12000 	ldrb	r2, [r1]
    95c8:	e1520003 	cmp	r2, r3
    95cc:	25d73000 	ldrcsb	r3, [r7]
    95d0:	35d73000 	ldrccb	r3, [r7]
    95d4:	20633002 	rsbcs	r3, r3, r2
    95d8:	30623003 	rsbcc	r3, r2, r3
    95dc:	226330ff 	rsbcs	r3, r3, #255	; 0xff
    95e0:	e3530008 	cmp	r3, #8	; 0x8
    95e4:	d59f2214 	ldrle	r2, [pc, #532]	; 9800 <.text+0x1800>
    95e8:	d5d23000 	ldrleb	r3, [r2]
    95ec:	d2833001 	addle	r3, r3, #1	; 0x1
    95f0:	d5c23000 	strleb	r3, [r2]
    95f4:	d8bd81f0 	ldmleia	sp!, {r4, r5, r6, r7, r8, pc}
    95f8:	e5d13000 	ldrb	r3, [r1]
    95fc:	e2832001 	add	r2, r3, #1	; 0x1
    9600:	e5c12000 	strb	r2, [r1]
    9604:	e5d10000 	ldrb	r0, [r1]
    9608:	e59f61f4 	ldr	r6, [pc, #500]	; 9804 <.text+0x1804>
    960c:	e35000ff 	cmp	r0, #255	; 0xff
    9610:	e3a02005 	mov	r2, #5	; 0x5
    9614:	e7c62003 	strb	r2, [r6, r3]
    9618:	03a03000 	moveq	r3, #0	; 0x0
    961c:	e59fc1d8 	ldr	ip, [pc, #472]	; 97fc <.text+0x17fc>
    9620:	01a00003 	moveq	r0, r3
    9624:	05c13000 	streqb	r3, [r1]
    9628:	e2803001 	add	r3, r0, #1	; 0x1
    962c:	e5cc3000 	strb	r3, [ip]
    9630:	e3a02007 	mov	r2, #7	; 0x7
    9634:	e7c62000 	strb	r2, [r6, r0]
    9638:	e5dc0000 	ldrb	r0, [ip]
    963c:	e35000ff 	cmp	r0, #255	; 0xff
    9640:	03a03000 	moveq	r3, #0	; 0x0
    9644:	05cc3000 	streqb	r3, [ip]
    9648:	e59f81b8 	ldr	r8, [pc, #440]	; 9808 <.text+0x1808>
    964c:	e5d81000 	ldrb	r1, [r8]
    9650:	e59f41b4 	ldr	r4, [pc, #436]	; 980c <.text+0x180c>
    9654:	01a00003 	moveq	r0, r3
    9658:	e2802001 	add	r2, r0, #1	; 0x1
    965c:	e2813007 	add	r3, r1, #7	; 0x7
    9660:	e5cc2000 	strb	r2, [ip]
    9664:	e5c43000 	strb	r3, [r4]
    9668:	e7c61000 	strb	r1, [r6, r0]
    966c:	e5d4e000 	ldrb	lr, [r4]
    9670:	e5dc0000 	ldrb	r0, [ip]
    9674:	e59f5194 	ldr	r5, [pc, #404]	; 9810 <.text+0x1810>
    9678:	e28e3007 	add	r3, lr, #7	; 0x7
    967c:	e35000ff 	cmp	r0, #255	; 0xff
    9680:	e5c53000 	strb	r3, [r5]
    9684:	03a03000 	moveq	r3, #0	; 0x0
    9688:	05cc3000 	streqb	r3, [ip]
    968c:	e5d81001 	ldrb	r1, [r8, #1]
    9690:	01a00003 	moveq	r0, r3
    9694:	e2802001 	add	r2, r0, #1	; 0x1
    9698:	e081300e 	add	r3, r1, lr
    969c:	e5cc2000 	strb	r2, [ip]
    96a0:	e5c43000 	strb	r3, [r4]
    96a4:	e7c61000 	strb	r1, [r6, r0]
    96a8:	e5d4e000 	ldrb	lr, [r4]
    96ac:	e5dc0000 	ldrb	r0, [ip]
    96b0:	e5d53000 	ldrb	r3, [r5]
    96b4:	e35000ff 	cmp	r0, #255	; 0xff
    96b8:	e083300e 	add	r3, r3, lr
    96bc:	e5c53000 	strb	r3, [r5]
    96c0:	03a03000 	moveq	r3, #0	; 0x0
    96c4:	05cc3000 	streqb	r3, [ip]
    96c8:	e59f8144 	ldr	r8, [pc, #324]	; 9814 <.text+0x1814>
    96cc:	e5d81000 	ldrb	r1, [r8]
    96d0:	01a00003 	moveq	r0, r3
    96d4:	e2802001 	add	r2, r0, #1	; 0x1
    96d8:	e081300e 	add	r3, r1, lr
    96dc:	e5cc2000 	strb	r2, [ip]
    96e0:	e5c43000 	strb	r3, [r4]
    96e4:	e7c61000 	strb	r1, [r6, r0]
    96e8:	e5d4e000 	ldrb	lr, [r4]
    96ec:	e5dc0000 	ldrb	r0, [ip]
    96f0:	e5d53000 	ldrb	r3, [r5]
    96f4:	e35000ff 	cmp	r0, #255	; 0xff
    96f8:	e083300e 	add	r3, r3, lr
    96fc:	e5c53000 	strb	r3, [r5]
    9700:	03a03000 	moveq	r3, #0	; 0x0
    9704:	05cc3000 	streqb	r3, [ip]
    9708:	e5d81001 	ldrb	r1, [r8, #1]
    970c:	01a00003 	moveq	r0, r3
    9710:	e2802001 	add	r2, r0, #1	; 0x1
    9714:	e081300e 	add	r3, r1, lr
    9718:	e5cc2000 	strb	r2, [ip]
    971c:	e5c43000 	strb	r3, [r4]
    9720:	e7c61000 	strb	r1, [r6, r0]
    9724:	e5d53000 	ldrb	r3, [r5]
    9728:	e5dc0000 	ldrb	r0, [ip]
    972c:	e5d41000 	ldrb	r1, [r4]
    9730:	e35000ff 	cmp	r0, #255	; 0xff
    9734:	e0833001 	add	r3, r3, r1
    9738:	e5c53000 	strb	r3, [r5]
    973c:	03a03000 	moveq	r3, #0	; 0x0
    9740:	01a00003 	moveq	r0, r3
    9744:	05cc3000 	streqb	r3, [ip]
    9748:	e2803001 	add	r3, r0, #1	; 0x1
    974c:	e5cc3000 	strb	r3, [ip]
    9750:	e7c61000 	strb	r1, [r6, r0]
    9754:	e5dc0000 	ldrb	r0, [ip]
    9758:	e35000ff 	cmp	r0, #255	; 0xff
    975c:	03a03000 	moveq	r3, #0	; 0x0
    9760:	01a00003 	moveq	r0, r3
    9764:	05cc3000 	streqb	r3, [ip]
    9768:	e2803001 	add	r3, r0, #1	; 0x1
    976c:	e5cc3000 	strb	r3, [ip]
    9770:	e5dc2000 	ldrb	r2, [ip]
    9774:	e5d53000 	ldrb	r3, [r5]
    9778:	e35200ff 	cmp	r2, #255	; 0xff
    977c:	e7c63000 	strb	r3, [r6, r0]
    9780:	03a03000 	moveq	r3, #0	; 0x0
    9784:	05cc3000 	streqb	r3, [ip]
    9788:	e3a0c059 	mov	ip, #89	; 0x59
    978c:	e5dc3000 	ldrb	r3, [ip]
    9790:	e1a03223 	mov	r3, r3, lsr #4
    9794:	e213e001 	ands	lr, r3, #1	; 0x1
    9798:	18bd81f0 	ldmneia	sp!, {r4, r5, r6, r7, r8, pc}
    979c:	e5d70000 	ldrb	r0, [r7]
    97a0:	e5d73000 	ldrb	r3, [r7]
    97a4:	e2833001 	add	r3, r3, #1	; 0x1
    97a8:	e5c73000 	strb	r3, [r7]
    97ac:	e5d72000 	ldrb	r2, [r7]
    97b0:	e7d61000 	ldrb	r1, [r6, r0]
    97b4:	e35200ff 	cmp	r2, #255	; 0xff
    97b8:	e59f3058 	ldr	r3, [pc, #88]	; 9818 <.text+0x1818>
    97bc:	e59f2058 	ldr	r2, [pc, #88]	; 981c <.text+0x181c>
    97c0:	e5c31000 	strb	r1, [r3]
    97c4:	e5c2e000 	strb	lr, [r2]
    97c8:	05c7e000 	streqb	lr, [r7]
    97cc:	e3a03058 	mov	r3, #88	; 0x58
    97d0:	e5d32000 	ldrb	r2, [r3]
    97d4:	e3822001 	orr	r2, r2, #1	; 0x1
    97d8:	e5c32000 	strb	r2, [r3]
    97dc:	e5dc1000 	ldrb	r1, [ip]
    97e0:	e3811010 	orr	r1, r1, #16	; 0x10
    97e4:	e5cc1000 	strb	r1, [ip]
    97e8:	e8bd81f0 	ldmia	sp!, {r4, r5, r6, r7, r8, pc}
    97ec:	00013501 	andeq	r3, r1, r1, lsl #10
    97f0:	000135b6 	streqh	r3, [r1], -r6
    97f4:	cccccccd 	stcgtl	12, cr12, [ip], {205}
    97f8:	000139f6 	streqd	r3, [r1], -r6
    97fc:	000139f5 	streqd	r3, [r1], -r5
    9800:	000139f3 	streqd	r3, [r1], -r3
    9804:	000139f8 	streqd	r3, [r1], -r8
    9808:	00013b6e 	andeq	r3, r1, lr, ror #22
    980c:	00013af7 	streqd	r3, [r1], -r7
    9810:	000139f2 	streqd	r3, [r1], -r2
    9814:	00013b6c 	andeq	r3, r1, ip, ror #22
    9818:	000139f4 	streqd	r3, [r1], -r4
    981c:	000139f7 	streqd	r3, [r1], -r7

00009820 <send_settings>:
    9820:	e92d40f0 	stmdb	sp!, {r4, r5, r6, r7, lr}
    9824:	e59f33a0 	ldr	r3, [pc, #928]	; 9bcc <.text+0x1bcc>
    9828:	e5d32000 	ldrb	r2, [r3]
    982c:	e3520000 	cmp	r2, #0	; 0x0
    9830:	18bd80f0 	ldmneia	sp!, {r4, r5, r6, r7, pc}
    9834:	e59f3394 	ldr	r3, [pc, #916]	; 9bd0 <.text+0x1bd0>
    9838:	e59f1394 	ldr	r1, [pc, #916]	; 9bd4 <.text+0x1bd4>
    983c:	e5d32000 	ldrb	r2, [r3]
    9840:	e0830291 	umull	r0, r3, r1, r2
    9844:	e1a03123 	mov	r3, r3, lsr #2
    9848:	e0833103 	add	r3, r3, r3, lsl #2
    984c:	e0632002 	rsb	r2, r3, r2
    9850:	e20220ff 	and	r2, r2, #255	; 0xff
    9854:	e3520002 	cmp	r2, #2	; 0x2
    9858:	18bd80f0 	ldmneia	sp!, {r4, r5, r6, r7, pc}
    985c:	e59fe374 	ldr	lr, [pc, #884]	; 9bd8 <.text+0x1bd8>
    9860:	e5de3000 	ldrb	r3, [lr]
    9864:	e3530000 	cmp	r3, #0	; 0x0
    9868:	08bd80f0 	ldmeqia	sp!, {r4, r5, r6, r7, pc}
    986c:	e59f7368 	ldr	r7, [pc, #872]	; 9bdc <.text+0x1bdc>
    9870:	e59f1368 	ldr	r1, [pc, #872]	; 9be0 <.text+0x1be0>
    9874:	e5d73000 	ldrb	r3, [r7]
    9878:	e5d12000 	ldrb	r2, [r1]
    987c:	e1520003 	cmp	r2, r3
    9880:	25d73000 	ldrcsb	r3, [r7]
    9884:	35d73000 	ldrccb	r3, [r7]
    9888:	20633002 	rsbcs	r3, r3, r2
    988c:	30623003 	rsbcc	r3, r2, r3
    9890:	226330ff 	rsbcs	r3, r3, #255	; 0xff
    9894:	e353000d 	cmp	r3, #13	; 0xd
    9898:	d59f2344 	ldrle	r2, [pc, #836]	; 9be4 <.text+0x1be4>
    989c:	d5d23000 	ldrleb	r3, [r2]
    98a0:	d2833001 	addle	r3, r3, #1	; 0x1
    98a4:	d5c23000 	strleb	r3, [r2]
    98a8:	d8bd80f0 	ldmleia	sp!, {r4, r5, r6, r7, pc}
    98ac:	e5d13000 	ldrb	r3, [r1]
    98b0:	e2832001 	add	r2, r3, #1	; 0x1
    98b4:	e5c12000 	strb	r2, [r1]
    98b8:	e5d10000 	ldrb	r0, [r1]
    98bc:	e59f5324 	ldr	r5, [pc, #804]	; 9be8 <.text+0x1be8>
    98c0:	e35000ff 	cmp	r0, #255	; 0xff
    98c4:	e3a02005 	mov	r2, #5	; 0x5
    98c8:	e7c52003 	strb	r2, [r5, r3]
    98cc:	03a03000 	moveq	r3, #0	; 0x0
    98d0:	e59fc308 	ldr	ip, [pc, #776]	; 9be0 <.text+0x1be0>
    98d4:	01a00003 	moveq	r0, r3
    98d8:	05c13000 	streqb	r3, [r1]
    98dc:	e2803001 	add	r3, r0, #1	; 0x1
    98e0:	e5cc3000 	strb	r3, [ip]
    98e4:	e3a02011 	mov	r2, #17	; 0x11
    98e8:	e7c52000 	strb	r2, [r5, r0]
    98ec:	e5dc0000 	ldrb	r0, [ip]
    98f0:	e35000ff 	cmp	r0, #255	; 0xff
    98f4:	e5de1000 	ldrb	r1, [lr]
    98f8:	03a03000 	moveq	r3, #0	; 0x0
    98fc:	e59fe2e8 	ldr	lr, [pc, #744]	; 9bec <.text+0x1bec>
    9900:	01a00003 	moveq	r0, r3
    9904:	05cc3000 	streqb	r3, [ip]
    9908:	e2802001 	add	r2, r0, #1	; 0x1
    990c:	e2813011 	add	r3, r1, #17	; 0x11
    9910:	e5cc2000 	strb	r2, [ip]
    9914:	e5ce3000 	strb	r3, [lr]
    9918:	e7c51000 	strb	r1, [r5, r0]
    991c:	e5de2000 	ldrb	r2, [lr]
    9920:	e5dc0000 	ldrb	r0, [ip]
    9924:	e59f42c4 	ldr	r4, [pc, #708]	; 9bf0 <.text+0x1bf0>
    9928:	e2823011 	add	r3, r2, #17	; 0x11
    992c:	e35000ff 	cmp	r0, #255	; 0xff
    9930:	e5c43000 	strb	r3, [r4]
    9934:	03a03000 	moveq	r3, #0	; 0x0
    9938:	05cc3000 	streqb	r3, [ip]
    993c:	e59f62b0 	ldr	r6, [pc, #688]	; 9bf4 <.text+0x1bf4>
    9940:	e5d61000 	ldrb	r1, [r6]
    9944:	01a00003 	moveq	r0, r3
    9948:	e0813002 	add	r3, r1, r2
    994c:	e2802001 	add	r2, r0, #1	; 0x1
    9950:	e5cc2000 	strb	r2, [ip]
    9954:	e5ce3000 	strb	r3, [lr]
    9958:	e7c51000 	strb	r1, [r5, r0]
    995c:	e5de2000 	ldrb	r2, [lr]
    9960:	e5dc0000 	ldrb	r0, [ip]
    9964:	e5d43000 	ldrb	r3, [r4]
    9968:	e35000ff 	cmp	r0, #255	; 0xff
    996c:	e0833002 	add	r3, r3, r2
    9970:	e5c43000 	strb	r3, [r4]
    9974:	03a03000 	moveq	r3, #0	; 0x0
    9978:	05cc3000 	streqb	r3, [ip]
    997c:	e5d61001 	ldrb	r1, [r6, #1]
    9980:	01a00003 	moveq	r0, r3
    9984:	e0813002 	add	r3, r1, r2
    9988:	e2802001 	add	r2, r0, #1	; 0x1
    998c:	e5ce3000 	strb	r3, [lr]
    9990:	e5cc2000 	strb	r2, [ip]
    9994:	e7c51000 	strb	r1, [r5, r0]
    9998:	e5de2000 	ldrb	r2, [lr]
    999c:	e5dc0000 	ldrb	r0, [ip]
    99a0:	e5d43000 	ldrb	r3, [r4]
    99a4:	e35000ff 	cmp	r0, #255	; 0xff
    99a8:	e0833002 	add	r3, r3, r2
    99ac:	e5c43000 	strb	r3, [r4]
    99b0:	03a03000 	moveq	r3, #0	; 0x0
    99b4:	05cc3000 	streqb	r3, [ip]
    99b8:	e5d61002 	ldrb	r1, [r6, #2]
    99bc:	01a00003 	moveq	r0, r3
    99c0:	e0813002 	add	r3, r1, r2
    99c4:	e2802001 	add	r2, r0, #1	; 0x1
    99c8:	e5cc2000 	strb	r2, [ip]
    99cc:	e5ce3000 	strb	r3, [lr]
    99d0:	e7c51000 	strb	r1, [r5, r0]
    99d4:	e5de2000 	ldrb	r2, [lr]
    99d8:	e5dc0000 	ldrb	r0, [ip]
    99dc:	e5d43000 	ldrb	r3, [r4]
    99e0:	e35000ff 	cmp	r0, #255	; 0xff
    99e4:	e0833002 	add	r3, r3, r2
    99e8:	e5c43000 	strb	r3, [r4]
    99ec:	03a03000 	moveq	r3, #0	; 0x0
    99f0:	05cc3000 	streqb	r3, [ip]
    99f4:	e5d61003 	ldrb	r1, [r6, #3]
    99f8:	01a00003 	moveq	r0, r3
    99fc:	e0813002 	add	r3, r1, r2
    9a00:	e2802001 	add	r2, r0, #1	; 0x1
    9a04:	e5cc2000 	strb	r2, [ip]
    9a08:	e5ce3000 	strb	r3, [lr]
    9a0c:	e7c51000 	strb	r1, [r5, r0]
    9a10:	e5de2000 	ldrb	r2, [lr]
    9a14:	e5dc0000 	ldrb	r0, [ip]
    9a18:	e5d43000 	ldrb	r3, [r4]
    9a1c:	e35000ff 	cmp	r0, #255	; 0xff
    9a20:	e0833002 	add	r3, r3, r2
    9a24:	e5c43000 	strb	r3, [r4]
    9a28:	03a03000 	moveq	r3, #0	; 0x0
    9a2c:	05cc3000 	streqb	r3, [ip]
    9a30:	e59f61c0 	ldr	r6, [pc, #448]	; 9bf8 <.text+0x1bf8>
    9a34:	e5d61000 	ldrb	r1, [r6]
    9a38:	01a00003 	moveq	r0, r3
    9a3c:	e0813002 	add	r3, r1, r2
    9a40:	e2802001 	add	r2, r0, #1	; 0x1
    9a44:	e5cc2000 	strb	r2, [ip]
    9a48:	e5ce3000 	strb	r3, [lr]
    9a4c:	e7c51000 	strb	r1, [r5, r0]
    9a50:	e5de2000 	ldrb	r2, [lr]
    9a54:	e5dc0000 	ldrb	r0, [ip]
    9a58:	e5d43000 	ldrb	r3, [r4]
    9a5c:	e35000ff 	cmp	r0, #255	; 0xff
    9a60:	e0833002 	add	r3, r3, r2
    9a64:	e5c43000 	strb	r3, [r4]
    9a68:	03a03000 	moveq	r3, #0	; 0x0
    9a6c:	05cc3000 	streqb	r3, [ip]
    9a70:	e5d61001 	ldrb	r1, [r6, #1]
    9a74:	01a00003 	moveq	r0, r3
    9a78:	e0813002 	add	r3, r1, r2
    9a7c:	e2802001 	add	r2, r0, #1	; 0x1
    9a80:	e5ce3000 	strb	r3, [lr]
    9a84:	e5cc2000 	strb	r2, [ip]
    9a88:	e7c51000 	strb	r1, [r5, r0]
    9a8c:	e5de2000 	ldrb	r2, [lr]
    9a90:	e5dc0000 	ldrb	r0, [ip]
    9a94:	e5d43000 	ldrb	r3, [r4]
    9a98:	e35000ff 	cmp	r0, #255	; 0xff
    9a9c:	e0833002 	add	r3, r3, r2
    9aa0:	e5c43000 	strb	r3, [r4]
    9aa4:	03a03000 	moveq	r3, #0	; 0x0
    9aa8:	05cc3000 	streqb	r3, [ip]
    9aac:	e5d61002 	ldrb	r1, [r6, #2]
    9ab0:	01a00003 	moveq	r0, r3
    9ab4:	e0813002 	add	r3, r1, r2
    9ab8:	e2802001 	add	r2, r0, #1	; 0x1
    9abc:	e5cc2000 	strb	r2, [ip]
    9ac0:	e5ce3000 	strb	r3, [lr]
    9ac4:	e7c51000 	strb	r1, [r5, r0]
    9ac8:	e5de2000 	ldrb	r2, [lr]
    9acc:	e5dc0000 	ldrb	r0, [ip]
    9ad0:	e5d43000 	ldrb	r3, [r4]
    9ad4:	e35000ff 	cmp	r0, #255	; 0xff
    9ad8:	e0833002 	add	r3, r3, r2
    9adc:	e5c43000 	strb	r3, [r4]
    9ae0:	03a03000 	moveq	r3, #0	; 0x0
    9ae4:	05cc3000 	streqb	r3, [ip]
    9ae8:	e5d61003 	ldrb	r1, [r6, #3]
    9aec:	01a00003 	moveq	r0, r3
    9af0:	e0813002 	add	r3, r1, r2
    9af4:	e2802001 	add	r2, r0, #1	; 0x1
    9af8:	e5cc2000 	strb	r2, [ip]
    9afc:	e5ce3000 	strb	r3, [lr]
    9b00:	e7c51000 	strb	r1, [r5, r0]
    9b04:	e5d43000 	ldrb	r3, [r4]
    9b08:	e5dc0000 	ldrb	r0, [ip]
    9b0c:	e5de1000 	ldrb	r1, [lr]
    9b10:	e35000ff 	cmp	r0, #255	; 0xff
    9b14:	e0833001 	add	r3, r3, r1
    9b18:	e5c43000 	strb	r3, [r4]
    9b1c:	03a03000 	moveq	r3, #0	; 0x0
    9b20:	01a00003 	moveq	r0, r3
    9b24:	05cc3000 	streqb	r3, [ip]
    9b28:	e2803001 	add	r3, r0, #1	; 0x1
    9b2c:	e5cc3000 	strb	r3, [ip]
    9b30:	e7c51000 	strb	r1, [r5, r0]
    9b34:	e5dc0000 	ldrb	r0, [ip]
    9b38:	e35000ff 	cmp	r0, #255	; 0xff
    9b3c:	03a03000 	moveq	r3, #0	; 0x0
    9b40:	01a00003 	moveq	r0, r3
    9b44:	05cc3000 	streqb	r3, [ip]
    9b48:	e2803001 	add	r3, r0, #1	; 0x1
    9b4c:	e5cc3000 	strb	r3, [ip]
    9b50:	e5dc2000 	ldrb	r2, [ip]
    9b54:	e5d43000 	ldrb	r3, [r4]
    9b58:	e35200ff 	cmp	r2, #255	; 0xff
    9b5c:	e7c53000 	strb	r3, [r5, r0]
    9b60:	03a03000 	moveq	r3, #0	; 0x0
    9b64:	05cc3000 	streqb	r3, [ip]
    9b68:	e3a0c059 	mov	ip, #89	; 0x59
    9b6c:	e5dc3000 	ldrb	r3, [ip]
    9b70:	e1a03223 	mov	r3, r3, lsr #4
    9b74:	e213e001 	ands	lr, r3, #1	; 0x1
    9b78:	18bd80f0 	ldmneia	sp!, {r4, r5, r6, r7, pc}
    9b7c:	e5d70000 	ldrb	r0, [r7]
    9b80:	e5d73000 	ldrb	r3, [r7]
    9b84:	e2833001 	add	r3, r3, #1	; 0x1
    9b88:	e5c73000 	strb	r3, [r7]
    9b8c:	e5d72000 	ldrb	r2, [r7]
    9b90:	e7d51000 	ldrb	r1, [r5, r0]
    9b94:	e35200ff 	cmp	r2, #255	; 0xff
    9b98:	e59f305c 	ldr	r3, [pc, #92]	; 9bfc <.text+0x1bfc>
    9b9c:	e59f205c 	ldr	r2, [pc, #92]	; 9c00 <.text+0x1c00>
    9ba0:	e5c31000 	strb	r1, [r3]
    9ba4:	e5c2e000 	strb	lr, [r2]
    9ba8:	05c7e000 	streqb	lr, [r7]
    9bac:	e3a03058 	mov	r3, #88	; 0x58
    9bb0:	e5d32000 	ldrb	r2, [r3]
    9bb4:	e3822001 	orr	r2, r2, #1	; 0x1
    9bb8:	e5c32000 	strb	r2, [r3]
    9bbc:	e5dc1000 	ldrb	r1, [ip]
    9bc0:	e3811010 	orr	r1, r1, #16	; 0x10
    9bc4:	e5cc1000 	strb	r1, [ip]
    9bc8:	e8bd80f0 	ldmia	sp!, {r4, r5, r6, r7, pc}
    9bcc:	00013501 	andeq	r3, r1, r1, lsl #10
    9bd0:	000135b6 	streqh	r3, [r1], -r6
    9bd4:	cccccccd 	stcgtl	12, cr12, [ip], {205}
    9bd8:	000139d0 	ldreqd	r3, [r1], -r0
    9bdc:	000139f6 	streqd	r3, [r1], -r6
    9be0:	000139f5 	streqd	r3, [r1], -r5
    9be4:	000139f3 	streqd	r3, [r1], -r3
    9be8:	000139f8 	streqd	r3, [r1], -r8
    9bec:	00013af7 	streqd	r3, [r1], -r7
    9bf0:	000139f2 	streqd	r3, [r1], -r2
    9bf4:	000139ec 	andeq	r3, r1, ip, ror #19
    9bf8:	000139e8 	andeq	r3, r1, r8, ror #19
    9bfc:	000139f4 	streqd	r3, [r1], -r4
    9c00:	000139f7 	streqd	r3, [r1], -r7

00009c04 <send_desired>:
    9c04:	e92d40f0 	stmdb	sp!, {r4, r5, r6, r7, lr}
    9c08:	e59f3630 	ldr	r3, [pc, #1584]	; a240 <.text+0x2240>
    9c0c:	e5d32000 	ldrb	r2, [r3]
    9c10:	e3520000 	cmp	r2, #0	; 0x0
    9c14:	18bd80f0 	ldmneia	sp!, {r4, r5, r6, r7, pc}
    9c18:	e59f3624 	ldr	r3, [pc, #1572]	; a244 <.text+0x2244>
    9c1c:	e59f1624 	ldr	r1, [pc, #1572]	; a248 <.text+0x2248>
    9c20:	e5d32000 	ldrb	r2, [r3]
    9c24:	e0830291 	umull	r0, r3, r1, r2
    9c28:	e1a031a3 	mov	r3, r3, lsr #3
    9c2c:	e0833103 	add	r3, r3, r3, lsl #2
    9c30:	e0422083 	sub	r2, r2, r3, lsl #1
    9c34:	e20220ff 	and	r2, r2, #255	; 0xff
    9c38:	e3520003 	cmp	r2, #3	; 0x3
    9c3c:	18bd80f0 	ldmneia	sp!, {r4, r5, r6, r7, pc}
    9c40:	e59f7604 	ldr	r7, [pc, #1540]	; a24c <.text+0x224c>
    9c44:	e59f1604 	ldr	r1, [pc, #1540]	; a250 <.text+0x2250>
    9c48:	e5d73000 	ldrb	r3, [r7]
    9c4c:	e5d12000 	ldrb	r2, [r1]
    9c50:	e1520003 	cmp	r2, r3
    9c54:	25d73000 	ldrcsb	r3, [r7]
    9c58:	35d73000 	ldrccb	r3, [r7]
    9c5c:	20633002 	rsbcs	r3, r3, r2
    9c60:	30623003 	rsbcc	r3, r2, r3
    9c64:	226330ff 	rsbcs	r3, r3, #255	; 0xff
    9c68:	e3530018 	cmp	r3, #24	; 0x18
    9c6c:	d59f25e0 	ldrle	r2, [pc, #1504]	; a254 <.text+0x2254>
    9c70:	d5d23000 	ldrleb	r3, [r2]
    9c74:	d2833001 	addle	r3, r3, #1	; 0x1
    9c78:	d5c23000 	strleb	r3, [r2]
    9c7c:	d8bd80f0 	ldmleia	sp!, {r4, r5, r6, r7, pc}
    9c80:	e5d13000 	ldrb	r3, [r1]
    9c84:	e2832001 	add	r2, r3, #1	; 0x1
    9c88:	e5c12000 	strb	r2, [r1]
    9c8c:	e5d10000 	ldrb	r0, [r1]
    9c90:	e59f55c0 	ldr	r5, [pc, #1472]	; a258 <.text+0x2258>
    9c94:	e35000ff 	cmp	r0, #255	; 0xff
    9c98:	e3a02005 	mov	r2, #5	; 0x5
    9c9c:	e7c52003 	strb	r2, [r5, r3]
    9ca0:	03a03000 	moveq	r3, #0	; 0x0
    9ca4:	e59fc5a4 	ldr	ip, [pc, #1444]	; a250 <.text+0x2250>
    9ca8:	01a00003 	moveq	r0, r3
    9cac:	05c13000 	streqb	r3, [r1]
    9cb0:	e2803001 	add	r3, r0, #1	; 0x1
    9cb4:	e5cc3000 	strb	r3, [ip]
    9cb8:	e3a02012 	mov	r2, #18	; 0x12
    9cbc:	e7c52000 	strb	r2, [r5, r0]
    9cc0:	e5dc0000 	ldrb	r0, [ip]
    9cc4:	e35000ff 	cmp	r0, #255	; 0xff
    9cc8:	03a03000 	moveq	r3, #0	; 0x0
    9ccc:	05cc3000 	streqb	r3, [ip]
    9cd0:	e59f6584 	ldr	r6, [pc, #1412]	; a25c <.text+0x225c>
    9cd4:	e5d61000 	ldrb	r1, [r6]
    9cd8:	e59fe580 	ldr	lr, [pc, #1408]	; a260 <.text+0x2260>
    9cdc:	01a00003 	moveq	r0, r3
    9ce0:	e2802001 	add	r2, r0, #1	; 0x1
    9ce4:	e2813012 	add	r3, r1, #18	; 0x12
    9ce8:	e5cc2000 	strb	r2, [ip]
    9cec:	e5ce3000 	strb	r3, [lr]
    9cf0:	e7c51000 	strb	r1, [r5, r0]
    9cf4:	e5de2000 	ldrb	r2, [lr]
    9cf8:	e5dc0000 	ldrb	r0, [ip]
    9cfc:	e59f4560 	ldr	r4, [pc, #1376]	; a264 <.text+0x2264>
    9d00:	e2823012 	add	r3, r2, #18	; 0x12
    9d04:	e35000ff 	cmp	r0, #255	; 0xff
    9d08:	e5c43000 	strb	r3, [r4]
    9d0c:	03a03000 	moveq	r3, #0	; 0x0
    9d10:	05cc3000 	streqb	r3, [ip]
    9d14:	e5d61001 	ldrb	r1, [r6, #1]
    9d18:	01a00003 	moveq	r0, r3
    9d1c:	e0813002 	add	r3, r1, r2
    9d20:	e2802001 	add	r2, r0, #1	; 0x1
    9d24:	e5cc2000 	strb	r2, [ip]
    9d28:	e5ce3000 	strb	r3, [lr]
    9d2c:	e7c51000 	strb	r1, [r5, r0]
    9d30:	e5de2000 	ldrb	r2, [lr]
    9d34:	e5dc0000 	ldrb	r0, [ip]
    9d38:	e5d43000 	ldrb	r3, [r4]
    9d3c:	e35000ff 	cmp	r0, #255	; 0xff
    9d40:	e0833002 	add	r3, r3, r2
    9d44:	e5c43000 	strb	r3, [r4]
    9d48:	03a03000 	moveq	r3, #0	; 0x0
    9d4c:	05cc3000 	streqb	r3, [ip]
    9d50:	e5d61002 	ldrb	r1, [r6, #2]
    9d54:	01a00003 	moveq	r0, r3
    9d58:	e0813002 	add	r3, r1, r2
    9d5c:	e2802001 	add	r2, r0, #1	; 0x1
    9d60:	e5ce3000 	strb	r3, [lr]
    9d64:	e5cc2000 	strb	r2, [ip]
    9d68:	e7c51000 	strb	r1, [r5, r0]
    9d6c:	e5de2000 	ldrb	r2, [lr]
    9d70:	e5dc0000 	ldrb	r0, [ip]
    9d74:	e5d43000 	ldrb	r3, [r4]
    9d78:	e35000ff 	cmp	r0, #255	; 0xff
    9d7c:	e0833002 	add	r3, r3, r2
    9d80:	e5c43000 	strb	r3, [r4]
    9d84:	03a03000 	moveq	r3, #0	; 0x0
    9d88:	05cc3000 	streqb	r3, [ip]
    9d8c:	e5d61003 	ldrb	r1, [r6, #3]
    9d90:	01a00003 	moveq	r0, r3
    9d94:	e0813002 	add	r3, r1, r2
    9d98:	e2802001 	add	r2, r0, #1	; 0x1
    9d9c:	e5cc2000 	strb	r2, [ip]
    9da0:	e5ce3000 	strb	r3, [lr]
    9da4:	e7c51000 	strb	r1, [r5, r0]
    9da8:	e5de2000 	ldrb	r2, [lr]
    9dac:	e5dc0000 	ldrb	r0, [ip]
    9db0:	e5d43000 	ldrb	r3, [r4]
    9db4:	e35000ff 	cmp	r0, #255	; 0xff
    9db8:	e0833002 	add	r3, r3, r2
    9dbc:	e5c43000 	strb	r3, [r4]
    9dc0:	03a03000 	moveq	r3, #0	; 0x0
    9dc4:	05cc3000 	streqb	r3, [ip]
    9dc8:	e59f6498 	ldr	r6, [pc, #1176]	; a268 <.text+0x2268>
    9dcc:	e5d61000 	ldrb	r1, [r6]
    9dd0:	01a00003 	moveq	r0, r3
    9dd4:	e0813002 	add	r3, r1, r2
    9dd8:	e2802001 	add	r2, r0, #1	; 0x1
    9ddc:	e5cc2000 	strb	r2, [ip]
    9de0:	e5ce3000 	strb	r3, [lr]
    9de4:	e7c51000 	strb	r1, [r5, r0]
    9de8:	e5de2000 	ldrb	r2, [lr]
    9dec:	e5dc0000 	ldrb	r0, [ip]
    9df0:	e5d43000 	ldrb	r3, [r4]
    9df4:	e35000ff 	cmp	r0, #255	; 0xff
    9df8:	e0833002 	add	r3, r3, r2
    9dfc:	e5c43000 	strb	r3, [r4]
    9e00:	03a03000 	moveq	r3, #0	; 0x0
    9e04:	05cc3000 	streqb	r3, [ip]
    9e08:	e5d61001 	ldrb	r1, [r6, #1]
    9e0c:	01a00003 	moveq	r0, r3
    9e10:	e0813002 	add	r3, r1, r2
    9e14:	e2802001 	add	r2, r0, #1	; 0x1
    9e18:	e5cc2000 	strb	r2, [ip]
    9e1c:	e5ce3000 	strb	r3, [lr]
    9e20:	e7c51000 	strb	r1, [r5, r0]
    9e24:	e5de2000 	ldrb	r2, [lr]
    9e28:	e5dc0000 	ldrb	r0, [ip]
    9e2c:	e5d43000 	ldrb	r3, [r4]
    9e30:	e35000ff 	cmp	r0, #255	; 0xff
    9e34:	e0833002 	add	r3, r3, r2
    9e38:	e5c43000 	strb	r3, [r4]
    9e3c:	03a03000 	moveq	r3, #0	; 0x0
    9e40:	05cc3000 	streqb	r3, [ip]
    9e44:	e5d61002 	ldrb	r1, [r6, #2]
    9e48:	01a00003 	moveq	r0, r3
    9e4c:	e0813002 	add	r3, r1, r2
    9e50:	e2802001 	add	r2, r0, #1	; 0x1
    9e54:	e5ce3000 	strb	r3, [lr]
    9e58:	e5cc2000 	strb	r2, [ip]
    9e5c:	e7c51000 	strb	r1, [r5, r0]
    9e60:	e5de2000 	ldrb	r2, [lr]
    9e64:	e5dc0000 	ldrb	r0, [ip]
    9e68:	e5d43000 	ldrb	r3, [r4]
    9e6c:	e35000ff 	cmp	r0, #255	; 0xff
    9e70:	e0833002 	add	r3, r3, r2
    9e74:	e5c43000 	strb	r3, [r4]
    9e78:	03a03000 	moveq	r3, #0	; 0x0
    9e7c:	05cc3000 	streqb	r3, [ip]
    9e80:	e5d61003 	ldrb	r1, [r6, #3]
    9e84:	01a00003 	moveq	r0, r3
    9e88:	e0813002 	add	r3, r1, r2
    9e8c:	e2802001 	add	r2, r0, #1	; 0x1
    9e90:	e5cc2000 	strb	r2, [ip]
    9e94:	e5ce3000 	strb	r3, [lr]
    9e98:	e7c51000 	strb	r1, [r5, r0]
    9e9c:	e5de2000 	ldrb	r2, [lr]
    9ea0:	e5dc0000 	ldrb	r0, [ip]
    9ea4:	e5d43000 	ldrb	r3, [r4]
    9ea8:	e35000ff 	cmp	r0, #255	; 0xff
    9eac:	e0833002 	add	r3, r3, r2
    9eb0:	e5c43000 	strb	r3, [r4]
    9eb4:	03a03000 	moveq	r3, #0	; 0x0
    9eb8:	05cc3000 	streqb	r3, [ip]
    9ebc:	e59f63a8 	ldr	r6, [pc, #936]	; a26c <.text+0x226c>
    9ec0:	e5d61000 	ldrb	r1, [r6]
    9ec4:	01a00003 	moveq	r0, r3
    9ec8:	e0813002 	add	r3, r1, r2
    9ecc:	e2802001 	add	r2, r0, #1	; 0x1
    9ed0:	e5cc2000 	strb	r2, [ip]
    9ed4:	e5ce3000 	strb	r3, [lr]
    9ed8:	e7c51000 	strb	r1, [r5, r0]
    9edc:	e5de2000 	ldrb	r2, [lr]
    9ee0:	e5dc0000 	ldrb	r0, [ip]
    9ee4:	e5d43000 	ldrb	r3, [r4]
    9ee8:	e35000ff 	cmp	r0, #255	; 0xff
    9eec:	e0833002 	add	r3, r3, r2
    9ef0:	e5c43000 	strb	r3, [r4]
    9ef4:	03a03000 	moveq	r3, #0	; 0x0
    9ef8:	05cc3000 	streqb	r3, [ip]
    9efc:	e5d61001 	ldrb	r1, [r6, #1]
    9f00:	01a00003 	moveq	r0, r3
    9f04:	e0813002 	add	r3, r1, r2
    9f08:	e2802001 	add	r2, r0, #1	; 0x1
    9f0c:	e5cc2000 	strb	r2, [ip]
    9f10:	e5ce3000 	strb	r3, [lr]
    9f14:	e7c51000 	strb	r1, [r5, r0]
    9f18:	e5de2000 	ldrb	r2, [lr]
    9f1c:	e5dc0000 	ldrb	r0, [ip]
    9f20:	e5d43000 	ldrb	r3, [r4]
    9f24:	e35000ff 	cmp	r0, #255	; 0xff
    9f28:	e0833002 	add	r3, r3, r2
    9f2c:	e5c43000 	strb	r3, [r4]
    9f30:	03a03000 	moveq	r3, #0	; 0x0
    9f34:	05cc3000 	streqb	r3, [ip]
    9f38:	e5d61002 	ldrb	r1, [r6, #2]
    9f3c:	01a00003 	moveq	r0, r3
    9f40:	e0813002 	add	r3, r1, r2
    9f44:	e2802001 	add	r2, r0, #1	; 0x1
    9f48:	e5ce3000 	strb	r3, [lr]
    9f4c:	e5cc2000 	strb	r2, [ip]
    9f50:	e7c51000 	strb	r1, [r5, r0]
    9f54:	e5de2000 	ldrb	r2, [lr]
    9f58:	e5dc0000 	ldrb	r0, [ip]
    9f5c:	e5d43000 	ldrb	r3, [r4]
    9f60:	e35000ff 	cmp	r0, #255	; 0xff
    9f64:	e0833002 	add	r3, r3, r2
    9f68:	e5c43000 	strb	r3, [r4]
    9f6c:	03a03000 	moveq	r3, #0	; 0x0
    9f70:	05cc3000 	streqb	r3, [ip]
    9f74:	e5d61003 	ldrb	r1, [r6, #3]
    9f78:	01a00003 	moveq	r0, r3
    9f7c:	e0813002 	add	r3, r1, r2
    9f80:	e2802001 	add	r2, r0, #1	; 0x1
    9f84:	e5cc2000 	strb	r2, [ip]
    9f88:	e5ce3000 	strb	r3, [lr]
    9f8c:	e7c51000 	strb	r1, [r5, r0]
    9f90:	e5de2000 	ldrb	r2, [lr]
    9f94:	e5dc0000 	ldrb	r0, [ip]
    9f98:	e5d43000 	ldrb	r3, [r4]
    9f9c:	e35000ff 	cmp	r0, #255	; 0xff
    9fa0:	e0833002 	add	r3, r3, r2
    9fa4:	e5c43000 	strb	r3, [r4]
    9fa8:	03a03000 	moveq	r3, #0	; 0x0
    9fac:	05cc3000 	streqb	r3, [ip]
    9fb0:	e59f62b8 	ldr	r6, [pc, #696]	; a270 <.text+0x2270>
    9fb4:	e5d61000 	ldrb	r1, [r6]
    9fb8:	01a00003 	moveq	r0, r3
    9fbc:	e0813002 	add	r3, r1, r2
    9fc0:	e2802001 	add	r2, r0, #1	; 0x1
    9fc4:	e5cc2000 	strb	r2, [ip]
    9fc8:	e5ce3000 	strb	r3, [lr]
    9fcc:	e7c51000 	strb	r1, [r5, r0]
    9fd0:	e5de2000 	ldrb	r2, [lr]
    9fd4:	e5dc0000 	ldrb	r0, [ip]
    9fd8:	e5d43000 	ldrb	r3, [r4]
    9fdc:	e35000ff 	cmp	r0, #255	; 0xff
    9fe0:	e0833002 	add	r3, r3, r2
    9fe4:	e5c43000 	strb	r3, [r4]
    9fe8:	03a03000 	moveq	r3, #0	; 0x0
    9fec:	05cc3000 	streqb	r3, [ip]
    9ff0:	e5d61001 	ldrb	r1, [r6, #1]
    9ff4:	01a00003 	moveq	r0, r3
    9ff8:	e0813002 	add	r3, r1, r2
    9ffc:	e2802001 	add	r2, r0, #1	; 0x1
    a000:	e5cc2000 	strb	r2, [ip]
    a004:	e5ce3000 	strb	r3, [lr]
    a008:	e7c51000 	strb	r1, [r5, r0]
    a00c:	e5de2000 	ldrb	r2, [lr]
    a010:	e5dc0000 	ldrb	r0, [ip]
    a014:	e5d43000 	ldrb	r3, [r4]
    a018:	e35000ff 	cmp	r0, #255	; 0xff
    a01c:	e0833002 	add	r3, r3, r2
    a020:	e5c43000 	strb	r3, [r4]
    a024:	03a03000 	moveq	r3, #0	; 0x0
    a028:	05cc3000 	streqb	r3, [ip]
    a02c:	e5d61002 	ldrb	r1, [r6, #2]
    a030:	01a00003 	moveq	r0, r3
    a034:	e0813002 	add	r3, r1, r2
    a038:	e2802001 	add	r2, r0, #1	; 0x1
    a03c:	e5ce3000 	strb	r3, [lr]
    a040:	e5cc2000 	strb	r2, [ip]
    a044:	e7c51000 	strb	r1, [r5, r0]
    a048:	e5de2000 	ldrb	r2, [lr]
    a04c:	e5dc0000 	ldrb	r0, [ip]
    a050:	e5d43000 	ldrb	r3, [r4]
    a054:	e35000ff 	cmp	r0, #255	; 0xff
    a058:	e0833002 	add	r3, r3, r2
    a05c:	e5c43000 	strb	r3, [r4]
    a060:	03a03000 	moveq	r3, #0	; 0x0
    a064:	05cc3000 	streqb	r3, [ip]
    a068:	e5d61003 	ldrb	r1, [r6, #3]
    a06c:	01a00003 	moveq	r0, r3
    a070:	e0813002 	add	r3, r1, r2
    a074:	e2802001 	add	r2, r0, #1	; 0x1
    a078:	e5cc2000 	strb	r2, [ip]
    a07c:	e5ce3000 	strb	r3, [lr]
    a080:	e7c51000 	strb	r1, [r5, r0]
    a084:	e5de2000 	ldrb	r2, [lr]
    a088:	e5dc0000 	ldrb	r0, [ip]
    a08c:	e5d43000 	ldrb	r3, [r4]
    a090:	e35000ff 	cmp	r0, #255	; 0xff
    a094:	e0833002 	add	r3, r3, r2
    a098:	e5c43000 	strb	r3, [r4]
    a09c:	03a03000 	moveq	r3, #0	; 0x0
    a0a0:	05cc3000 	streqb	r3, [ip]
    a0a4:	e59f61c8 	ldr	r6, [pc, #456]	; a274 <.text+0x2274>
    a0a8:	e5d61000 	ldrb	r1, [r6]
    a0ac:	01a00003 	moveq	r0, r3
    a0b0:	e0813002 	add	r3, r1, r2
    a0b4:	e2802001 	add	r2, r0, #1	; 0x1
    a0b8:	e5cc2000 	strb	r2, [ip]
    a0bc:	e5ce3000 	strb	r3, [lr]
    a0c0:	e7c51000 	strb	r1, [r5, r0]
    a0c4:	e5de2000 	ldrb	r2, [lr]
    a0c8:	e5dc0000 	ldrb	r0, [ip]
    a0cc:	e5d43000 	ldrb	r3, [r4]
    a0d0:	e35000ff 	cmp	r0, #255	; 0xff
    a0d4:	e0833002 	add	r3, r3, r2
    a0d8:	e5c43000 	strb	r3, [r4]
    a0dc:	03a03000 	moveq	r3, #0	; 0x0
    a0e0:	05cc3000 	streqb	r3, [ip]
    a0e4:	e5d61001 	ldrb	r1, [r6, #1]
    a0e8:	01a00003 	moveq	r0, r3
    a0ec:	e0813002 	add	r3, r1, r2
    a0f0:	e2802001 	add	r2, r0, #1	; 0x1
    a0f4:	e5cc2000 	strb	r2, [ip]
    a0f8:	e5ce3000 	strb	r3, [lr]
    a0fc:	e7c51000 	strb	r1, [r5, r0]
    a100:	e5de2000 	ldrb	r2, [lr]
    a104:	e5dc0000 	ldrb	r0, [ip]
    a108:	e5d43000 	ldrb	r3, [r4]
    a10c:	e35000ff 	cmp	r0, #255	; 0xff
    a110:	e0833002 	add	r3, r3, r2
    a114:	e5c43000 	strb	r3, [r4]
    a118:	03a03000 	moveq	r3, #0	; 0x0
    a11c:	05cc3000 	streqb	r3, [ip]
    a120:	e5d61002 	ldrb	r1, [r6, #2]
    a124:	01a00003 	moveq	r0, r3
    a128:	e0813002 	add	r3, r1, r2
    a12c:	e2802001 	add	r2, r0, #1	; 0x1
    a130:	e5ce3000 	strb	r3, [lr]
    a134:	e5cc2000 	strb	r2, [ip]
    a138:	e7c51000 	strb	r1, [r5, r0]
    a13c:	e5de2000 	ldrb	r2, [lr]
    a140:	e5dc0000 	ldrb	r0, [ip]
    a144:	e5d43000 	ldrb	r3, [r4]
    a148:	e35000ff 	cmp	r0, #255	; 0xff
    a14c:	e0833002 	add	r3, r3, r2
    a150:	e5c43000 	strb	r3, [r4]
    a154:	03a03000 	moveq	r3, #0	; 0x0
    a158:	05cc3000 	streqb	r3, [ip]
    a15c:	e5d61003 	ldrb	r1, [r6, #3]
    a160:	01a00003 	moveq	r0, r3
    a164:	e0813002 	add	r3, r1, r2
    a168:	e2802001 	add	r2, r0, #1	; 0x1
    a16c:	e5cc2000 	strb	r2, [ip]
    a170:	e5ce3000 	strb	r3, [lr]
    a174:	e7c51000 	strb	r1, [r5, r0]
    a178:	e5d43000 	ldrb	r3, [r4]
    a17c:	e5dc0000 	ldrb	r0, [ip]
    a180:	e5de1000 	ldrb	r1, [lr]
    a184:	e35000ff 	cmp	r0, #255	; 0xff
    a188:	e0833001 	add	r3, r3, r1
    a18c:	e5c43000 	strb	r3, [r4]
    a190:	03a03000 	moveq	r3, #0	; 0x0
    a194:	01a00003 	moveq	r0, r3
    a198:	05cc3000 	streqb	r3, [ip]
    a19c:	e2803001 	add	r3, r0, #1	; 0x1
    a1a0:	e5cc3000 	strb	r3, [ip]
    a1a4:	e7c51000 	strb	r1, [r5, r0]
    a1a8:	e5dc0000 	ldrb	r0, [ip]
    a1ac:	e35000ff 	cmp	r0, #255	; 0xff
    a1b0:	03a03000 	moveq	r3, #0	; 0x0
    a1b4:	01a00003 	moveq	r0, r3
    a1b8:	05cc3000 	streqb	r3, [ip]
    a1bc:	e2803001 	add	r3, r0, #1	; 0x1
    a1c0:	e5cc3000 	strb	r3, [ip]
    a1c4:	e5dc2000 	ldrb	r2, [ip]
    a1c8:	e5d43000 	ldrb	r3, [r4]
    a1cc:	e35200ff 	cmp	r2, #255	; 0xff
    a1d0:	e7c53000 	strb	r3, [r5, r0]
    a1d4:	03a03000 	moveq	r3, #0	; 0x0
    a1d8:	05cc3000 	streqb	r3, [ip]
    a1dc:	e3a0c059 	mov	ip, #89	; 0x59
    a1e0:	e5dc3000 	ldrb	r3, [ip]
    a1e4:	e1a03223 	mov	r3, r3, lsr #4
    a1e8:	e213e001 	ands	lr, r3, #1	; 0x1
    a1ec:	18bd80f0 	ldmneia	sp!, {r4, r5, r6, r7, pc}
    a1f0:	e5d70000 	ldrb	r0, [r7]
    a1f4:	e5d73000 	ldrb	r3, [r7]
    a1f8:	e2833001 	add	r3, r3, #1	; 0x1
    a1fc:	e5c73000 	strb	r3, [r7]
    a200:	e5d72000 	ldrb	r2, [r7]
    a204:	e7d51000 	ldrb	r1, [r5, r0]
    a208:	e35200ff 	cmp	r2, #255	; 0xff
    a20c:	e59f3064 	ldr	r3, [pc, #100]	; a278 <.text+0x2278>
    a210:	e59f2064 	ldr	r2, [pc, #100]	; a27c <.text+0x227c>
    a214:	e5c31000 	strb	r1, [r3]
    a218:	e5c2e000 	strb	lr, [r2]
    a21c:	05c7e000 	streqb	lr, [r7]
    a220:	e3a03058 	mov	r3, #88	; 0x58
    a224:	e5d32000 	ldrb	r2, [r3]
    a228:	e3822001 	orr	r2, r2, #1	; 0x1
    a22c:	e5c32000 	strb	r2, [r3]
    a230:	e5dc1000 	ldrb	r1, [ip]
    a234:	e3811010 	orr	r1, r1, #16	; 0x10
    a238:	e5cc1000 	strb	r1, [ip]
    a23c:	e8bd80f0 	ldmia	sp!, {r4, r5, r6, r7, pc}
    a240:	00013501 	andeq	r3, r1, r1, lsl #10
    a244:	000135b6 	streqh	r3, [r1], -r6
    a248:	cccccccd 	stcgtl	12, cr12, [ip], {205}
    a24c:	000139f6 	streqd	r3, [r1], -r6
    a250:	000139f5 	streqd	r3, [r1], -r5
    a254:	000139f3 	streqd	r3, [r1], -r3
    a258:	000139f8 	streqd	r3, [r1], -r8
    a25c:	0001378c 	andeq	r3, r1, ip, lsl #15
    a260:	00013af7 	streqd	r3, [r1], -r7
    a264:	000139f2 	streqd	r3, [r1], -r2
    a268:	00013788 	andeq	r3, r1, r8, lsl #15
    a26c:	00013b7c 	andeq	r3, r1, ip, ror fp
    a270:	00013b84 	andeq	r3, r1, r4, lsl #23
    a274:	00013598 	muleq	r1, r8, r5
    a278:	000139f4 	streqd	r3, [r1], -r4
    a27c:	000139f7 	streqd	r3, [r1], -r7

0000a280 <send_bat>:
    a280:	e92d40f0 	stmdb	sp!, {r4, r5, r6, r7, lr}
    a284:	e59f3360 	ldr	r3, [pc, #864]	; a5ec <.text+0x25ec>
    a288:	e5d32000 	ldrb	r2, [r3]
    a28c:	e3520000 	cmp	r2, #0	; 0x0
    a290:	18bd80f0 	ldmneia	sp!, {r4, r5, r6, r7, pc}
    a294:	e59f3354 	ldr	r3, [pc, #852]	; a5f0 <.text+0x25f0>
    a298:	e59f1354 	ldr	r1, [pc, #852]	; a5f4 <.text+0x25f4>
    a29c:	e5d32000 	ldrb	r2, [r3]
    a2a0:	e0830291 	umull	r0, r3, r1, r2
    a2a4:	e1a03223 	mov	r3, r3, lsr #4
    a2a8:	e0833103 	add	r3, r3, r3, lsl #2
    a2ac:	e0422103 	sub	r2, r2, r3, lsl #2
    a2b0:	e20220ff 	and	r2, r2, #255	; 0xff
    a2b4:	e3520008 	cmp	r2, #8	; 0x8
    a2b8:	18bd80f0 	ldmneia	sp!, {r4, r5, r6, r7, pc}
    a2bc:	e59f7334 	ldr	r7, [pc, #820]	; a5f8 <.text+0x25f8>
    a2c0:	e59f1334 	ldr	r1, [pc, #820]	; a5fc <.text+0x25fc>
    a2c4:	e5d73000 	ldrb	r3, [r7]
    a2c8:	e5d12000 	ldrb	r2, [r1]
    a2cc:	e1520003 	cmp	r2, r3
    a2d0:	25d73000 	ldrcsb	r3, [r7]
    a2d4:	35d73000 	ldrccb	r3, [r7]
    a2d8:	20633002 	rsbcs	r3, r3, r2
    a2dc:	30623003 	rsbcc	r3, r2, r3
    a2e0:	226330ff 	rsbcs	r3, r3, #255	; 0xff
    a2e4:	e353000c 	cmp	r3, #12	; 0xc
    a2e8:	d59f2310 	ldrle	r2, [pc, #784]	; a600 <.text+0x2600>
    a2ec:	d5d23000 	ldrleb	r3, [r2]
    a2f0:	d2833001 	addle	r3, r3, #1	; 0x1
    a2f4:	d5c23000 	strleb	r3, [r2]
    a2f8:	d8bd80f0 	ldmleia	sp!, {r4, r5, r6, r7, pc}
    a2fc:	e5d13000 	ldrb	r3, [r1]
    a300:	e2832001 	add	r2, r3, #1	; 0x1
    a304:	e5c12000 	strb	r2, [r1]
    a308:	e5d10000 	ldrb	r0, [r1]
    a30c:	e59f52f0 	ldr	r5, [pc, #752]	; a604 <.text+0x2604>
    a310:	e35000ff 	cmp	r0, #255	; 0xff
    a314:	e3a02005 	mov	r2, #5	; 0x5
    a318:	e7c52003 	strb	r2, [r5, r3]
    a31c:	03a03000 	moveq	r3, #0	; 0x0
    a320:	e59fc2d4 	ldr	ip, [pc, #724]	; a5fc <.text+0x25fc>
    a324:	01a00003 	moveq	r0, r3
    a328:	05c13000 	streqb	r3, [r1]
    a32c:	e2803001 	add	r3, r0, #1	; 0x1
    a330:	e5cc3000 	strb	r3, [ip]
    a334:	e3a0200c 	mov	r2, #12	; 0xc
    a338:	e7c52000 	strb	r2, [r5, r0]
    a33c:	e5dc0000 	ldrb	r0, [ip]
    a340:	e35000ff 	cmp	r0, #255	; 0xff
    a344:	03a03000 	moveq	r3, #0	; 0x0
    a348:	05cc3000 	streqb	r3, [ip]
    a34c:	01a00003 	moveq	r0, r3
    a350:	e59f32b0 	ldr	r3, [pc, #688]	; a608 <.text+0x2608>
    a354:	e5d31000 	ldrb	r1, [r3]
    a358:	e59fe2ac 	ldr	lr, [pc, #684]	; a60c <.text+0x260c>
    a35c:	e2802001 	add	r2, r0, #1	; 0x1
    a360:	e281300c 	add	r3, r1, #12	; 0xc
    a364:	e5cc2000 	strb	r2, [ip]
    a368:	e5ce3000 	strb	r3, [lr]
    a36c:	e7c51000 	strb	r1, [r5, r0]
    a370:	e5de2000 	ldrb	r2, [lr]
    a374:	e5dc0000 	ldrb	r0, [ip]
    a378:	e59f4290 	ldr	r4, [pc, #656]	; a610 <.text+0x2610>
    a37c:	e282300c 	add	r3, r2, #12	; 0xc
    a380:	e35000ff 	cmp	r0, #255	; 0xff
    a384:	e5c43000 	strb	r3, [r4]
    a388:	03a03000 	moveq	r3, #0	; 0x0
    a38c:	05cc3000 	streqb	r3, [ip]
    a390:	e59f627c 	ldr	r6, [pc, #636]	; a614 <.text+0x2614>
    a394:	e5d61000 	ldrb	r1, [r6]
    a398:	01a00003 	moveq	r0, r3
    a39c:	e0813002 	add	r3, r1, r2
    a3a0:	e2802001 	add	r2, r0, #1	; 0x1
    a3a4:	e5cc2000 	strb	r2, [ip]
    a3a8:	e5ce3000 	strb	r3, [lr]
    a3ac:	e7c51000 	strb	r1, [r5, r0]
    a3b0:	e5de2000 	ldrb	r2, [lr]
    a3b4:	e5dc0000 	ldrb	r0, [ip]
    a3b8:	e5d43000 	ldrb	r3, [r4]
    a3bc:	e35000ff 	cmp	r0, #255	; 0xff
    a3c0:	e0833002 	add	r3, r3, r2
    a3c4:	e5c43000 	strb	r3, [r4]
    a3c8:	03a03000 	moveq	r3, #0	; 0x0
    a3cc:	05cc3000 	streqb	r3, [ip]
    a3d0:	e5d61001 	ldrb	r1, [r6, #1]
    a3d4:	01a00003 	moveq	r0, r3
    a3d8:	e0813002 	add	r3, r1, r2
    a3dc:	e2802001 	add	r2, r0, #1	; 0x1
    a3e0:	e5ce3000 	strb	r3, [lr]
    a3e4:	e5cc2000 	strb	r2, [ip]
    a3e8:	e7c51000 	strb	r1, [r5, r0]
    a3ec:	e5de2000 	ldrb	r2, [lr]
    a3f0:	e5dc0000 	ldrb	r0, [ip]
    a3f4:	e5d43000 	ldrb	r3, [r4]
    a3f8:	e35000ff 	cmp	r0, #255	; 0xff
    a3fc:	e0833002 	add	r3, r3, r2
    a400:	e5c43000 	strb	r3, [r4]
    a404:	03a03000 	moveq	r3, #0	; 0x0
    a408:	05cc3000 	streqb	r3, [ip]
    a40c:	01a00003 	moveq	r0, r3
    a410:	e59f3200 	ldr	r3, [pc, #512]	; a618 <.text+0x2618>
    a414:	e5d31000 	ldrb	r1, [r3]
    a418:	e2803001 	add	r3, r0, #1	; 0x1
    a41c:	e0812002 	add	r2, r1, r2
    a420:	e5cc3000 	strb	r3, [ip]
    a424:	e5ce2000 	strb	r2, [lr]
    a428:	e7c51000 	strb	r1, [r5, r0]
    a42c:	e5de2000 	ldrb	r2, [lr]
    a430:	e5dc0000 	ldrb	r0, [ip]
    a434:	e5d43000 	ldrb	r3, [r4]
    a438:	e35000ff 	cmp	r0, #255	; 0xff
    a43c:	e0833002 	add	r3, r3, r2
    a440:	e5c43000 	strb	r3, [r4]
    a444:	03a03000 	moveq	r3, #0	; 0x0
    a448:	05cc3000 	streqb	r3, [ip]
    a44c:	e59f61c8 	ldr	r6, [pc, #456]	; a61c <.text+0x261c>
    a450:	e5d61000 	ldrb	r1, [r6]
    a454:	01a00003 	moveq	r0, r3
    a458:	e0813002 	add	r3, r1, r2
    a45c:	e2802001 	add	r2, r0, #1	; 0x1
    a460:	e5cc2000 	strb	r2, [ip]
    a464:	e5ce3000 	strb	r3, [lr]
    a468:	e7c51000 	strb	r1, [r5, r0]
    a46c:	e5de2000 	ldrb	r2, [lr]
    a470:	e5dc0000 	ldrb	r0, [ip]
    a474:	e5d43000 	ldrb	r3, [r4]
    a478:	e35000ff 	cmp	r0, #255	; 0xff
    a47c:	e0833002 	add	r3, r3, r2
    a480:	e5c43000 	strb	r3, [r4]
    a484:	03a03000 	moveq	r3, #0	; 0x0
    a488:	05cc3000 	streqb	r3, [ip]
    a48c:	e5d61001 	ldrb	r1, [r6, #1]
    a490:	01a00003 	moveq	r0, r3
    a494:	e0813002 	add	r3, r1, r2
    a498:	e2802001 	add	r2, r0, #1	; 0x1
    a49c:	e5cc2000 	strb	r2, [ip]
    a4a0:	e5ce3000 	strb	r3, [lr]
    a4a4:	e7c51000 	strb	r1, [r5, r0]
    a4a8:	e5de2000 	ldrb	r2, [lr]
    a4ac:	e5dc0000 	ldrb	r0, [ip]
    a4b0:	e5d43000 	ldrb	r3, [r4]
    a4b4:	e35000ff 	cmp	r0, #255	; 0xff
    a4b8:	e0833002 	add	r3, r3, r2
    a4bc:	e5c43000 	strb	r3, [r4]
    a4c0:	03a03000 	moveq	r3, #0	; 0x0
    a4c4:	05cc3000 	streqb	r3, [ip]
    a4c8:	e59f6150 	ldr	r6, [pc, #336]	; a620 <.text+0x2620>
    a4cc:	e5d61000 	ldrb	r1, [r6]
    a4d0:	01a00003 	moveq	r0, r3
    a4d4:	e0813002 	add	r3, r1, r2
    a4d8:	e2802001 	add	r2, r0, #1	; 0x1
    a4dc:	e5ce3000 	strb	r3, [lr]
    a4e0:	e5cc2000 	strb	r2, [ip]
    a4e4:	e7c51000 	strb	r1, [r5, r0]
    a4e8:	e5de2000 	ldrb	r2, [lr]
    a4ec:	e5dc0000 	ldrb	r0, [ip]
    a4f0:	e5d43000 	ldrb	r3, [r4]
    a4f4:	e35000ff 	cmp	r0, #255	; 0xff
    a4f8:	e0833002 	add	r3, r3, r2
    a4fc:	e5c43000 	strb	r3, [r4]
    a500:	03a03000 	moveq	r3, #0	; 0x0
    a504:	05cc3000 	streqb	r3, [ip]
    a508:	e5d61001 	ldrb	r1, [r6, #1]
    a50c:	01a00003 	moveq	r0, r3
    a510:	e0813002 	add	r3, r1, r2
    a514:	e2802001 	add	r2, r0, #1	; 0x1
    a518:	e5cc2000 	strb	r2, [ip]
    a51c:	e5ce3000 	strb	r3, [lr]
    a520:	e7c51000 	strb	r1, [r5, r0]
    a524:	e5d43000 	ldrb	r3, [r4]
    a528:	e5dc0000 	ldrb	r0, [ip]
    a52c:	e5de1000 	ldrb	r1, [lr]
    a530:	e35000ff 	cmp	r0, #255	; 0xff
    a534:	e0833001 	add	r3, r3, r1
    a538:	e5c43000 	strb	r3, [r4]
    a53c:	03a03000 	moveq	r3, #0	; 0x0
    a540:	01a00003 	moveq	r0, r3
    a544:	05cc3000 	streqb	r3, [ip]
    a548:	e2803001 	add	r3, r0, #1	; 0x1
    a54c:	e5cc3000 	strb	r3, [ip]
    a550:	e7c51000 	strb	r1, [r5, r0]
    a554:	e5dc0000 	ldrb	r0, [ip]
    a558:	e35000ff 	cmp	r0, #255	; 0xff
    a55c:	03a03000 	moveq	r3, #0	; 0x0
    a560:	01a00003 	moveq	r0, r3
    a564:	05cc3000 	streqb	r3, [ip]
    a568:	e2803001 	add	r3, r0, #1	; 0x1
    a56c:	e5cc3000 	strb	r3, [ip]
    a570:	e5dc2000 	ldrb	r2, [ip]
    a574:	e5d43000 	ldrb	r3, [r4]
    a578:	e35200ff 	cmp	r2, #255	; 0xff
    a57c:	e7c53000 	strb	r3, [r5, r0]
    a580:	03a03000 	moveq	r3, #0	; 0x0
    a584:	05cc3000 	streqb	r3, [ip]
    a588:	e3a0c059 	mov	ip, #89	; 0x59
    a58c:	e5dc3000 	ldrb	r3, [ip]
    a590:	e1a03223 	mov	r3, r3, lsr #4
    a594:	e213e001 	ands	lr, r3, #1	; 0x1
    a598:	18bd80f0 	ldmneia	sp!, {r4, r5, r6, r7, pc}
    a59c:	e5d70000 	ldrb	r0, [r7]
    a5a0:	e5d73000 	ldrb	r3, [r7]
    a5a4:	e2833001 	add	r3, r3, #1	; 0x1
    a5a8:	e5c73000 	strb	r3, [r7]
    a5ac:	e5d72000 	ldrb	r2, [r7]
    a5b0:	e7d51000 	ldrb	r1, [r5, r0]
    a5b4:	e35200ff 	cmp	r2, #255	; 0xff
    a5b8:	e59f3064 	ldr	r3, [pc, #100]	; a624 <.text+0x2624>
    a5bc:	e59f2064 	ldr	r2, [pc, #100]	; a628 <.text+0x2628>
    a5c0:	e5c31000 	strb	r1, [r3]
    a5c4:	e5c2e000 	strb	lr, [r2]
    a5c8:	05c7e000 	streqb	lr, [r7]
    a5cc:	e3a03058 	mov	r3, #88	; 0x58
    a5d0:	e5d32000 	ldrb	r2, [r3]
    a5d4:	e3822001 	orr	r2, r2, #1	; 0x1
    a5d8:	e5c32000 	strb	r2, [r3]
    a5dc:	e5dc1000 	ldrb	r1, [ip]
    a5e0:	e3811010 	orr	r1, r1, #16	; 0x10
    a5e4:	e5cc1000 	strb	r1, [ip]
    a5e8:	e8bd80f0 	ldmia	sp!, {r4, r5, r6, r7, pc}
    a5ec:	00013501 	andeq	r3, r1, r1, lsl #10
    a5f0:	000135b6 	streqh	r3, [r1], -r6
    a5f4:	cccccccd 	stcgtl	12, cr12, [ip], {205}
    a5f8:	000139f6 	streqd	r3, [r1], -r6
    a5fc:	000139f5 	streqd	r3, [r1], -r5
    a600:	000139f3 	streqd	r3, [r1], -r3
    a604:	000139f8 	streqd	r3, [r1], -r8
    a608:	000139f1 	streqd	r3, [r1], -r1
    a60c:	00013af7 	streqd	r3, [r1], -r7
    a610:	000139f2 	streqd	r3, [r1], -r2
    a614:	00013ba8 	andeq	r3, r1, r8, lsr #23
    a618:	000135a8 	andeq	r3, r1, r8, lsr #11
    a61c:	00013ba0 	andeq	r3, r1, r0, lsr #23
    a620:	00013b9e 	muleq	r1, lr, fp
    a624:	000139f4 	streqd	r3, [r1], -r4
    a628:	000139f7 	streqd	r3, [r1], -r7

0000a62c <send_climb>:
    a62c:	e92d41f0 	stmdb	sp!, {r4, r5, r6, r7, r8, lr}
    a630:	e59f34c4 	ldr	r3, [pc, #1220]	; aafc <.text+0x2afc>
    a634:	e5d32000 	ldrb	r2, [r3]
    a638:	e3520000 	cmp	r2, #0	; 0x0
    a63c:	18bd81f0 	ldmneia	sp!, {r4, r5, r6, r7, r8, pc}
    a640:	e59f34b8 	ldr	r3, [pc, #1208]	; ab00 <.text+0x2b00>
    a644:	e59f14b8 	ldr	r1, [pc, #1208]	; ab04 <.text+0x2b04>
    a648:	e5d32000 	ldrb	r2, [r3]
    a64c:	e0830291 	umull	r0, r3, r1, r2
    a650:	e1a03223 	mov	r3, r3, lsr #4
    a654:	e0833103 	add	r3, r3, r3, lsl #2
    a658:	e0422103 	sub	r2, r2, r3, lsl #2
    a65c:	e20220ff 	and	r2, r2, #255	; 0xff
    a660:	e3520012 	cmp	r2, #18	; 0x12
    a664:	18bd81f0 	ldmneia	sp!, {r4, r5, r6, r7, r8, pc}
    a668:	e59f8498 	ldr	r8, [pc, #1176]	; ab08 <.text+0x2b08>
    a66c:	e59f1498 	ldr	r1, [pc, #1176]	; ab0c <.text+0x2b0c>
    a670:	e5d83000 	ldrb	r3, [r8]
    a674:	e5d12000 	ldrb	r2, [r1]
    a678:	e1520003 	cmp	r2, r3
    a67c:	25d83000 	ldrcsb	r3, [r8]
    a680:	35d83000 	ldrccb	r3, [r8]
    a684:	20633002 	rsbcs	r3, r3, r2
    a688:	30623003 	rsbcc	r3, r2, r3
    a68c:	226330ff 	rsbcs	r3, r3, #255	; 0xff
    a690:	e3530012 	cmp	r3, #18	; 0x12
    a694:	d59f2474 	ldrle	r2, [pc, #1140]	; ab10 <.text+0x2b10>
    a698:	d5d23000 	ldrleb	r3, [r2]
    a69c:	d2833001 	addle	r3, r3, #1	; 0x1
    a6a0:	d5c23000 	strleb	r3, [r2]
    a6a4:	d8bd81f0 	ldmleia	sp!, {r4, r5, r6, r7, r8, pc}
    a6a8:	e5d13000 	ldrb	r3, [r1]
    a6ac:	e2832001 	add	r2, r3, #1	; 0x1
    a6b0:	e5c12000 	strb	r2, [r1]
    a6b4:	e5d10000 	ldrb	r0, [r1]
    a6b8:	e59f6454 	ldr	r6, [pc, #1108]	; ab14 <.text+0x2b14>
    a6bc:	e35000ff 	cmp	r0, #255	; 0xff
    a6c0:	e3a02005 	mov	r2, #5	; 0x5
    a6c4:	e7c62003 	strb	r2, [r6, r3]
    a6c8:	03a03000 	moveq	r3, #0	; 0x0
    a6cc:	e59fc438 	ldr	ip, [pc, #1080]	; ab0c <.text+0x2b0c>
    a6d0:	01a00003 	moveq	r0, r3
    a6d4:	05c13000 	streqb	r3, [r1]
    a6d8:	e2803001 	add	r3, r0, #1	; 0x1
    a6dc:	e5cc3000 	strb	r3, [ip]
    a6e0:	e3a0200e 	mov	r2, #14	; 0xe
    a6e4:	e7c62000 	strb	r2, [r6, r0]
    a6e8:	e5dc0000 	ldrb	r0, [ip]
    a6ec:	e35000ff 	cmp	r0, #255	; 0xff
    a6f0:	03a03000 	moveq	r3, #0	; 0x0
    a6f4:	05cc3000 	streqb	r3, [ip]
    a6f8:	e59f7418 	ldr	r7, [pc, #1048]	; ab18 <.text+0x2b18>
    a6fc:	e5d71000 	ldrb	r1, [r7]
    a700:	e59f4414 	ldr	r4, [pc, #1044]	; ab1c <.text+0x2b1c>
    a704:	01a00003 	moveq	r0, r3
    a708:	e2802001 	add	r2, r0, #1	; 0x1
    a70c:	e281300e 	add	r3, r1, #14	; 0xe
    a710:	e5cc2000 	strb	r2, [ip]
    a714:	e5c43000 	strb	r3, [r4]
    a718:	e7c61000 	strb	r1, [r6, r0]
    a71c:	e5d4e000 	ldrb	lr, [r4]
    a720:	e5dc0000 	ldrb	r0, [ip]
    a724:	e59f53f4 	ldr	r5, [pc, #1012]	; ab20 <.text+0x2b20>
    a728:	e28e300e 	add	r3, lr, #14	; 0xe
    a72c:	e35000ff 	cmp	r0, #255	; 0xff
    a730:	e5c53000 	strb	r3, [r5]
    a734:	03a03000 	moveq	r3, #0	; 0x0
    a738:	05cc3000 	streqb	r3, [ip]
    a73c:	e5d71001 	ldrb	r1, [r7, #1]
    a740:	01a00003 	moveq	r0, r3
    a744:	e2802001 	add	r2, r0, #1	; 0x1
    a748:	e081300e 	add	r3, r1, lr
    a74c:	e5cc2000 	strb	r2, [ip]
    a750:	e5c43000 	strb	r3, [r4]
    a754:	e7c61000 	strb	r1, [r6, r0]
    a758:	e5d4e000 	ldrb	lr, [r4]
    a75c:	e5dc0000 	ldrb	r0, [ip]
    a760:	e5d53000 	ldrb	r3, [r5]
    a764:	e35000ff 	cmp	r0, #255	; 0xff
    a768:	e083300e 	add	r3, r3, lr
    a76c:	e5c53000 	strb	r3, [r5]
    a770:	03a03000 	moveq	r3, #0	; 0x0
    a774:	05cc3000 	streqb	r3, [ip]
    a778:	e59f73a4 	ldr	r7, [pc, #932]	; ab24 <.text+0x2b24>
    a77c:	e5d71000 	ldrb	r1, [r7]
    a780:	01a00003 	moveq	r0, r3
    a784:	e2802001 	add	r2, r0, #1	; 0x1
    a788:	e081300e 	add	r3, r1, lr
    a78c:	e5cc2000 	strb	r2, [ip]
    a790:	e5c43000 	strb	r3, [r4]
    a794:	e7c61000 	strb	r1, [r6, r0]
    a798:	e5d4e000 	ldrb	lr, [r4]
    a79c:	e5dc0000 	ldrb	r0, [ip]
    a7a0:	e5d53000 	ldrb	r3, [r5]
    a7a4:	e35000ff 	cmp	r0, #255	; 0xff
    a7a8:	e083300e 	add	r3, r3, lr
    a7ac:	e5c53000 	strb	r3, [r5]
    a7b0:	03a03000 	moveq	r3, #0	; 0x0
    a7b4:	05cc3000 	streqb	r3, [ip]
    a7b8:	e5d71001 	ldrb	r1, [r7, #1]
    a7bc:	01a00003 	moveq	r0, r3
    a7c0:	e2802001 	add	r2, r0, #1	; 0x1
    a7c4:	e081300e 	add	r3, r1, lr
    a7c8:	e5cc2000 	strb	r2, [ip]
    a7cc:	e5c43000 	strb	r3, [r4]
    a7d0:	e7c61000 	strb	r1, [r6, r0]
    a7d4:	e5d4e000 	ldrb	lr, [r4]
    a7d8:	e5dc0000 	ldrb	r0, [ip]
    a7dc:	e5d53000 	ldrb	r3, [r5]
    a7e0:	e35000ff 	cmp	r0, #255	; 0xff
    a7e4:	e083300e 	add	r3, r3, lr
    a7e8:	e5c53000 	strb	r3, [r5]
    a7ec:	03a03000 	moveq	r3, #0	; 0x0
    a7f0:	05cc3000 	streqb	r3, [ip]
    a7f4:	e5d71002 	ldrb	r1, [r7, #2]
    a7f8:	01a00003 	moveq	r0, r3
    a7fc:	e2802001 	add	r2, r0, #1	; 0x1
    a800:	e081300e 	add	r3, r1, lr
    a804:	e5cc2000 	strb	r2, [ip]
    a808:	e5c43000 	strb	r3, [r4]
    a80c:	e7c61000 	strb	r1, [r6, r0]
    a810:	e5d4e000 	ldrb	lr, [r4]
    a814:	e5dc0000 	ldrb	r0, [ip]
    a818:	e5d53000 	ldrb	r3, [r5]
    a81c:	e35000ff 	cmp	r0, #255	; 0xff
    a820:	e083300e 	add	r3, r3, lr
    a824:	e5c53000 	strb	r3, [r5]
    a828:	03a03000 	moveq	r3, #0	; 0x0
    a82c:	05cc3000 	streqb	r3, [ip]
    a830:	e5d71003 	ldrb	r1, [r7, #3]
    a834:	01a00003 	moveq	r0, r3
    a838:	e2802001 	add	r2, r0, #1	; 0x1
    a83c:	e081300e 	add	r3, r1, lr
    a840:	e5cc2000 	strb	r2, [ip]
    a844:	e5c43000 	strb	r3, [r4]
    a848:	e7c61000 	strb	r1, [r6, r0]
    a84c:	e5d4e000 	ldrb	lr, [r4]
    a850:	e5dc0000 	ldrb	r0, [ip]
    a854:	e5d53000 	ldrb	r3, [r5]
    a858:	e35000ff 	cmp	r0, #255	; 0xff
    a85c:	e083300e 	add	r3, r3, lr
    a860:	e5c53000 	strb	r3, [r5]
    a864:	03a03000 	moveq	r3, #0	; 0x0
    a868:	05cc3000 	streqb	r3, [ip]
    a86c:	e59f72b4 	ldr	r7, [pc, #692]	; ab28 <.text+0x2b28>
    a870:	e5d71000 	ldrb	r1, [r7]
    a874:	01a00003 	moveq	r0, r3
    a878:	e2802001 	add	r2, r0, #1	; 0x1
    a87c:	e081300e 	add	r3, r1, lr
    a880:	e5cc2000 	strb	r2, [ip]
    a884:	e5c43000 	strb	r3, [r4]
    a888:	e7c61000 	strb	r1, [r6, r0]
    a88c:	e5d4e000 	ldrb	lr, [r4]
    a890:	e5dc0000 	ldrb	r0, [ip]
    a894:	e5d53000 	ldrb	r3, [r5]
    a898:	e35000ff 	cmp	r0, #255	; 0xff
    a89c:	e083300e 	add	r3, r3, lr
    a8a0:	e5c53000 	strb	r3, [r5]
    a8a4:	03a03000 	moveq	r3, #0	; 0x0
    a8a8:	05cc3000 	streqb	r3, [ip]
    a8ac:	e5d71001 	ldrb	r1, [r7, #1]
    a8b0:	01a00003 	moveq	r0, r3
    a8b4:	e2802001 	add	r2, r0, #1	; 0x1
    a8b8:	e081300e 	add	r3, r1, lr
    a8bc:	e5cc2000 	strb	r2, [ip]
    a8c0:	e5c43000 	strb	r3, [r4]
    a8c4:	e7c61000 	strb	r1, [r6, r0]
    a8c8:	e5d4e000 	ldrb	lr, [r4]
    a8cc:	e5dc0000 	ldrb	r0, [ip]
    a8d0:	e5d53000 	ldrb	r3, [r5]
    a8d4:	e35000ff 	cmp	r0, #255	; 0xff
    a8d8:	e083300e 	add	r3, r3, lr
    a8dc:	e5c53000 	strb	r3, [r5]
    a8e0:	03a03000 	moveq	r3, #0	; 0x0
    a8e4:	05cc3000 	streqb	r3, [ip]
    a8e8:	e5d71002 	ldrb	r1, [r7, #2]
    a8ec:	01a00003 	moveq	r0, r3
    a8f0:	e2802001 	add	r2, r0, #1	; 0x1
    a8f4:	e081300e 	add	r3, r1, lr
    a8f8:	e5cc2000 	strb	r2, [ip]
    a8fc:	e5c43000 	strb	r3, [r4]
    a900:	e7c61000 	strb	r1, [r6, r0]
    a904:	e5d4e000 	ldrb	lr, [r4]
    a908:	e5dc0000 	ldrb	r0, [ip]
    a90c:	e5d53000 	ldrb	r3, [r5]
    a910:	e35000ff 	cmp	r0, #255	; 0xff
    a914:	e083300e 	add	r3, r3, lr
    a918:	e5c53000 	strb	r3, [r5]
    a91c:	03a03000 	moveq	r3, #0	; 0x0
    a920:	05cc3000 	streqb	r3, [ip]
    a924:	e5d71003 	ldrb	r1, [r7, #3]
    a928:	01a00003 	moveq	r0, r3
    a92c:	e2802001 	add	r2, r0, #1	; 0x1
    a930:	e081300e 	add	r3, r1, lr
    a934:	e5cc2000 	strb	r2, [ip]
    a938:	e5c43000 	strb	r3, [r4]
    a93c:	e7c61000 	strb	r1, [r6, r0]
    a940:	e5d4e000 	ldrb	lr, [r4]
    a944:	e5dc0000 	ldrb	r0, [ip]
    a948:	e5d53000 	ldrb	r3, [r5]
    a94c:	e35000ff 	cmp	r0, #255	; 0xff
    a950:	e083300e 	add	r3, r3, lr
    a954:	e5c53000 	strb	r3, [r5]
    a958:	03a03000 	moveq	r3, #0	; 0x0
    a95c:	05cc3000 	streqb	r3, [ip]
    a960:	e59f71c4 	ldr	r7, [pc, #452]	; ab2c <.text+0x2b2c>
    a964:	e5d71000 	ldrb	r1, [r7]
    a968:	01a00003 	moveq	r0, r3
    a96c:	e2802001 	add	r2, r0, #1	; 0x1
    a970:	e081300e 	add	r3, r1, lr
    a974:	e5cc2000 	strb	r2, [ip]
    a978:	e5c43000 	strb	r3, [r4]
    a97c:	e7c61000 	strb	r1, [r6, r0]
    a980:	e5d4e000 	ldrb	lr, [r4]
    a984:	e5dc0000 	ldrb	r0, [ip]
    a988:	e5d53000 	ldrb	r3, [r5]
    a98c:	e35000ff 	cmp	r0, #255	; 0xff
    a990:	e083300e 	add	r3, r3, lr
    a994:	e5c53000 	strb	r3, [r5]
    a998:	03a03000 	moveq	r3, #0	; 0x0
    a99c:	05cc3000 	streqb	r3, [ip]
    a9a0:	e5d71001 	ldrb	r1, [r7, #1]
    a9a4:	01a00003 	moveq	r0, r3
    a9a8:	e2802001 	add	r2, r0, #1	; 0x1
    a9ac:	e081300e 	add	r3, r1, lr
    a9b0:	e5cc2000 	strb	r2, [ip]
    a9b4:	e5c43000 	strb	r3, [r4]
    a9b8:	e7c61000 	strb	r1, [r6, r0]
    a9bc:	e5d4e000 	ldrb	lr, [r4]
    a9c0:	e5dc0000 	ldrb	r0, [ip]
    a9c4:	e5d53000 	ldrb	r3, [r5]
    a9c8:	e35000ff 	cmp	r0, #255	; 0xff
    a9cc:	e083300e 	add	r3, r3, lr
    a9d0:	e5c53000 	strb	r3, [r5]
    a9d4:	03a03000 	moveq	r3, #0	; 0x0
    a9d8:	05cc3000 	streqb	r3, [ip]
    a9dc:	e5d71002 	ldrb	r1, [r7, #2]
    a9e0:	01a00003 	moveq	r0, r3
    a9e4:	e2802001 	add	r2, r0, #1	; 0x1
    a9e8:	e081300e 	add	r3, r1, lr
    a9ec:	e5cc2000 	strb	r2, [ip]
    a9f0:	e5c43000 	strb	r3, [r4]
    a9f4:	e7c61000 	strb	r1, [r6, r0]
    a9f8:	e5d4e000 	ldrb	lr, [r4]
    a9fc:	e5dc0000 	ldrb	r0, [ip]
    aa00:	e5d53000 	ldrb	r3, [r5]
    aa04:	e35000ff 	cmp	r0, #255	; 0xff
    aa08:	e083300e 	add	r3, r3, lr
    aa0c:	e5c53000 	strb	r3, [r5]
    aa10:	03a03000 	moveq	r3, #0	; 0x0
    aa14:	05cc3000 	streqb	r3, [ip]
    aa18:	e5d71003 	ldrb	r1, [r7, #3]
    aa1c:	01a00003 	moveq	r0, r3
    aa20:	e2802001 	add	r2, r0, #1	; 0x1
    aa24:	e081300e 	add	r3, r1, lr
    aa28:	e5cc2000 	strb	r2, [ip]
    aa2c:	e5c43000 	strb	r3, [r4]
    aa30:	e7c61000 	strb	r1, [r6, r0]
    aa34:	e5d53000 	ldrb	r3, [r5]
    aa38:	e5dc0000 	ldrb	r0, [ip]
    aa3c:	e5d41000 	ldrb	r1, [r4]
    aa40:	e35000ff 	cmp	r0, #255	; 0xff
    aa44:	e0833001 	add	r3, r3, r1
    aa48:	e5c53000 	strb	r3, [r5]
    aa4c:	03a03000 	moveq	r3, #0	; 0x0
    aa50:	01a00003 	moveq	r0, r3
    aa54:	05cc3000 	streqb	r3, [ip]
    aa58:	e2803001 	add	r3, r0, #1	; 0x1
    aa5c:	e5cc3000 	strb	r3, [ip]
    aa60:	e7c61000 	strb	r1, [r6, r0]
    aa64:	e5dc0000 	ldrb	r0, [ip]
    aa68:	e35000ff 	cmp	r0, #255	; 0xff
    aa6c:	03a03000 	moveq	r3, #0	; 0x0
    aa70:	01a00003 	moveq	r0, r3
    aa74:	05cc3000 	streqb	r3, [ip]
    aa78:	e2803001 	add	r3, r0, #1	; 0x1
    aa7c:	e5cc3000 	strb	r3, [ip]
    aa80:	e5dc2000 	ldrb	r2, [ip]
    aa84:	e5d53000 	ldrb	r3, [r5]
    aa88:	e35200ff 	cmp	r2, #255	; 0xff
    aa8c:	e7c63000 	strb	r3, [r6, r0]
    aa90:	03a03000 	moveq	r3, #0	; 0x0
    aa94:	05cc3000 	streqb	r3, [ip]
    aa98:	e3a0c059 	mov	ip, #89	; 0x59
    aa9c:	e5dc3000 	ldrb	r3, [ip]
    aaa0:	e1a03223 	mov	r3, r3, lsr #4
    aaa4:	e213e001 	ands	lr, r3, #1	; 0x1
    aaa8:	18bd81f0 	ldmneia	sp!, {r4, r5, r6, r7, r8, pc}
    aaac:	e5d80000 	ldrb	r0, [r8]
    aab0:	e5d83000 	ldrb	r3, [r8]
    aab4:	e2833001 	add	r3, r3, #1	; 0x1
    aab8:	e5c83000 	strb	r3, [r8]
    aabc:	e5d82000 	ldrb	r2, [r8]
    aac0:	e7d61000 	ldrb	r1, [r6, r0]
    aac4:	e35200ff 	cmp	r2, #255	; 0xff
    aac8:	e59f3060 	ldr	r3, [pc, #96]	; ab30 <.text+0x2b30>
    aacc:	e59f2060 	ldr	r2, [pc, #96]	; ab34 <.text+0x2b34>
    aad0:	e5c31000 	strb	r1, [r3]
    aad4:	e5c2e000 	strb	lr, [r2]
    aad8:	05c8e000 	streqb	lr, [r8]
    aadc:	e3a03058 	mov	r3, #88	; 0x58
    aae0:	e5d32000 	ldrb	r2, [r3]
    aae4:	e3822001 	orr	r2, r2, #1	; 0x1
    aae8:	e5c32000 	strb	r2, [r3]
    aaec:	e5dc1000 	ldrb	r1, [ip]
    aaf0:	e3811010 	orr	r1, r1, #16	; 0x10
    aaf4:	e5cc1000 	strb	r1, [ip]
    aaf8:	e8bd81f0 	ldmia	sp!, {r4, r5, r6, r7, r8, pc}
    aafc:	00013501 	andeq	r3, r1, r1, lsl #10
    ab00:	000135b6 	streqh	r3, [r1], -r6
    ab04:	cccccccd 	stcgtl	12, cr12, [ip], {205}
    ab08:	000139f6 	streqd	r3, [r1], -r6
    ab0c:	000139f5 	streqd	r3, [r1], -r5
    ab10:	000139f3 	streqd	r3, [r1], -r3
    ab14:	000139f8 	streqd	r3, [r1], -r8
    ab18:	00013b70 	andeq	r3, r1, r0, ror fp
    ab1c:	00013af7 	streqd	r3, [r1], -r7
    ab20:	000139f2 	streqd	r3, [r1], -r2
    ab24:	00013778 	andeq	r3, r1, r8, ror r7
    ab28:	00013770 	andeq	r3, r1, r0, ror r7
    ab2c:	000133d8 	ldreqd	r3, [r1], -r8
    ab30:	000139f4 	streqd	r3, [r1], -r4
    ab34:	000139f7 	streqd	r3, [r1], -r7

0000ab38 <send_mode>:
    ab38:	e92d4070 	stmdb	sp!, {r4, r5, r6, lr}
    ab3c:	e59f32b0 	ldr	r3, [pc, #688]	; adf4 <.text+0x2df4>
    ab40:	e5d32000 	ldrb	r2, [r3]
    ab44:	e3520000 	cmp	r2, #0	; 0x0
    ab48:	18bd8070 	ldmneia	sp!, {r4, r5, r6, pc}
    ab4c:	e59f32a4 	ldr	r3, [pc, #676]	; adf8 <.text+0x2df8>
    ab50:	e59f22a4 	ldr	r2, [pc, #676]	; adfc <.text+0x2dfc>
    ab54:	e5d31000 	ldrb	r1, [r3]
    ab58:	e0830192 	umull	r0, r3, r2, r1
    ab5c:	e1a03223 	mov	r3, r3, lsr #4
    ab60:	e0833103 	add	r3, r3, r3, lsl #2
    ab64:	e0833103 	add	r3, r3, r3, lsl #2
    ab68:	e0411083 	sub	r1, r1, r3, lsl #1
    ab6c:	e20110ff 	and	r1, r1, #255	; 0xff
    ab70:	e3510009 	cmp	r1, #9	; 0x9
    ab74:	18bd8070 	ldmneia	sp!, {r4, r5, r6, pc}
    ab78:	e59f6280 	ldr	r6, [pc, #640]	; ae00 <.text+0x2e00>
    ab7c:	e59f1280 	ldr	r1, [pc, #640]	; ae04 <.text+0x2e04>
    ab80:	e5d63000 	ldrb	r3, [r6]
    ab84:	e5d12000 	ldrb	r2, [r1]
    ab88:	e1520003 	cmp	r2, r3
    ab8c:	25d63000 	ldrcsb	r3, [r6]
    ab90:	35d63000 	ldrccb	r3, [r6]
    ab94:	20633002 	rsbcs	r3, r3, r2
    ab98:	30623003 	rsbcc	r3, r2, r3
    ab9c:	226330ff 	rsbcs	r3, r3, #255	; 0xff
    aba0:	e3530009 	cmp	r3, #9	; 0x9
    aba4:	d59f225c 	ldrle	r2, [pc, #604]	; ae08 <.text+0x2e08>
    aba8:	d5d23000 	ldrleb	r3, [r2]
    abac:	d2833001 	addle	r3, r3, #1	; 0x1
    abb0:	d5c23000 	strleb	r3, [r2]
    abb4:	d8bd8070 	ldmleia	sp!, {r4, r5, r6, pc}
    abb8:	e5d13000 	ldrb	r3, [r1]
    abbc:	e2832001 	add	r2, r3, #1	; 0x1
    abc0:	e5c12000 	strb	r2, [r1]
    abc4:	e5d10000 	ldrb	r0, [r1]
    abc8:	e59f523c 	ldr	r5, [pc, #572]	; ae0c <.text+0x2e0c>
    abcc:	e35000ff 	cmp	r0, #255	; 0xff
    abd0:	e3a02005 	mov	r2, #5	; 0x5
    abd4:	e7c52003 	strb	r2, [r5, r3]
    abd8:	03a03000 	moveq	r3, #0	; 0x0
    abdc:	e59fc220 	ldr	ip, [pc, #544]	; ae04 <.text+0x2e04>
    abe0:	01a00003 	moveq	r0, r3
    abe4:	05c13000 	streqb	r3, [r1]
    abe8:	e2803001 	add	r3, r0, #1	; 0x1
    abec:	e5cc3000 	strb	r3, [ip]
    abf0:	e3a0200b 	mov	r2, #11	; 0xb
    abf4:	e7c52000 	strb	r2, [r5, r0]
    abf8:	e5dc0000 	ldrb	r0, [ip]
    abfc:	e35000ff 	cmp	r0, #255	; 0xff
    ac00:	03a03000 	moveq	r3, #0	; 0x0
    ac04:	05cc3000 	streqb	r3, [ip]
    ac08:	01a00003 	moveq	r0, r3
    ac0c:	e59f31fc 	ldr	r3, [pc, #508]	; ae10 <.text+0x2e10>
    ac10:	e5d31000 	ldrb	r1, [r3]
    ac14:	e59fe1f8 	ldr	lr, [pc, #504]	; ae14 <.text+0x2e14>
    ac18:	e2802001 	add	r2, r0, #1	; 0x1
    ac1c:	e281300b 	add	r3, r1, #11	; 0xb
    ac20:	e5cc2000 	strb	r2, [ip]
    ac24:	e5ce3000 	strb	r3, [lr]
    ac28:	e7c51000 	strb	r1, [r5, r0]
    ac2c:	e5de2000 	ldrb	r2, [lr]
    ac30:	e5dc0000 	ldrb	r0, [ip]
    ac34:	e59f41dc 	ldr	r4, [pc, #476]	; ae18 <.text+0x2e18>
    ac38:	e282300b 	add	r3, r2, #11	; 0xb
    ac3c:	e35000ff 	cmp	r0, #255	; 0xff
    ac40:	e5c43000 	strb	r3, [r4]
    ac44:	03a03000 	moveq	r3, #0	; 0x0
    ac48:	05cc3000 	streqb	r3, [ip]
    ac4c:	01a00003 	moveq	r0, r3
    ac50:	e59f31c4 	ldr	r3, [pc, #452]	; ae1c <.text+0x2e1c>
    ac54:	e5d31000 	ldrb	r1, [r3]
    ac58:	e2803001 	add	r3, r0, #1	; 0x1
    ac5c:	e0822001 	add	r2, r2, r1
    ac60:	e5cc3000 	strb	r3, [ip]
    ac64:	e5ce2000 	strb	r2, [lr]
    ac68:	e7c51000 	strb	r1, [r5, r0]
    ac6c:	e5de2000 	ldrb	r2, [lr]
    ac70:	e5dc0000 	ldrb	r0, [ip]
    ac74:	e5d43000 	ldrb	r3, [r4]
    ac78:	e35000ff 	cmp	r0, #255	; 0xff
    ac7c:	e0833002 	add	r3, r3, r2
    ac80:	e5c43000 	strb	r3, [r4]
    ac84:	03a03000 	moveq	r3, #0	; 0x0
    ac88:	05cc3000 	streqb	r3, [ip]
    ac8c:	01a00003 	moveq	r0, r3
    ac90:	e59f3188 	ldr	r3, [pc, #392]	; ae20 <.text+0x2e20>
    ac94:	e5d31000 	ldrb	r1, [r3]
    ac98:	e2803001 	add	r3, r0, #1	; 0x1
    ac9c:	e0822001 	add	r2, r2, r1
    aca0:	e5cc3000 	strb	r3, [ip]
    aca4:	e5ce2000 	strb	r2, [lr]
    aca8:	e7c51000 	strb	r1, [r5, r0]
    acac:	e5de2000 	ldrb	r2, [lr]
    acb0:	e5dc0000 	ldrb	r0, [ip]
    acb4:	e5d43000 	ldrb	r3, [r4]
    acb8:	e35000ff 	cmp	r0, #255	; 0xff
    acbc:	e0833002 	add	r3, r3, r2
    acc0:	e5c43000 	strb	r3, [r4]
    acc4:	03a03000 	moveq	r3, #0	; 0x0
    acc8:	05cc3000 	streqb	r3, [ip]
    accc:	01a00003 	moveq	r0, r3
    acd0:	e59f314c 	ldr	r3, [pc, #332]	; ae24 <.text+0x2e24>
    acd4:	e5d31000 	ldrb	r1, [r3]
    acd8:	e2803001 	add	r3, r0, #1	; 0x1
    acdc:	e0822001 	add	r2, r2, r1
    ace0:	e5cc3000 	strb	r3, [ip]
    ace4:	e5ce2000 	strb	r2, [lr]
    ace8:	e7c51000 	strb	r1, [r5, r0]
    acec:	e5de2000 	ldrb	r2, [lr]
    acf0:	e5dc0000 	ldrb	r0, [ip]
    acf4:	e5d43000 	ldrb	r3, [r4]
    acf8:	e35000ff 	cmp	r0, #255	; 0xff
    acfc:	e0833002 	add	r3, r3, r2
    ad00:	e5c43000 	strb	r3, [r4]
    ad04:	03a03000 	moveq	r3, #0	; 0x0
    ad08:	05cc3000 	streqb	r3, [ip]
    ad0c:	01a00003 	moveq	r0, r3
    ad10:	e59f3110 	ldr	r3, [pc, #272]	; ae28 <.text+0x2e28>
    ad14:	e5d31000 	ldrb	r1, [r3]
    ad18:	e2803001 	add	r3, r0, #1	; 0x1
    ad1c:	e0822001 	add	r2, r2, r1
    ad20:	e5cc3000 	strb	r3, [ip]
    ad24:	e5ce2000 	strb	r2, [lr]
    ad28:	e7c51000 	strb	r1, [r5, r0]
    ad2c:	e5d43000 	ldrb	r3, [r4]
    ad30:	e5dc0000 	ldrb	r0, [ip]
    ad34:	e5de1000 	ldrb	r1, [lr]
    ad38:	e35000ff 	cmp	r0, #255	; 0xff
    ad3c:	e0833001 	add	r3, r3, r1
    ad40:	e5c43000 	strb	r3, [r4]
    ad44:	03a03000 	moveq	r3, #0	; 0x0
    ad48:	01a00003 	moveq	r0, r3
    ad4c:	05cc3000 	streqb	r3, [ip]
    ad50:	e2803001 	add	r3, r0, #1	; 0x1
    ad54:	e5cc3000 	strb	r3, [ip]
    ad58:	e7c51000 	strb	r1, [r5, r0]
    ad5c:	e5dc0000 	ldrb	r0, [ip]
    ad60:	e35000ff 	cmp	r0, #255	; 0xff
    ad64:	03a03000 	moveq	r3, #0	; 0x0
    ad68:	01a00003 	moveq	r0, r3
    ad6c:	05cc3000 	streqb	r3, [ip]
    ad70:	e2803001 	add	r3, r0, #1	; 0x1
    ad74:	e5cc3000 	strb	r3, [ip]
    ad78:	e5dc2000 	ldrb	r2, [ip]
    ad7c:	e5d43000 	ldrb	r3, [r4]
    ad80:	e35200ff 	cmp	r2, #255	; 0xff
    ad84:	e7c53000 	strb	r3, [r5, r0]
    ad88:	03a03000 	moveq	r3, #0	; 0x0
    ad8c:	05cc3000 	streqb	r3, [ip]
    ad90:	e3a0c059 	mov	ip, #89	; 0x59
    ad94:	e5dc3000 	ldrb	r3, [ip]
    ad98:	e1a03223 	mov	r3, r3, lsr #4
    ad9c:	e213e001 	ands	lr, r3, #1	; 0x1
    ada0:	18bd8070 	ldmneia	sp!, {r4, r5, r6, pc}
    ada4:	e5d60000 	ldrb	r0, [r6]
    ada8:	e5d63000 	ldrb	r3, [r6]
    adac:	e2833001 	add	r3, r3, #1	; 0x1
    adb0:	e5c63000 	strb	r3, [r6]
    adb4:	e5d62000 	ldrb	r2, [r6]
    adb8:	e7d51000 	ldrb	r1, [r5, r0]
    adbc:	e35200ff 	cmp	r2, #255	; 0xff
    adc0:	e59f3064 	ldr	r3, [pc, #100]	; ae2c <.text+0x2e2c>
    adc4:	e59f2064 	ldr	r2, [pc, #100]	; ae30 <.text+0x2e30>
    adc8:	e5c31000 	strb	r1, [r3]
    adcc:	e5c2e000 	strb	lr, [r2]
    add0:	05c6e000 	streqb	lr, [r6]
    add4:	e3a03058 	mov	r3, #88	; 0x58
    add8:	e5d32000 	ldrb	r2, [r3]
    addc:	e3822001 	orr	r2, r2, #1	; 0x1
    ade0:	e5c32000 	strb	r2, [r3]
    ade4:	e5dc1000 	ldrb	r1, [ip]
    ade8:	e3811010 	orr	r1, r1, #16	; 0x10
    adec:	e5cc1000 	strb	r1, [ip]
    adf0:	e8bd8070 	ldmia	sp!, {r4, r5, r6, pc}
    adf4:	00013501 	andeq	r3, r1, r1, lsl #10
    adf8:	000135b6 	streqh	r3, [r1], -r6
    adfc:	51eb851f 	mvnpl	r8, pc, lsl r5
    ae00:	000139f6 	streqd	r3, [r1], -r6
    ae04:	000139f5 	streqd	r3, [r1], -r5
    ae08:	000139f3 	streqd	r3, [r1], -r3
    ae0c:	000139f8 	streqd	r3, [r1], -r8
    ae10:	000135a4 	andeq	r3, r1, r4, lsr #11
    ae14:	00013af7 	streqd	r3, [r1], -r7
    ae18:	000139f2 	streqd	r3, [r1], -r2
    ae1c:	000135a3 	andeq	r3, r1, r3, lsr #11
    ae20:	000139d0 	ldreqd	r3, [r1], -r0
    ae24:	000135b4 	streqh	r3, [r1], -r4
    ae28:	00013500 	andeq	r3, r1, r0, lsl #10
    ae2c:	000139f4 	streqd	r3, [r1], -r4
    ae30:	000139f7 	streqd	r3, [r1], -r7

0000ae34 <send_debug>:
    ae34:	e92d4070 	stmdb	sp!, {r4, r5, r6, lr}
    ae38:	e59f32b0 	ldr	r3, [pc, #688]	; b0f0 <.text+0x30f0>
    ae3c:	e5d32000 	ldrb	r2, [r3]
    ae40:	e3520000 	cmp	r2, #0	; 0x0
    ae44:	18bd8070 	ldmneia	sp!, {r4, r5, r6, pc}
    ae48:	e59f32a4 	ldr	r3, [pc, #676]	; b0f4 <.text+0x30f4>
    ae4c:	e59f22a4 	ldr	r2, [pc, #676]	; b0f8 <.text+0x30f8>
    ae50:	e5d31000 	ldrb	r1, [r3]
    ae54:	e0830192 	umull	r0, r3, r2, r1
    ae58:	e1a03223 	mov	r3, r3, lsr #4
    ae5c:	e0833103 	add	r3, r3, r3, lsl #2
    ae60:	e0833103 	add	r3, r3, r3, lsl #2
    ae64:	e0411083 	sub	r1, r1, r3, lsl #1
    ae68:	e20110ff 	and	r1, r1, #255	; 0xff
    ae6c:	e351001d 	cmp	r1, #29	; 0x1d
    ae70:	18bd8070 	ldmneia	sp!, {r4, r5, r6, pc}
    ae74:	e59f6280 	ldr	r6, [pc, #640]	; b0fc <.text+0x30fc>
    ae78:	e59f1280 	ldr	r1, [pc, #640]	; b100 <.text+0x3100>
    ae7c:	e5d63000 	ldrb	r3, [r6]
    ae80:	e5d12000 	ldrb	r2, [r1]
    ae84:	e1520003 	cmp	r2, r3
    ae88:	25d63000 	ldrcsb	r3, [r6]
    ae8c:	35d63000 	ldrccb	r3, [r6]
    ae90:	20633002 	rsbcs	r3, r3, r2
    ae94:	30623003 	rsbcc	r3, r2, r3
    ae98:	226330ff 	rsbcs	r3, r3, #255	; 0xff
    ae9c:	e3530009 	cmp	r3, #9	; 0x9
    aea0:	d59f225c 	ldrle	r2, [pc, #604]	; b104 <.text+0x3104>
    aea4:	d5d23000 	ldrleb	r3, [r2]
    aea8:	d2833001 	addle	r3, r3, #1	; 0x1
    aeac:	d5c23000 	strleb	r3, [r2]
    aeb0:	d8bd8070 	ldmleia	sp!, {r4, r5, r6, pc}
    aeb4:	e5d13000 	ldrb	r3, [r1]
    aeb8:	e2832001 	add	r2, r3, #1	; 0x1
    aebc:	e5c12000 	strb	r2, [r1]
    aec0:	e5d10000 	ldrb	r0, [r1]
    aec4:	e59f523c 	ldr	r5, [pc, #572]	; b108 <.text+0x3108>
    aec8:	e35000ff 	cmp	r0, #255	; 0xff
    aecc:	e3a02005 	mov	r2, #5	; 0x5
    aed0:	e7c52003 	strb	r2, [r5, r3]
    aed4:	03a03000 	moveq	r3, #0	; 0x0
    aed8:	e59fc220 	ldr	ip, [pc, #544]	; b100 <.text+0x3100>
    aedc:	01a00003 	moveq	r0, r3
    aee0:	05c13000 	streqb	r3, [r1]
    aee4:	e2803001 	add	r3, r0, #1	; 0x1
    aee8:	e5cc3000 	strb	r3, [ip]
    aeec:	e3a0200d 	mov	r2, #13	; 0xd
    aef0:	e7c52000 	strb	r2, [r5, r0]
    aef4:	e5dc0000 	ldrb	r0, [ip]
    aef8:	e35000ff 	cmp	r0, #255	; 0xff
    aefc:	03a03000 	moveq	r3, #0	; 0x0
    af00:	05cc3000 	streqb	r3, [ip]
    af04:	01a00003 	moveq	r0, r3
    af08:	e59f31fc 	ldr	r3, [pc, #508]	; b10c <.text+0x310c>
    af0c:	e5d31000 	ldrb	r1, [r3]
    af10:	e59fe1f8 	ldr	lr, [pc, #504]	; b110 <.text+0x3110>
    af14:	e2802001 	add	r2, r0, #1	; 0x1
    af18:	e281300d 	add	r3, r1, #13	; 0xd
    af1c:	e5cc2000 	strb	r2, [ip]
    af20:	e5ce3000 	strb	r3, [lr]
    af24:	e7c51000 	strb	r1, [r5, r0]
    af28:	e5de2000 	ldrb	r2, [lr]
    af2c:	e5dc0000 	ldrb	r0, [ip]
    af30:	e59f41dc 	ldr	r4, [pc, #476]	; b114 <.text+0x3114>
    af34:	e282300d 	add	r3, r2, #13	; 0xd
    af38:	e35000ff 	cmp	r0, #255	; 0xff
    af3c:	e5c43000 	strb	r3, [r4]
    af40:	03a03000 	moveq	r3, #0	; 0x0
    af44:	05cc3000 	streqb	r3, [ip]
    af48:	01a00003 	moveq	r0, r3
    af4c:	e59f31c4 	ldr	r3, [pc, #452]	; b118 <.text+0x3118>
    af50:	e5d31000 	ldrb	r1, [r3]
    af54:	e2803001 	add	r3, r0, #1	; 0x1
    af58:	e0822001 	add	r2, r2, r1
    af5c:	e5cc3000 	strb	r3, [ip]
    af60:	e5ce2000 	strb	r2, [lr]
    af64:	e7c51000 	strb	r1, [r5, r0]
    af68:	e5de2000 	ldrb	r2, [lr]
    af6c:	e5dc0000 	ldrb	r0, [ip]
    af70:	e5d43000 	ldrb	r3, [r4]
    af74:	e35000ff 	cmp	r0, #255	; 0xff
    af78:	e0833002 	add	r3, r3, r2
    af7c:	e5c43000 	strb	r3, [r4]
    af80:	03a03000 	moveq	r3, #0	; 0x0
    af84:	05cc3000 	streqb	r3, [ip]
    af88:	01a00003 	moveq	r0, r3
    af8c:	e59f3170 	ldr	r3, [pc, #368]	; b104 <.text+0x3104>
    af90:	e5d31000 	ldrb	r1, [r3]
    af94:	e2803001 	add	r3, r0, #1	; 0x1
    af98:	e0822001 	add	r2, r2, r1
    af9c:	e5cc3000 	strb	r3, [ip]
    afa0:	e5ce2000 	strb	r2, [lr]
    afa4:	e7c51000 	strb	r1, [r5, r0]
    afa8:	e5de2000 	ldrb	r2, [lr]
    afac:	e5dc0000 	ldrb	r0, [ip]
    afb0:	e5d43000 	ldrb	r3, [r4]
    afb4:	e35000ff 	cmp	r0, #255	; 0xff
    afb8:	e0833002 	add	r3, r3, r2
    afbc:	e5c43000 	strb	r3, [r4]
    afc0:	03a03000 	moveq	r3, #0	; 0x0
    afc4:	05cc3000 	streqb	r3, [ip]
    afc8:	01a00003 	moveq	r0, r3
    afcc:	e59f3148 	ldr	r3, [pc, #328]	; b11c <.text+0x311c>
    afd0:	e5d31000 	ldrb	r1, [r3]
    afd4:	e2803001 	add	r3, r0, #1	; 0x1
    afd8:	e0822001 	add	r2, r2, r1
    afdc:	e5cc3000 	strb	r3, [ip]
    afe0:	e5ce2000 	strb	r2, [lr]
    afe4:	e7c51000 	strb	r1, [r5, r0]
    afe8:	e5de2000 	ldrb	r2, [lr]
    afec:	e5dc0000 	ldrb	r0, [ip]
    aff0:	e5d43000 	ldrb	r3, [r4]
    aff4:	e35000ff 	cmp	r0, #255	; 0xff
    aff8:	e0833002 	add	r3, r3, r2
    affc:	e5c43000 	strb	r3, [r4]
    b000:	03a03000 	moveq	r3, #0	; 0x0
    b004:	05cc3000 	streqb	r3, [ip]
    b008:	01a00003 	moveq	r0, r3
    b00c:	e59f310c 	ldr	r3, [pc, #268]	; b120 <.text+0x3120>
    b010:	e5d31000 	ldrb	r1, [r3]
    b014:	e2803001 	add	r3, r0, #1	; 0x1
    b018:	e0822001 	add	r2, r2, r1
    b01c:	e5cc3000 	strb	r3, [ip]
    b020:	e5ce2000 	strb	r2, [lr]
    b024:	e7c51000 	strb	r1, [r5, r0]
    b028:	e5d43000 	ldrb	r3, [r4]
    b02c:	e5dc0000 	ldrb	r0, [ip]
    b030:	e5de1000 	ldrb	r1, [lr]
    b034:	e35000ff 	cmp	r0, #255	; 0xff
    b038:	e0833001 	add	r3, r3, r1
    b03c:	e5c43000 	strb	r3, [r4]
    b040:	03a03000 	moveq	r3, #0	; 0x0
    b044:	01a00003 	moveq	r0, r3
    b048:	05cc3000 	streqb	r3, [ip]
    b04c:	e2803001 	add	r3, r0, #1	; 0x1
    b050:	e5cc3000 	strb	r3, [ip]
    b054:	e7c51000 	strb	r1, [r5, r0]
    b058:	e5dc0000 	ldrb	r0, [ip]
    b05c:	e35000ff 	cmp	r0, #255	; 0xff
    b060:	03a03000 	moveq	r3, #0	; 0x0
    b064:	01a00003 	moveq	r0, r3
    b068:	05cc3000 	streqb	r3, [ip]
    b06c:	e2803001 	add	r3, r0, #1	; 0x1
    b070:	e5cc3000 	strb	r3, [ip]
    b074:	e5dc2000 	ldrb	r2, [ip]
    b078:	e5d43000 	ldrb	r3, [r4]
    b07c:	e35200ff 	cmp	r2, #255	; 0xff
    b080:	e7c53000 	strb	r3, [r5, r0]
    b084:	03a03000 	moveq	r3, #0	; 0x0
    b088:	05cc3000 	streqb	r3, [ip]
    b08c:	e3a0c059 	mov	ip, #89	; 0x59
    b090:	e5dc3000 	ldrb	r3, [ip]
    b094:	e1a03223 	mov	r3, r3, lsr #4
    b098:	e213e001 	ands	lr, r3, #1	; 0x1
    b09c:	18bd8070 	ldmneia	sp!, {r4, r5, r6, pc}
    b0a0:	e5d60000 	ldrb	r0, [r6]
    b0a4:	e5d63000 	ldrb	r3, [r6]
    b0a8:	e2833001 	add	r3, r3, #1	; 0x1
    b0ac:	e5c63000 	strb	r3, [r6]
    b0b0:	e5d62000 	ldrb	r2, [r6]
    b0b4:	e7d51000 	ldrb	r1, [r5, r0]
    b0b8:	e35200ff 	cmp	r2, #255	; 0xff
    b0bc:	e59f3060 	ldr	r3, [pc, #96]	; b124 <.text+0x3124>
    b0c0:	e59f2060 	ldr	r2, [pc, #96]	; b128 <.text+0x3128>
    b0c4:	e5c31000 	strb	r1, [r3]
    b0c8:	e5c2e000 	strb	lr, [r2]
    b0cc:	05c6e000 	streqb	lr, [r6]
    b0d0:	e3a03058 	mov	r3, #88	; 0x58
    b0d4:	e5d32000 	ldrb	r2, [r3]
    b0d8:	e3822001 	orr	r2, r2, #1	; 0x1
    b0dc:	e5c32000 	strb	r2, [r3]
    b0e0:	e5dc1000 	ldrb	r1, [ip]
    b0e4:	e3811010 	orr	r1, r1, #16	; 0x10
    b0e8:	e5cc1000 	strb	r1, [ip]
    b0ec:	e8bd8070 	ldmia	sp!, {r4, r5, r6, pc}
    b0f0:	00013501 	andeq	r3, r1, r1, lsl #10
    b0f4:	000135b6 	streqh	r3, [r1], -r6
    b0f8:	51eb851f 	mvnpl	r8, pc, lsl r5
    b0fc:	000139f6 	streqd	r3, [r1], -r6
    b100:	000139f5 	streqd	r3, [r1], -r5
    b104:	000139f3 	streqd	r3, [r1], -r3
    b108:	000139f8 	streqd	r3, [r1], -r8
    b10c:	00013b29 	andeq	r3, r1, r9, lsr #22
    b110:	00013af7 	streqd	r3, [r1], -r7
    b114:	000139f2 	streqd	r3, [r1], -r2
    b118:	00013b28 	andeq	r3, r1, r8, lsr #22
    b11c:	00013b5c 	andeq	r3, r1, ip, asr fp
    b120:	000135b5 	streqh	r3, [r1], -r5
    b124:	000139f4 	streqd	r3, [r1], -r4
    b128:	000139f7 	streqd	r3, [r1], -r7

0000b12c <send_nav_ref>:
    b12c:	e92d40f0 	stmdb	sp!, {r4, r5, r6, r7, lr}
    b130:	e59f3358 	ldr	r3, [pc, #856]	; b490 <.text+0x3490>
    b134:	e5d32000 	ldrb	r2, [r3]
    b138:	e3520000 	cmp	r2, #0	; 0x0
    b13c:	18bd80f0 	ldmneia	sp!, {r4, r5, r6, r7, pc}
    b140:	e59f334c 	ldr	r3, [pc, #844]	; b494 <.text+0x3494>
    b144:	e59f234c 	ldr	r2, [pc, #844]	; b498 <.text+0x3498>
    b148:	e5d31000 	ldrb	r1, [r3]
    b14c:	e0830192 	umull	r0, r3, r2, r1
    b150:	e1a032a3 	mov	r3, r3, lsr #5
    b154:	e0833103 	add	r3, r3, r3, lsl #2
    b158:	e0833103 	add	r3, r3, r3, lsl #2
    b15c:	e0411103 	sub	r1, r1, r3, lsl #2
    b160:	e20110ff 	and	r1, r1, #255	; 0xff
    b164:	e3510031 	cmp	r1, #49	; 0x31
    b168:	18bd80f0 	ldmneia	sp!, {r4, r5, r6, r7, pc}
    b16c:	e59f7328 	ldr	r7, [pc, #808]	; b49c <.text+0x349c>
    b170:	e59f1328 	ldr	r1, [pc, #808]	; b4a0 <.text+0x34a0>
    b174:	e5d73000 	ldrb	r3, [r7]
    b178:	e5d12000 	ldrb	r2, [r1]
    b17c:	e1520003 	cmp	r2, r3
    b180:	25d73000 	ldrcsb	r3, [r7]
    b184:	35d73000 	ldrccb	r3, [r7]
    b188:	20633002 	rsbcs	r3, r3, r2
    b18c:	30623003 	rsbcc	r3, r2, r3
    b190:	226330ff 	rsbcs	r3, r3, #255	; 0xff
    b194:	e353000c 	cmp	r3, #12	; 0xc
    b198:	d59f2304 	ldrle	r2, [pc, #772]	; b4a4 <.text+0x34a4>
    b19c:	d5d23000 	ldrleb	r3, [r2]
    b1a0:	d2833001 	addle	r3, r3, #1	; 0x1
    b1a4:	d5c23000 	strleb	r3, [r2]
    b1a8:	d8bd80f0 	ldmleia	sp!, {r4, r5, r6, r7, pc}
    b1ac:	e5d13000 	ldrb	r3, [r1]
    b1b0:	e2832001 	add	r2, r3, #1	; 0x1
    b1b4:	e5c12000 	strb	r2, [r1]
    b1b8:	e5d10000 	ldrb	r0, [r1]
    b1bc:	e59f52e4 	ldr	r5, [pc, #740]	; b4a8 <.text+0x34a8>
    b1c0:	e35000ff 	cmp	r0, #255	; 0xff
    b1c4:	e3a02005 	mov	r2, #5	; 0x5
    b1c8:	e7c52003 	strb	r2, [r5, r3]
    b1cc:	03a03000 	moveq	r3, #0	; 0x0
    b1d0:	e59fc2c8 	ldr	ip, [pc, #712]	; b4a0 <.text+0x34a0>
    b1d4:	01a00003 	moveq	r0, r3
    b1d8:	05c13000 	streqb	r3, [r1]
    b1dc:	e2803001 	add	r3, r0, #1	; 0x1
    b1e0:	e5cc3000 	strb	r3, [ip]
    b1e4:	e3a02009 	mov	r2, #9	; 0x9
    b1e8:	e7c52000 	strb	r2, [r5, r0]
    b1ec:	e5dc0000 	ldrb	r0, [ip]
    b1f0:	e35000ff 	cmp	r0, #255	; 0xff
    b1f4:	03a03000 	moveq	r3, #0	; 0x0
    b1f8:	05cc3000 	streqb	r3, [ip]
    b1fc:	e59f62a8 	ldr	r6, [pc, #680]	; b4ac <.text+0x34ac>
    b200:	e5d61000 	ldrb	r1, [r6]
    b204:	e59fe2a4 	ldr	lr, [pc, #676]	; b4b0 <.text+0x34b0>
    b208:	01a00003 	moveq	r0, r3
    b20c:	e2802001 	add	r2, r0, #1	; 0x1
    b210:	e2813009 	add	r3, r1, #9	; 0x9
    b214:	e5cc2000 	strb	r2, [ip]
    b218:	e5ce3000 	strb	r3, [lr]
    b21c:	e7c51000 	strb	r1, [r5, r0]
    b220:	e5de2000 	ldrb	r2, [lr]
    b224:	e5dc0000 	ldrb	r0, [ip]
    b228:	e59f4284 	ldr	r4, [pc, #644]	; b4b4 <.text+0x34b4>
    b22c:	e2823009 	add	r3, r2, #9	; 0x9
    b230:	e35000ff 	cmp	r0, #255	; 0xff
    b234:	e5c43000 	strb	r3, [r4]
    b238:	03a03000 	moveq	r3, #0	; 0x0
    b23c:	05cc3000 	streqb	r3, [ip]
    b240:	e5d61001 	ldrb	r1, [r6, #1]
    b244:	01a00003 	moveq	r0, r3
    b248:	e0813002 	add	r3, r1, r2
    b24c:	e2802001 	add	r2, r0, #1	; 0x1
    b250:	e5cc2000 	strb	r2, [ip]
    b254:	e5ce3000 	strb	r3, [lr]
    b258:	e7c51000 	strb	r1, [r5, r0]
    b25c:	e5de2000 	ldrb	r2, [lr]
    b260:	e5dc0000 	ldrb	r0, [ip]
    b264:	e5d43000 	ldrb	r3, [r4]
    b268:	e35000ff 	cmp	r0, #255	; 0xff
    b26c:	e0833002 	add	r3, r3, r2
    b270:	e5c43000 	strb	r3, [r4]
    b274:	03a03000 	moveq	r3, #0	; 0x0
    b278:	05cc3000 	streqb	r3, [ip]
    b27c:	e5d61002 	ldrb	r1, [r6, #2]
    b280:	01a00003 	moveq	r0, r3
    b284:	e0813002 	add	r3, r1, r2
    b288:	e2802001 	add	r2, r0, #1	; 0x1
    b28c:	e5ce3000 	strb	r3, [lr]
    b290:	e5cc2000 	strb	r2, [ip]
    b294:	e7c51000 	strb	r1, [r5, r0]
    b298:	e5de2000 	ldrb	r2, [lr]
    b29c:	e5dc0000 	ldrb	r0, [ip]
    b2a0:	e5d43000 	ldrb	r3, [r4]
    b2a4:	e35000ff 	cmp	r0, #255	; 0xff
    b2a8:	e0833002 	add	r3, r3, r2
    b2ac:	e5c43000 	strb	r3, [r4]
    b2b0:	03a03000 	moveq	r3, #0	; 0x0
    b2b4:	05cc3000 	streqb	r3, [ip]
    b2b8:	e5d61003 	ldrb	r1, [r6, #3]
    b2bc:	01a00003 	moveq	r0, r3
    b2c0:	e0813002 	add	r3, r1, r2
    b2c4:	e2802001 	add	r2, r0, #1	; 0x1
    b2c8:	e5cc2000 	strb	r2, [ip]
    b2cc:	e5ce3000 	strb	r3, [lr]
    b2d0:	e7c51000 	strb	r1, [r5, r0]
    b2d4:	e5de2000 	ldrb	r2, [lr]
    b2d8:	e5dc0000 	ldrb	r0, [ip]
    b2dc:	e5d43000 	ldrb	r3, [r4]
    b2e0:	e35000ff 	cmp	r0, #255	; 0xff
    b2e4:	e0833002 	add	r3, r3, r2
    b2e8:	e5c43000 	strb	r3, [r4]
    b2ec:	03a03000 	moveq	r3, #0	; 0x0
    b2f0:	05cc3000 	streqb	r3, [ip]
    b2f4:	e59f61bc 	ldr	r6, [pc, #444]	; b4b8 <.text+0x34b8>
    b2f8:	e5d61000 	ldrb	r1, [r6]
    b2fc:	01a00003 	moveq	r0, r3
    b300:	e0813002 	add	r3, r1, r2
    b304:	e2802001 	add	r2, r0, #1	; 0x1
    b308:	e5cc2000 	strb	r2, [ip]
    b30c:	e5ce3000 	strb	r3, [lr]
    b310:	e7c51000 	strb	r1, [r5, r0]
    b314:	e5de2000 	ldrb	r2, [lr]
    b318:	e5dc0000 	ldrb	r0, [ip]
    b31c:	e5d43000 	ldrb	r3, [r4]
    b320:	e35000ff 	cmp	r0, #255	; 0xff
    b324:	e0833002 	add	r3, r3, r2
    b328:	e5c43000 	strb	r3, [r4]
    b32c:	03a03000 	moveq	r3, #0	; 0x0
    b330:	05cc3000 	streqb	r3, [ip]
    b334:	e5d61001 	ldrb	r1, [r6, #1]
    b338:	01a00003 	moveq	r0, r3
    b33c:	e0813002 	add	r3, r1, r2
    b340:	e2802001 	add	r2, r0, #1	; 0x1
    b344:	e5cc2000 	strb	r2, [ip]
    b348:	e5ce3000 	strb	r3, [lr]
    b34c:	e7c51000 	strb	r1, [r5, r0]
    b350:	e5de2000 	ldrb	r2, [lr]
    b354:	e5dc0000 	ldrb	r0, [ip]
    b358:	e5d43000 	ldrb	r3, [r4]
    b35c:	e35000ff 	cmp	r0, #255	; 0xff
    b360:	e0833002 	add	r3, r3, r2
    b364:	e5c43000 	strb	r3, [r4]
    b368:	03a03000 	moveq	r3, #0	; 0x0
    b36c:	05cc3000 	streqb	r3, [ip]
    b370:	e5d61002 	ldrb	r1, [r6, #2]
    b374:	01a00003 	moveq	r0, r3
    b378:	e0813002 	add	r3, r1, r2
    b37c:	e2802001 	add	r2, r0, #1	; 0x1
    b380:	e5ce3000 	strb	r3, [lr]
    b384:	e5cc2000 	strb	r2, [ip]
    b388:	e7c51000 	strb	r1, [r5, r0]
    b38c:	e5de2000 	ldrb	r2, [lr]
    b390:	e5dc0000 	ldrb	r0, [ip]
    b394:	e5d43000 	ldrb	r3, [r4]
    b398:	e35000ff 	cmp	r0, #255	; 0xff
    b39c:	e0833002 	add	r3, r3, r2
    b3a0:	e5c43000 	strb	r3, [r4]
    b3a4:	03a03000 	moveq	r3, #0	; 0x0
    b3a8:	05cc3000 	streqb	r3, [ip]
    b3ac:	e5d61003 	ldrb	r1, [r6, #3]
    b3b0:	01a00003 	moveq	r0, r3
    b3b4:	e0813002 	add	r3, r1, r2
    b3b8:	e2802001 	add	r2, r0, #1	; 0x1
    b3bc:	e5cc2000 	strb	r2, [ip]
    b3c0:	e5ce3000 	strb	r3, [lr]
    b3c4:	e7c51000 	strb	r1, [r5, r0]
    b3c8:	e5d43000 	ldrb	r3, [r4]
    b3cc:	e5dc0000 	ldrb	r0, [ip]
    b3d0:	e5de1000 	ldrb	r1, [lr]
    b3d4:	e35000ff 	cmp	r0, #255	; 0xff
    b3d8:	e0833001 	add	r3, r3, r1
    b3dc:	e5c43000 	strb	r3, [r4]
    b3e0:	03a03000 	moveq	r3, #0	; 0x0
    b3e4:	01a00003 	moveq	r0, r3
    b3e8:	05cc3000 	streqb	r3, [ip]
    b3ec:	e2803001 	add	r3, r0, #1	; 0x1
    b3f0:	e5cc3000 	strb	r3, [ip]
    b3f4:	e7c51000 	strb	r1, [r5, r0]
    b3f8:	e5dc0000 	ldrb	r0, [ip]
    b3fc:	e35000ff 	cmp	r0, #255	; 0xff
    b400:	03a03000 	moveq	r3, #0	; 0x0
    b404:	01a00003 	moveq	r0, r3
    b408:	05cc3000 	streqb	r3, [ip]
    b40c:	e2803001 	add	r3, r0, #1	; 0x1
    b410:	e5cc3000 	strb	r3, [ip]
    b414:	e5dc2000 	ldrb	r2, [ip]
    b418:	e5d43000 	ldrb	r3, [r4]
    b41c:	e35200ff 	cmp	r2, #255	; 0xff
    b420:	e7c53000 	strb	r3, [r5, r0]
    b424:	03a03000 	moveq	r3, #0	; 0x0
    b428:	05cc3000 	streqb	r3, [ip]
    b42c:	e3a0c059 	mov	ip, #89	; 0x59
    b430:	e5dc3000 	ldrb	r3, [ip]
    b434:	e1a03223 	mov	r3, r3, lsr #4
    b438:	e213e001 	ands	lr, r3, #1	; 0x1
    b43c:	18bd80f0 	ldmneia	sp!, {r4, r5, r6, r7, pc}
    b440:	e5d70000 	ldrb	r0, [r7]
    b444:	e5d73000 	ldrb	r3, [r7]
    b448:	e2833001 	add	r3, r3, #1	; 0x1
    b44c:	e5c73000 	strb	r3, [r7]
    b450:	e5d72000 	ldrb	r2, [r7]
    b454:	e7d51000 	ldrb	r1, [r5, r0]
    b458:	e35200ff 	cmp	r2, #255	; 0xff
    b45c:	e59f3058 	ldr	r3, [pc, #88]	; b4bc <.text+0x34bc>
    b460:	e59f2058 	ldr	r2, [pc, #88]	; b4c0 <.text+0x34c0>
    b464:	e5c31000 	strb	r1, [r3]
    b468:	e5c2e000 	strb	lr, [r2]
    b46c:	05c7e000 	streqb	lr, [r7]
    b470:	e3a03058 	mov	r3, #88	; 0x58
    b474:	e5d32000 	ldrb	r2, [r3]
    b478:	e3822001 	orr	r2, r2, #1	; 0x1
    b47c:	e5c32000 	strb	r2, [r3]
    b480:	e5dc1000 	ldrb	r1, [ip]
    b484:	e3811010 	orr	r1, r1, #16	; 0x10
    b488:	e5cc1000 	strb	r1, [ip]
    b48c:	e8bd80f0 	ldmia	sp!, {r4, r5, r6, r7, pc}
    b490:	00013501 	andeq	r3, r1, r1, lsl #10
    b494:	000135b6 	streqh	r3, [r1], -r6
    b498:	51eb851f 	mvnpl	r8, pc, lsl r5
    b49c:	000139f6 	streqd	r3, [r1], -r6
    b4a0:	000139f5 	streqd	r3, [r1], -r5
    b4a4:	000139f3 	streqd	r3, [r1], -r3
    b4a8:	000139f8 	streqd	r3, [r1], -r8
    b4ac:	000133d0 	ldreqd	r3, [r1], -r0
    b4b0:	00013af7 	streqd	r3, [r1], -r7
    b4b4:	000139f2 	streqd	r3, [r1], -r2
    b4b8:	000133cc 	andeq	r3, r1, ip, asr #7
    b4bc:	000139f4 	streqd	r3, [r1], -r4
    b4c0:	000139f7 	streqd	r3, [r1], -r7

0000b4c4 <inflight_calib_mode_update>:
    b4c4:	e59f3034 	ldr	r3, [pc, #52]	; b500 <.text+0x3500>
    b4c8:	e1d331f0 	ldrsh	r3, [r3, #16]
    b4cc:	e3730d4b 	cmn	r3, #4800	; 0x12c0
    b4d0:	b3a02002 	movlt	r2, #2	; 0x2
    b4d4:	ba000002 	blt	b4e4 <inflight_calib_mode_update+0x20>
    b4d8:	e3530d32 	cmp	r3, #3200	; 0xc80
    b4dc:	b3a02000 	movlt	r2, #0	; 0x0
    b4e0:	a3a02001 	movge	r2, #1	; 0x1
    b4e4:	e59f1018 	ldr	r1, [pc, #24]	; b504 <.text+0x3504>
    b4e8:	e5d13000 	ldrb	r3, [r1]
    b4ec:	e1530002 	cmp	r3, r2
    b4f0:	e3a00001 	mov	r0, #1	; 0x1
    b4f4:	03a00000 	moveq	r0, #0	; 0x0
    b4f8:	15c12000 	strneb	r2, [r1]
    b4fc:	e1a0f00e 	mov	pc, lr
    b500:	00013b10 	andeq	r3, r1, r0, lsl fp
    b504:	000139d0 	ldreqd	r3, [r1], -r0

0000b508 <radio_control_task>:
    b508:	e1a0c00d 	mov	ip, sp
    b50c:	e92ddff0 	stmdb	sp!, {r4, r5, r6, r7, r8, r9, sl, fp, ip, lr, pc}
    b510:	e59f35fc 	ldr	r3, [pc, #1532]	; bb14 <.text+0x3b14>
    b514:	e5d32000 	ldrb	r2, [r3]
    b518:	e3520000 	cmp	r2, #0	; 0x0
    b51c:	e24cb004 	sub	fp, ip, #4	; 0x4
    b520:	089daff0 	ldmeqia	sp, {r4, r5, r6, r7, r8, r9, sl, fp, sp, pc}
    b524:	e59f85ec 	ldr	r8, [pc, #1516]	; bb18 <.text+0x3b18>
    b528:	e59f35ec 	ldr	r3, [pc, #1516]	; bb1c <.text+0x3b1c>
    b52c:	e1d800b6 	ldrh	r0, [r8, #6]
    b530:	e3a05000 	mov	r5, #0	; 0x0
    b534:	e2881013 	add	r1, r8, #19	; 0x13
    b538:	e5c35013 	strb	r5, [r3, #19]
    b53c:	e1a02801 	mov	r2, r1, lsl #16
    b540:	e1c300b6 	strh	r0, [r3, #6]
    b544:	e1a02822 	mov	r2, r2, lsr #16
    b548:	e5d23000 	ldrb	r3, [r2]
    b54c:	e3130002 	tst	r3, #2	; 0x2
    b550:	059f95c8 	ldreq	r9, [pc, #1480]	; bb20 <.text+0x3b20>
    b554:	0a000003 	beq	b568 <radio_control_task+0x60>
    b558:	e59f95c0 	ldr	r9, [pc, #1472]	; bb20 <.text+0x3b20>
    b55c:	e5d93000 	ldrb	r3, [r9]
    b560:	e3530001 	cmp	r3, #1	; 0x1
    b564:	9a000131 	bls	ba30 <radio_control_task+0x528>
    b568:	e59f35b4 	ldr	r3, [pc, #1460]	; bb24 <.text+0x3b24>
    b56c:	e5d32000 	ldrb	r2, [r3]
    b570:	e3520000 	cmp	r2, #0	; 0x0
    b574:	1a00012d 	bne	ba30 <radio_control_task+0x528>
    b578:	e1a03801 	mov	r3, r1, lsl #16
    b57c:	e1a03823 	mov	r3, r3, lsr #16
    b580:	e5d32000 	ldrb	r2, [r3]
    b584:	e3120004 	tst	r2, #4	; 0x4
    b588:	059fa598 	ldreq	sl, [pc, #1432]	; bb28 <.text+0x3b28>
    b58c:	0a00002e 	beq	b64c <radio_control_task+0x144>
    b590:	e5d93000 	ldrb	r3, [r9]
    b594:	e3530003 	cmp	r3, #3	; 0x3
    b598:	0a000349 	beq	c2c4 <.text+0x42c4>
    b59c:	e1d830f8 	ldrsh	r3, [r8, #8]
    b5a0:	e3530d32 	cmp	r3, #3200	; 0xc80
    b5a4:	c3a02002 	movgt	r2, #2	; 0x2
    b5a8:	ca000002 	bgt	b5b8 <radio_control_task+0xb0>
    b5ac:	e3730d4b 	cmn	r3, #4800	; 0x12c0
    b5b0:	d3a02000 	movle	r2, #0	; 0x0
    b5b4:	c3a02001 	movgt	r2, #1	; 0x1
    b5b8:	e5d93000 	ldrb	r3, [r9]
    b5bc:	e1530002 	cmp	r3, r2
    b5c0:	15c92000 	strneb	r2, [r9]
    b5c4:	13a01001 	movne	r1, #1	; 0x1
    b5c8:	03a01000 	moveq	r1, #0	; 0x0
    b5cc:	e59f0558 	ldr	r0, [pc, #1368]	; bb2c <.text+0x3b2c>
    b5d0:	e1d830fe 	ldrsh	r3, [r8, #14]
    b5d4:	e5d02000 	ldrb	r2, [r0]
    b5d8:	e3530d32 	cmp	r3, #3200	; 0xc80
    b5dc:	b3a03000 	movlt	r3, #0	; 0x0
    b5e0:	a3a03001 	movge	r3, #1	; 0x1
    b5e4:	e1520003 	cmp	r2, r3
    b5e8:	15c03000 	strneb	r3, [r0]
    b5ec:	e1d831f0 	ldrsh	r3, [r8, #16]
    b5f0:	e20110ff 	and	r1, r1, #255	; 0xff
    b5f4:	13a02001 	movne	r2, #1	; 0x1
    b5f8:	03a02000 	moveq	r2, #0	; 0x0
    b5fc:	e1855001 	orr	r5, r5, r1
    b600:	e3730d4b 	cmn	r3, #4800	; 0x12c0
    b604:	e1855002 	orr	r5, r5, r2
    b608:	b3a02002 	movlt	r2, #2	; 0x2
    b60c:	ba000002 	blt	b61c <radio_control_task+0x114>
    b610:	e3530d32 	cmp	r3, #3200	; 0xc80
    b614:	b3a02000 	movlt	r2, #0	; 0x0
    b618:	a3a02001 	movge	r2, #1	; 0x1
    b61c:	e59fa504 	ldr	sl, [pc, #1284]	; bb28 <.text+0x3b28>
    b620:	e5da3000 	ldrb	r3, [sl]
    b624:	e1530002 	cmp	r3, r2
    b628:	13a04001 	movne	r4, #1	; 0x1
    b62c:	03a04000 	moveq	r4, #0	; 0x0
    b630:	e20440ff 	and	r4, r4, #255	; 0xff
    b634:	15ca2000 	strneb	r2, [sl]
    b638:	e1941001 	orrs	r1, r4, r1
    b63c:	03a00000 	moveq	r0, #0	; 0x0
    b640:	13a00001 	movne	r0, #1	; 0x1
    b644:	eb00191f 	bl	11ac8 <inflight_calib>
    b648:	e1855004 	orr	r5, r5, r4
    b64c:	e59f74dc 	ldr	r7, [pc, #1244]	; bb30 <.text+0x3b30>
    b650:	e5d83013 	ldrb	r3, [r8, #19]
    b654:	e5d72000 	ldrb	r2, [r7]
    b658:	e20310ff 	and	r1, r3, #255	; 0xff
    b65c:	e1520001 	cmp	r2, r1
    b660:	03a02000 	moveq	r2, #0	; 0x0
    b664:	0a000004 	beq	b67c <radio_control_task+0x174>
    b668:	e2022003 	and	r2, r2, #3	; 0x3
    b66c:	e2033003 	and	r3, r3, #3	; 0x3
    b670:	e5c71000 	strb	r1, [r7]
    b674:	e0522003 	subs	r2, r2, r3
    b678:	13a02001 	movne	r2, #1	; 0x1
    b67c:	e1955002 	orrs	r5, r5, r2
    b680:	0a00009f 	beq	b904 <radio_control_task+0x3fc>
    b684:	e59f14fc 	ldr	r1, [pc, #1276]	; bb88 <.text+0x3b88>
    b688:	e59f0510 	ldr	r0, [pc, #1296]	; bba0 <.text+0x3ba0>
    b68c:	e5d12000 	ldrb	r2, [r1]
    b690:	e5d03000 	ldrb	r3, [r0]
    b694:	e1520003 	cmp	r2, r3
    b698:	359f1500 	ldrcc	r1, [pc, #1280]	; bba0 <.text+0x3ba0>
    b69c:	25d03000 	ldrcsb	r3, [r0]
    b6a0:	35d13000 	ldrccb	r3, [r1]
    b6a4:	20633002 	rsbcs	r3, r3, r2
    b6a8:	30623003 	rsbcc	r3, r2, r3
    b6ac:	226330ff 	rsbcs	r3, r3, #255	; 0xff
    b6b0:	e3530009 	cmp	r3, #9	; 0x9
    b6b4:	d59f24e8 	ldrle	r2, [pc, #1256]	; bba4 <.text+0x3ba4>
    b6b8:	d5d23000 	ldrleb	r3, [r2]
    b6bc:	d2833001 	addle	r3, r3, #1	; 0x1
    b6c0:	d5c23000 	strleb	r3, [r2]
    b6c4:	da00008e 	ble	b904 <radio_control_task+0x3fc>
    b6c8:	e59f24b8 	ldr	r2, [pc, #1208]	; bb88 <.text+0x3b88>
    b6cc:	e5d23000 	ldrb	r3, [r2]
    b6d0:	e59f04b0 	ldr	r0, [pc, #1200]	; bb88 <.text+0x3b88>
    b6d4:	e2832001 	add	r2, r3, #1	; 0x1
    b6d8:	e5c02000 	strb	r2, [r0]
    b6dc:	e5d00000 	ldrb	r0, [r0]
    b6e0:	e59f64a4 	ldr	r6, [pc, #1188]	; bb8c <.text+0x3b8c>
    b6e4:	e35000ff 	cmp	r0, #255	; 0xff
    b6e8:	e3a02005 	mov	r2, #5	; 0x5
    b6ec:	e59fc494 	ldr	ip, [pc, #1172]	; bb88 <.text+0x3b88>
    b6f0:	e7c62003 	strb	r2, [r6, r3]
    b6f4:	03a03000 	moveq	r3, #0	; 0x0
    b6f8:	01a00003 	moveq	r0, r3
    b6fc:	05cc3000 	streqb	r3, [ip]
    b700:	e2803001 	add	r3, r0, #1	; 0x1
    b704:	e5cc3000 	strb	r3, [ip]
    b708:	e3a0200b 	mov	r2, #11	; 0xb
    b70c:	e7c62000 	strb	r2, [r6, r0]
    b710:	e5dc0000 	ldrb	r0, [ip]
    b714:	e35000ff 	cmp	r0, #255	; 0xff
    b718:	03a03000 	moveq	r3, #0	; 0x0
    b71c:	e5d91000 	ldrb	r1, [r9]
    b720:	e59f4468 	ldr	r4, [pc, #1128]	; bb90 <.text+0x3b90>
    b724:	01a00003 	moveq	r0, r3
    b728:	05cc3000 	streqb	r3, [ip]
    b72c:	e2802001 	add	r2, r0, #1	; 0x1
    b730:	e281300b 	add	r3, r1, #11	; 0xb
    b734:	e5cc2000 	strb	r2, [ip]
    b738:	e5c43000 	strb	r3, [r4]
    b73c:	e7c61000 	strb	r1, [r6, r0]
    b740:	e5d42000 	ldrb	r2, [r4]
    b744:	e5dc0000 	ldrb	r0, [ip]
    b748:	e59f5444 	ldr	r5, [pc, #1092]	; bb94 <.text+0x3b94>
    b74c:	e282300b 	add	r3, r2, #11	; 0xb
    b750:	e35000ff 	cmp	r0, #255	; 0xff
    b754:	e5c53000 	strb	r3, [r5]
    b758:	03a03000 	moveq	r3, #0	; 0x0
    b75c:	05cc3000 	streqb	r3, [ip]
    b760:	01a00003 	moveq	r0, r3
    b764:	e59f33c8 	ldr	r3, [pc, #968]	; bb34 <.text+0x3b34>
    b768:	e5d31000 	ldrb	r1, [r3]
    b76c:	e2803001 	add	r3, r0, #1	; 0x1
    b770:	e0822001 	add	r2, r2, r1
    b774:	e5cc3000 	strb	r3, [ip]
    b778:	e5c42000 	strb	r2, [r4]
    b77c:	e7c61000 	strb	r1, [r6, r0]
    b780:	e5d4e000 	ldrb	lr, [r4]
    b784:	e5dc0000 	ldrb	r0, [ip]
    b788:	e5d53000 	ldrb	r3, [r5]
    b78c:	e35000ff 	cmp	r0, #255	; 0xff
    b790:	e083300e 	add	r3, r3, lr
    b794:	e5c53000 	strb	r3, [r5]
    b798:	e5da1000 	ldrb	r1, [sl]
    b79c:	03a03000 	moveq	r3, #0	; 0x0
    b7a0:	01a00003 	moveq	r0, r3
    b7a4:	05cc3000 	streqb	r3, [ip]
    b7a8:	e2802001 	add	r2, r0, #1	; 0x1
    b7ac:	e08e3001 	add	r3, lr, r1
    b7b0:	e5cc2000 	strb	r2, [ip]
    b7b4:	e5c43000 	strb	r3, [r4]
    b7b8:	e7c61000 	strb	r1, [r6, r0]
    b7bc:	e5d4e000 	ldrb	lr, [r4]
    b7c0:	e5dc0000 	ldrb	r0, [ip]
    b7c4:	e5d53000 	ldrb	r3, [r5]
    b7c8:	e35000ff 	cmp	r0, #255	; 0xff
    b7cc:	e083300e 	add	r3, r3, lr
    b7d0:	e5c53000 	strb	r3, [r5]
    b7d4:	03a03000 	moveq	r3, #0	; 0x0
    b7d8:	e5d71000 	ldrb	r1, [r7]
    b7dc:	01a00003 	moveq	r0, r3
    b7e0:	05cc3000 	streqb	r3, [ip]
    b7e4:	e2802001 	add	r2, r0, #1	; 0x1
    b7e8:	e08e3001 	add	r3, lr, r1
    b7ec:	e5cc2000 	strb	r2, [ip]
    b7f0:	e5c43000 	strb	r3, [r4]
    b7f4:	e7c61000 	strb	r1, [r6, r0]
    b7f8:	e5d53000 	ldrb	r3, [r5]
    b7fc:	e5dc0000 	ldrb	r0, [ip]
    b800:	e5d42000 	ldrb	r2, [r4]
    b804:	e35000ff 	cmp	r0, #255	; 0xff
    b808:	e0833002 	add	r3, r3, r2
    b80c:	e5c53000 	strb	r3, [r5]
    b810:	03a03000 	moveq	r3, #0	; 0x0
    b814:	05cc3000 	streqb	r3, [ip]
    b818:	01a00003 	moveq	r0, r3
    b81c:	e59f3308 	ldr	r3, [pc, #776]	; bb2c <.text+0x3b2c>
    b820:	e5d31000 	ldrb	r1, [r3]
    b824:	e2803001 	add	r3, r0, #1	; 0x1
    b828:	e0822001 	add	r2, r2, r1
    b82c:	e5cc3000 	strb	r3, [ip]
    b830:	e5c42000 	strb	r2, [r4]
    b834:	e7c61000 	strb	r1, [r6, r0]
    b838:	e5d53000 	ldrb	r3, [r5]
    b83c:	e5dc0000 	ldrb	r0, [ip]
    b840:	e5d41000 	ldrb	r1, [r4]
    b844:	e35000ff 	cmp	r0, #255	; 0xff
    b848:	e0833001 	add	r3, r3, r1
    b84c:	e5c53000 	strb	r3, [r5]
    b850:	03a03000 	moveq	r3, #0	; 0x0
    b854:	01a00003 	moveq	r0, r3
    b858:	05cc3000 	streqb	r3, [ip]
    b85c:	e2803001 	add	r3, r0, #1	; 0x1
    b860:	e5cc3000 	strb	r3, [ip]
    b864:	e7c61000 	strb	r1, [r6, r0]
    b868:	e5dc0000 	ldrb	r0, [ip]
    b86c:	e35000ff 	cmp	r0, #255	; 0xff
    b870:	03a03000 	moveq	r3, #0	; 0x0
    b874:	01a00003 	moveq	r0, r3
    b878:	05cc3000 	streqb	r3, [ip]
    b87c:	e2803001 	add	r3, r0, #1	; 0x1
    b880:	e5cc3000 	strb	r3, [ip]
    b884:	e5dc2000 	ldrb	r2, [ip]
    b888:	e5d53000 	ldrb	r3, [r5]
    b88c:	e35200ff 	cmp	r2, #255	; 0xff
    b890:	e7c63000 	strb	r3, [r6, r0]
    b894:	03a03000 	moveq	r3, #0	; 0x0
    b898:	05cc3000 	streqb	r3, [ip]
    b89c:	e3a0c059 	mov	ip, #89	; 0x59
    b8a0:	e5dc3000 	ldrb	r3, [ip]
    b8a4:	e1a03223 	mov	r3, r3, lsr #4
    b8a8:	e213e001 	ands	lr, r3, #1	; 0x1
    b8ac:	1a000014 	bne	b904 <radio_control_task+0x3fc>
    b8b0:	e59f12e8 	ldr	r1, [pc, #744]	; bba0 <.text+0x3ba0>
    b8b4:	e5d10000 	ldrb	r0, [r1]
    b8b8:	e5d13000 	ldrb	r3, [r1]
    b8bc:	e2833001 	add	r3, r3, #1	; 0x1
    b8c0:	e5c13000 	strb	r3, [r1]
    b8c4:	e5d12000 	ldrb	r2, [r1]
    b8c8:	e35200ff 	cmp	r2, #255	; 0xff
    b8cc:	e59f22c4 	ldr	r2, [pc, #708]	; bb98 <.text+0x3b98>
    b8d0:	e7d61000 	ldrb	r1, [r6, r0]
    b8d4:	e5c2e000 	strb	lr, [r2]
    b8d8:	e59f32bc 	ldr	r3, [pc, #700]	; bb9c <.text+0x3b9c>
    b8dc:	059f22bc 	ldreq	r2, [pc, #700]	; bba0 <.text+0x3ba0>
    b8e0:	e5c31000 	strb	r1, [r3]
    b8e4:	05c2e000 	streqb	lr, [r2]
    b8e8:	e3a03058 	mov	r3, #88	; 0x58
    b8ec:	e5d32000 	ldrb	r2, [r3]
    b8f0:	e3822001 	orr	r2, r2, #1	; 0x1
    b8f4:	e5c32000 	strb	r2, [r3]
    b8f8:	e5dc1000 	ldrb	r1, [ip]
    b8fc:	e3811010 	orr	r1, r1, #16	; 0x10
    b900:	e5cc1000 	strb	r1, [ip]
    b904:	e5d94000 	ldrb	r4, [r9]
    b908:	e3540001 	cmp	r4, #1	; 0x1
    b90c:	0a00005b 	beq	ba80 <radio_control_task+0x578>
    b910:	e3540001 	cmp	r4, #1	; 0x1
    b914:	959f321c 	ldrls	r3, [pc, #540]	; bb38 <.text+0x3b38>
    b918:	91d800b0 	ldrlsh	r0, [r8]
    b91c:	e5da2000 	ldrb	r2, [sl]
    b920:	91c300b0 	strlsh	r0, [r3]
    b924:	e5d81012 	ldrb	r1, [r8, #18]
    b928:	e5d80015 	ldrb	r0, [r8, #21]
    b92c:	e3520000 	cmp	r2, #0	; 0x0
    b930:	e59f3204 	ldr	r3, [pc, #516]	; bb3c <.text+0x3b3c>
    b934:	e59f2204 	ldr	r2, [pc, #516]	; bb40 <.text+0x3b40>
    b938:	e5c31000 	strb	r1, [r3]
    b93c:	e5c20000 	strb	r0, [r2]
    b940:	1a000048 	bne	ba68 <radio_control_task+0x560>
    b944:	e3a03b07 	mov	r3, #7168	; 0x1c00
    b948:	e1d820fa 	ldrsh	r2, [r8, #10]
    b94c:	e2833020 	add	r3, r3, #32	; 0x20
    b950:	e1520003 	cmp	r2, r3
    b954:	da000043 	ble	ba68 <radio_control_task+0x560>
    b958:	e59f21e4 	ldr	r2, [pc, #484]	; bb44 <.text+0x3b44>
    b95c:	e1d230b0 	ldrh	r3, [r2]
    b960:	e3530013 	cmp	r3, #19	; 0x13
    b964:	8a000006 	bhi	b984 <radio_control_task+0x47c>
    b968:	e2833001 	add	r3, r3, #1	; 0x1
    b96c:	e1c230b0 	strh	r3, [r2]
    b970:	e1d220b0 	ldrh	r2, [r2]
    b974:	e3520014 	cmp	r2, #20	; 0x14
    b978:	059f3204 	ldreq	r3, [pc, #516]	; bb84 <.text+0x3b84>
    b97c:	02422013 	subeq	r2, r2, #19	; 0x13
    b980:	05c32000 	streqb	r2, [r3]
    b984:	e5da3000 	ldrb	r3, [sl]
    b988:	e3530000 	cmp	r3, #0	; 0x0
    b98c:	1a00002b 	bne	ba40 <radio_control_task+0x538>
    b990:	e3e03b07 	mvn	r3, #7168	; 0x1c00
    b994:	e1d820fa 	ldrsh	r2, [r8, #10]
    b998:	e243301f 	sub	r3, r3, #31	; 0x1f
    b99c:	e1520003 	cmp	r2, r3
    b9a0:	aa000026 	bge	ba40 <radio_control_task+0x538>
    b9a4:	e59f219c 	ldr	r2, [pc, #412]	; bb48 <.text+0x3b48>
    b9a8:	e1d230b0 	ldrh	r3, [r2]
    b9ac:	e3530013 	cmp	r3, #19	; 0x13
    b9b0:	8a000006 	bhi	b9d0 <radio_control_task+0x4c8>
    b9b4:	e2833001 	add	r3, r3, #1	; 0x1
    b9b8:	e1c230b0 	strh	r3, [r2]
    b9bc:	e1d220b0 	ldrh	r2, [r2]
    b9c0:	e3520014 	cmp	r2, #20	; 0x14
    b9c4:	059f3180 	ldreq	r3, [pc, #384]	; bb4c <.text+0x3b4c>
    b9c8:	02422013 	subeq	r2, r2, #19	; 0x13
    b9cc:	05c32000 	streqb	r2, [r3]
    b9d0:	e59f3178 	ldr	r3, [pc, #376]	; bb50 <.text+0x3b50>
    b9d4:	e1d320b0 	ldrh	r2, [r3]
    b9d8:	e3520000 	cmp	r2, #0	; 0x0
    b9dc:	189daff0 	ldmneia	sp, {r4, r5, r6, r7, r8, r9, sl, fp, sp, pc}
    b9e0:	e59f616c 	ldr	r6, [pc, #364]	; bb54 <.text+0x3b54>
    b9e4:	e5d63000 	ldrb	r3, [r6]
    b9e8:	e3530000 	cmp	r3, #0	; 0x0
    b9ec:	1a00006d 	bne	bba8 <.text+0x3ba8>
    b9f0:	e59f3160 	ldr	r3, [pc, #352]	; bb58 <.text+0x3b58>
    b9f4:	e1d320b0 	ldrh	r2, [r3]
    b9f8:	e3520009 	cmp	r2, #9	; 0x9
    b9fc:	8a000002 	bhi	ba0c <radio_control_task+0x504>
    ba00:	e5d92000 	ldrb	r2, [r9]
    ba04:	e3520001 	cmp	r2, #1	; 0x1
    ba08:	0a000235 	beq	c2e4 <.text+0x42e4>
    ba0c:	e5d93000 	ldrb	r3, [r9]
    ba10:	e3530002 	cmp	r3, #2	; 0x2
    ba14:	189daff0 	ldmneia	sp, {r4, r5, r6, r7, r8, r9, sl, fp, sp, pc}
    ba18:	e1d830f0 	ldrsh	r3, [r8]
    ba1c:	e3530d87 	cmp	r3, #8640	; 0x21c0
    ba20:	c59f3134 	ldrgt	r3, [pc, #308]	; bb5c <.text+0x3b5c>
    ba24:	c3a02001 	movgt	r2, #1	; 0x1
    ba28:	c5c32000 	strgtb	r2, [r3]
    ba2c:	e89daff0 	ldmia	sp, {r4, r5, r6, r7, r8, r9, sl, fp, sp, pc}
    ba30:	e3a03003 	mov	r3, #3	; 0x3
    ba34:	e3a05001 	mov	r5, #1	; 0x1
    ba38:	e5c93000 	strb	r3, [r9]
    ba3c:	eafffecd 	b	b578 <radio_control_task+0x70>
    ba40:	e59f2104 	ldr	r2, [pc, #260]	; bb4c <.text+0x3b4c>
    ba44:	e59f10fc 	ldr	r1, [pc, #252]	; bb48 <.text+0x3b48>
    ba48:	e3a03000 	mov	r3, #0	; 0x0
    ba4c:	e5c23000 	strb	r3, [r2]
    ba50:	e1c130b0 	strh	r3, [r1]
    ba54:	e59f30f4 	ldr	r3, [pc, #244]	; bb50 <.text+0x3b50>
    ba58:	e1d320b0 	ldrh	r2, [r3]
    ba5c:	e3520000 	cmp	r2, #0	; 0x0
    ba60:	189daff0 	ldmneia	sp, {r4, r5, r6, r7, r8, r9, sl, fp, sp, pc}
    ba64:	eaffffdd 	b	b9e0 <radio_control_task+0x4d8>
    ba68:	e59f2114 	ldr	r2, [pc, #276]	; bb84 <.text+0x3b84>
    ba6c:	e59f10d0 	ldr	r1, [pc, #208]	; bb44 <.text+0x3b44>
    ba70:	e3a03000 	mov	r3, #0	; 0x0
    ba74:	e5c23000 	strb	r3, [r2]
    ba78:	e1c130b0 	strh	r3, [r1]
    ba7c:	eaffffc0 	b	b984 <radio_control_task+0x47c>
    ba80:	e1d800f2 	ldrsh	r0, [r8, #2]
    ba84:	eb001d0b 	bl	12eb8 <__floatsisf>
    ba88:	e3a01446 	mov	r1, #1174405120	; 0x46000000
    ba8c:	e2811816 	add	r1, r1, #1441792	; 0x160000
    ba90:	eb001d7f 	bl	13094 <__divsf3>
    ba94:	eb001ac9 	bl	125c0 <__extendsfdf2>
    ba98:	e28f205c 	add	r2, pc, #92	; 0x5c
    ba9c:	e892000c 	ldmia	r2, {r2, r3}
    baa0:	eb001ad9 	bl	1260c <__muldf3>
    baa4:	e28f2058 	add	r2, pc, #88	; 0x58
    baa8:	e892000c 	ldmia	r2, {r2, r3}
    baac:	eb0019f5 	bl	12288 <__adddf3>
    bab0:	eb001c4f 	bl	12bf4 <__truncdfsf2>
    bab4:	e59f30a4 	ldr	r3, [pc, #164]	; bb60 <.text+0x3b60>
    bab8:	e5830000 	str	r0, [r3]
    babc:	e1d800f4 	ldrsh	r0, [r8, #4]
    bac0:	eb001cfc 	bl	12eb8 <__floatsisf>
    bac4:	e3a01446 	mov	r1, #1174405120	; 0x46000000
    bac8:	e2811816 	add	r1, r1, #1441792	; 0x160000
    bacc:	eb001d70 	bl	13094 <__divsf3>
    bad0:	eb001aba 	bl	125c0 <__extendsfdf2>
    bad4:	e28f2030 	add	r2, pc, #48	; 0x30
    bad8:	e892000c 	ldmia	r2, {r2, r3}
    badc:	eb001aca 	bl	1260c <__muldf3>
    bae0:	e28f201c 	add	r2, pc, #28	; 0x1c
    bae4:	e892000c 	ldmia	r2, {r2, r3}
    bae8:	eb0019e6 	bl	12288 <__adddf3>
    baec:	eb001c40 	bl	12bf4 <__truncdfsf2>
    baf0:	e59f306c 	ldr	r3, [pc, #108]	; bb64 <.text+0x3b64>
    baf4:	e5830000 	str	r0, [r3]
    baf8:	eaffff84 	b	b910 <radio_control_task+0x408>
    bafc:	bfe33333 	swilt	0x00e33333
    bb00:	33333333 	teqcc	r3, #-872415232	; 0xcc000000
	...
    bb0c:	3fe00000 	swicc	0x00e00000
    bb10:	00000000 	andeq	r0, r0, r0
    bb14:	000135b8 	streqh	r3, [r1], -r8
    bb18:	00013b10 	andeq	r3, r1, r0, lsl fp
    bb1c:	00013af8 	streqd	r3, [r1], -r8
    bb20:	000135a4 	andeq	r3, r1, r4, lsr #11
    bb24:	00013b91 	muleq	r1, r1, fp
    bb28:	000139d0 	ldreqd	r3, [r1], -r0
    bb2c:	00013500 	andeq	r3, r1, r0, lsl #10
    bb30:	000135b4 	streqh	r3, [r1], -r4
    bb34:	000135a3 	andeq	r3, r1, r3, lsr #11
    bb38:	00013b70 	andeq	r3, r1, r0, ror fp
    bb3c:	000135b5 	streqh	r3, [r1], -r5
    bb40:	000139f1 	streqd	r3, [r1], -r1
    bb44:	000135ac 	andeq	r3, r1, ip, lsr #11
    bb48:	000135ae 	andeq	r3, r1, lr, lsr #11
    bb4c:	000139f0 	streqd	r3, [r1], -r0
    bb50:	00013ba8 	andeq	r3, r1, r8, lsr #23
    bb54:	000135ab 	andeq	r3, r1, fp, lsr #11
    bb58:	000135a6 	andeq	r3, r1, r6, lsr #11
    bb5c:	000135a0 	andeq	r3, r1, r0, lsr #11
    bb60:	0001378c 	andeq	r3, r1, ip, lsl #15
    bb64:	00013788 	andeq	r3, r1, r8, lsl #15
    bb68:	00013504 	andeq	r3, r1, r4, lsl #10
    bb6c:	00013bc4 	andeq	r3, r1, r4, asr #23
    bb70:	00013bdc 	ldreqd	r3, [r1], -ip
    bb74:	00013bbc 	streqh	r3, [r1], -ip
    bb78:	0001350a 	andeq	r3, r1, sl, lsl #10
    bb7c:	00013508 	andeq	r3, r1, r8, lsl #10
    bb80:	0001350c 	andeq	r3, r1, ip, lsl #10
    bb84:	000139e4 	andeq	r3, r1, r4, ror #19
    bb88:	000139f5 	streqd	r3, [r1], -r5
    bb8c:	000139f8 	streqd	r3, [r1], -r8
    bb90:	00013af7 	streqd	r3, [r1], -r7
    bb94:	000139f2 	streqd	r3, [r1], -r2
    bb98:	000139f7 	streqd	r3, [r1], -r7
    bb9c:	000139f4 	streqd	r3, [r1], -r4
    bba0:	000139f6 	streqd	r3, [r1], -r6
    bba4:	000139f3 	streqd	r3, [r1], -r3
    bba8:	e3530001 	cmp	r3, #1	; 0x1
    bbac:	1affff96 	bne	ba0c <radio_control_task+0x504>
    bbb0:	e1d830b2 	ldrh	r3, [r8, #2]
    bbb4:	e2833d4b 	add	r3, r3, #4800	; 0x12c0
    bbb8:	e1a03803 	mov	r3, r3, lsl #16
    bbbc:	e353057d 	cmp	r3, #524288000	; 0x1f400000
    bbc0:	9affff91 	bls	ba0c <radio_control_task+0x504>
    bbc4:	eb000bf1 	bl	eb90 <ir_gain_calib>
    bbc8:	e51f0030 	ldr	r0, [pc, #-48]	; bba0 <.text+0x3ba0>
    bbcc:	e51f104c 	ldr	r1, [pc, #-76]	; bb88 <.text+0x3b88>
    bbd0:	e51f2070 	ldr	r2, [pc, #-112]	; bb68 <.text+0x3b68>
    bbd4:	e5d03000 	ldrb	r3, [r0]
    bbd8:	e5d10000 	ldrb	r0, [r1]
    bbdc:	e5921000 	ldr	r1, [r2]
    bbe0:	e51f2074 	ldr	r2, [pc, #-116]	; bb74 <.text+0x3b74>
    bbe4:	e1500003 	cmp	r0, r3
    bbe8:	e5821000 	str	r1, [r2]
    bbec:	251f1054 	ldrcs	r1, [pc, #-84]	; bba0 <.text+0x3ba0>
    bbf0:	351f2058 	ldrcc	r2, [pc, #-88]	; bba0 <.text+0x3ba0>
    bbf4:	25d13000 	ldrcsb	r3, [r1]
    bbf8:	35d23000 	ldrccb	r3, [r2]
    bbfc:	20633000 	rsbcs	r3, r3, r0
    bc00:	226330ff 	rsbcs	r3, r3, #255	; 0xff
    bc04:	30603003 	rsbcc	r3, r0, r3
    bc08:	e3530014 	cmp	r3, #20	; 0x14
    bc0c:	d51f2070 	ldrle	r2, [pc, #-112]	; bba4 <.text+0x3ba4>
    bc10:	d5d23000 	ldrleb	r3, [r2]
    bc14:	d2833001 	addle	r3, r3, #1	; 0x1
    bc18:	d5c23000 	strleb	r3, [r2]
    bc1c:	da000137 	ble	c100 <.text+0x4100>
    bc20:	e51f30a0 	ldr	r3, [pc, #-160]	; bb88 <.text+0x3b88>
    bc24:	e5d32000 	ldrb	r2, [r3]
    bc28:	e51f00a8 	ldr	r0, [pc, #-168]	; bb88 <.text+0x3b88>
    bc2c:	e2823001 	add	r3, r2, #1	; 0x1
    bc30:	e5c03000 	strb	r3, [r0]
    bc34:	e5d00000 	ldrb	r0, [r0]
    bc38:	e35000ff 	cmp	r0, #255	; 0xff
    bc3c:	e51fc0bc 	ldr	ip, [pc, #-188]	; bb88 <.text+0x3b88>
    bc40:	03a03000 	moveq	r3, #0	; 0x0
    bc44:	01a00003 	moveq	r0, r3
    bc48:	05cc3000 	streqb	r3, [ip]
    bc4c:	e2803001 	add	r3, r0, #1	; 0x1
    bc50:	e51f70cc 	ldr	r7, [pc, #-204]	; bb8c <.text+0x3b8c>
    bc54:	e5cc3000 	strb	r3, [ip]
    bc58:	e3a01005 	mov	r1, #5	; 0x5
    bc5c:	e7c71002 	strb	r1, [r7, r2]
    bc60:	e7c71000 	strb	r1, [r7, r0]
    bc64:	e5dc0000 	ldrb	r0, [ip]
    bc68:	e35000ff 	cmp	r0, #255	; 0xff
    bc6c:	03a03000 	moveq	r3, #0	; 0x0
    bc70:	05cc3000 	streqb	r3, [ip]
    bc74:	e51fa110 	ldr	sl, [pc, #-272]	; bb6c <.text+0x3b6c>
    bc78:	e5da1000 	ldrb	r1, [sl]
    bc7c:	e51fe0f4 	ldr	lr, [pc, #-244]	; bb90 <.text+0x3b90>
    bc80:	01a00003 	moveq	r0, r3
    bc84:	e2802001 	add	r2, r0, #1	; 0x1
    bc88:	e2813005 	add	r3, r1, #5	; 0x5
    bc8c:	e5cc2000 	strb	r2, [ip]
    bc90:	e5ce3000 	strb	r3, [lr]
    bc94:	e7c71000 	strb	r1, [r7, r0]
    bc98:	e5de5000 	ldrb	r5, [lr]
    bc9c:	e5dc0000 	ldrb	r0, [ip]
    bca0:	e51f4114 	ldr	r4, [pc, #-276]	; bb94 <.text+0x3b94>
    bca4:	e2853005 	add	r3, r5, #5	; 0x5
    bca8:	e35000ff 	cmp	r0, #255	; 0xff
    bcac:	e5c43000 	strb	r3, [r4]
    bcb0:	03a03000 	moveq	r3, #0	; 0x0
    bcb4:	05cc3000 	streqb	r3, [ip]
    bcb8:	e5da1001 	ldrb	r1, [sl, #1]
    bcbc:	01a00003 	moveq	r0, r3
    bcc0:	e2802001 	add	r2, r0, #1	; 0x1
    bcc4:	e0813005 	add	r3, r1, r5
    bcc8:	e5cc2000 	strb	r2, [ip]
    bccc:	e5ce3000 	strb	r3, [lr]
    bcd0:	e7c71000 	strb	r1, [r7, r0]
    bcd4:	e5de5000 	ldrb	r5, [lr]
    bcd8:	e5dc0000 	ldrb	r0, [ip]
    bcdc:	e5d43000 	ldrb	r3, [r4]
    bce0:	e35000ff 	cmp	r0, #255	; 0xff
    bce4:	e0833005 	add	r3, r3, r5
    bce8:	e5c43000 	strb	r3, [r4]
    bcec:	03a03000 	moveq	r3, #0	; 0x0
    bcf0:	05cc3000 	streqb	r3, [ip]
    bcf4:	e5da1002 	ldrb	r1, [sl, #2]
    bcf8:	01a00003 	moveq	r0, r3
    bcfc:	e2802001 	add	r2, r0, #1	; 0x1
    bd00:	e0813005 	add	r3, r1, r5
    bd04:	e5ce3000 	strb	r3, [lr]
    bd08:	e5cc2000 	strb	r2, [ip]
    bd0c:	e5de5000 	ldrb	r5, [lr]
    bd10:	e7c71000 	strb	r1, [r7, r0]
    bd14:	e5d43000 	ldrb	r3, [r4]
    bd18:	e5dc0000 	ldrb	r0, [ip]
    bd1c:	e0833005 	add	r3, r3, r5
    bd20:	e35000ff 	cmp	r0, #255	; 0xff
    bd24:	e5c43000 	strb	r3, [r4]
    bd28:	03a03000 	moveq	r3, #0	; 0x0
    bd2c:	05cc3000 	streqb	r3, [ip]
    bd30:	e5da1003 	ldrb	r1, [sl, #3]
    bd34:	01a00003 	moveq	r0, r3
    bd38:	e2802001 	add	r2, r0, #1	; 0x1
    bd3c:	e0813005 	add	r3, r1, r5
    bd40:	e5cc2000 	strb	r2, [ip]
    bd44:	e5ce3000 	strb	r3, [lr]
    bd48:	e7c71000 	strb	r1, [r7, r0]
    bd4c:	e5de5000 	ldrb	r5, [lr]
    bd50:	e5dc0000 	ldrb	r0, [ip]
    bd54:	e5d43000 	ldrb	r3, [r4]
    bd58:	e35000ff 	cmp	r0, #255	; 0xff
    bd5c:	e0833005 	add	r3, r3, r5
    bd60:	e5c43000 	strb	r3, [r4]
    bd64:	03a03000 	moveq	r3, #0	; 0x0
    bd68:	05cc3000 	streqb	r3, [ip]
    bd6c:	e51fa204 	ldr	sl, [pc, #-516]	; bb70 <.text+0x3b70>
    bd70:	e5da1000 	ldrb	r1, [sl]
    bd74:	01a00003 	moveq	r0, r3
    bd78:	e2802001 	add	r2, r0, #1	; 0x1
    bd7c:	e0813005 	add	r3, r1, r5
    bd80:	e5cc2000 	strb	r2, [ip]
    bd84:	e5ce3000 	strb	r3, [lr]
    bd88:	e7c71000 	strb	r1, [r7, r0]
    bd8c:	e5de5000 	ldrb	r5, [lr]
    bd90:	e5dc0000 	ldrb	r0, [ip]
    bd94:	e5d43000 	ldrb	r3, [r4]
    bd98:	e35000ff 	cmp	r0, #255	; 0xff
    bd9c:	e0833005 	add	r3, r3, r5
    bda0:	e5c43000 	strb	r3, [r4]
    bda4:	03a03000 	moveq	r3, #0	; 0x0
    bda8:	05cc3000 	streqb	r3, [ip]
    bdac:	e5da1001 	ldrb	r1, [sl, #1]
    bdb0:	01a00003 	moveq	r0, r3
    bdb4:	e2802001 	add	r2, r0, #1	; 0x1
    bdb8:	e0813005 	add	r3, r1, r5
    bdbc:	e5cc2000 	strb	r2, [ip]
    bdc0:	e5ce3000 	strb	r3, [lr]
    bdc4:	e7c71000 	strb	r1, [r7, r0]
    bdc8:	e5de5000 	ldrb	r5, [lr]
    bdcc:	e5dc0000 	ldrb	r0, [ip]
    bdd0:	e5d43000 	ldrb	r3, [r4]
    bdd4:	e35000ff 	cmp	r0, #255	; 0xff
    bdd8:	e0833005 	add	r3, r3, r5
    bddc:	e5c43000 	strb	r3, [r4]
    bde0:	03a03000 	moveq	r3, #0	; 0x0
    bde4:	05cc3000 	streqb	r3, [ip]
    bde8:	e5da1002 	ldrb	r1, [sl, #2]
    bdec:	01a00003 	moveq	r0, r3
    bdf0:	e2802001 	add	r2, r0, #1	; 0x1
    bdf4:	e0813005 	add	r3, r1, r5
    bdf8:	e5ce3000 	strb	r3, [lr]
    bdfc:	e5cc2000 	strb	r2, [ip]
    be00:	e5de5000 	ldrb	r5, [lr]
    be04:	e7c71000 	strb	r1, [r7, r0]
    be08:	e5d43000 	ldrb	r3, [r4]
    be0c:	e5dc0000 	ldrb	r0, [ip]
    be10:	e0833005 	add	r3, r3, r5
    be14:	e35000ff 	cmp	r0, #255	; 0xff
    be18:	e5c43000 	strb	r3, [r4]
    be1c:	03a03000 	moveq	r3, #0	; 0x0
    be20:	05cc3000 	streqb	r3, [ip]
    be24:	e5da1003 	ldrb	r1, [sl, #3]
    be28:	01a00003 	moveq	r0, r3
    be2c:	e2802001 	add	r2, r0, #1	; 0x1
    be30:	e0813005 	add	r3, r1, r5
    be34:	e5cc2000 	strb	r2, [ip]
    be38:	e5ce3000 	strb	r3, [lr]
    be3c:	e7c71000 	strb	r1, [r7, r0]
    be40:	e5de5000 	ldrb	r5, [lr]
    be44:	e5dc0000 	ldrb	r0, [ip]
    be48:	e5d43000 	ldrb	r3, [r4]
    be4c:	e35000ff 	cmp	r0, #255	; 0xff
    be50:	e0833005 	add	r3, r3, r5
    be54:	e5c43000 	strb	r3, [r4]
    be58:	03a03000 	moveq	r3, #0	; 0x0
    be5c:	05cc3000 	streqb	r3, [ip]
    be60:	e51f22f4 	ldr	r2, [pc, #-756]	; bb74 <.text+0x3b74>
    be64:	e5d21000 	ldrb	r1, [r2]
    be68:	01a00003 	moveq	r0, r3
    be6c:	e2802001 	add	r2, r0, #1	; 0x1
    be70:	e0813005 	add	r3, r1, r5
    be74:	e5cc2000 	strb	r2, [ip]
    be78:	e5ce3000 	strb	r3, [lr]
    be7c:	e7c71000 	strb	r1, [r7, r0]
    be80:	e5de5000 	ldrb	r5, [lr]
    be84:	e5dc0000 	ldrb	r0, [ip]
    be88:	e5d43000 	ldrb	r3, [r4]
    be8c:	e35000ff 	cmp	r0, #255	; 0xff
    be90:	e0833005 	add	r3, r3, r5
    be94:	e5c43000 	strb	r3, [r4]
    be98:	03a03000 	moveq	r3, #0	; 0x0
    be9c:	05cc3000 	streqb	r3, [ip]
    bea0:	e51fa334 	ldr	sl, [pc, #-820]	; bb74 <.text+0x3b74>
    bea4:	e5da1001 	ldrb	r1, [sl, #1]
    bea8:	01a00003 	moveq	r0, r3
    beac:	e2802001 	add	r2, r0, #1	; 0x1
    beb0:	e0813005 	add	r3, r1, r5
    beb4:	e5cc2000 	strb	r2, [ip]
    beb8:	e5ce3000 	strb	r3, [lr]
    bebc:	e7c71000 	strb	r1, [r7, r0]
    bec0:	e5de5000 	ldrb	r5, [lr]
    bec4:	e5dc0000 	ldrb	r0, [ip]
    bec8:	e5d43000 	ldrb	r3, [r4]
    becc:	e35000ff 	cmp	r0, #255	; 0xff
    bed0:	e0833005 	add	r3, r3, r5
    bed4:	e5c43000 	strb	r3, [r4]
    bed8:	03a03000 	moveq	r3, #0	; 0x0
    bedc:	05cc3000 	streqb	r3, [ip]
    bee0:	e5da1002 	ldrb	r1, [sl, #2]
    bee4:	01a00003 	moveq	r0, r3
    bee8:	e2802001 	add	r2, r0, #1	; 0x1
    beec:	e0813005 	add	r3, r1, r5
    bef0:	e5ce3000 	strb	r3, [lr]
    bef4:	e5cc2000 	strb	r2, [ip]
    bef8:	e5de5000 	ldrb	r5, [lr]
    befc:	e7c71000 	strb	r1, [r7, r0]
    bf00:	e5d43000 	ldrb	r3, [r4]
    bf04:	e5dc0000 	ldrb	r0, [ip]
    bf08:	e0833005 	add	r3, r3, r5
    bf0c:	e35000ff 	cmp	r0, #255	; 0xff
    bf10:	e5c43000 	strb	r3, [r4]
    bf14:	03a03000 	moveq	r3, #0	; 0x0
    bf18:	05cc3000 	streqb	r3, [ip]
    bf1c:	e5da1003 	ldrb	r1, [sl, #3]
    bf20:	01a00003 	moveq	r0, r3
    bf24:	e2802001 	add	r2, r0, #1	; 0x1
    bf28:	e0813005 	add	r3, r1, r5
    bf2c:	e5cc2000 	strb	r2, [ip]
    bf30:	e5ce3000 	strb	r3, [lr]
    bf34:	e7c71000 	strb	r1, [r7, r0]
    bf38:	e5de5000 	ldrb	r5, [lr]
    bf3c:	e5dc0000 	ldrb	r0, [ip]
    bf40:	e5d43000 	ldrb	r3, [r4]
    bf44:	e35000ff 	cmp	r0, #255	; 0xff
    bf48:	e0833005 	add	r3, r3, r5
    bf4c:	e5c43000 	strb	r3, [r4]
    bf50:	03a03000 	moveq	r3, #0	; 0x0
    bf54:	05cc3000 	streqb	r3, [ip]
    bf58:	e51fa3e8 	ldr	sl, [pc, #-1000]	; bb78 <.text+0x3b78>
    bf5c:	e5da1000 	ldrb	r1, [sl]
    bf60:	01a00003 	moveq	r0, r3
    bf64:	e2802001 	add	r2, r0, #1	; 0x1
    bf68:	e0813005 	add	r3, r1, r5
    bf6c:	e5cc2000 	strb	r2, [ip]
    bf70:	e5ce3000 	strb	r3, [lr]
    bf74:	e7c71000 	strb	r1, [r7, r0]
    bf78:	e5de5000 	ldrb	r5, [lr]
    bf7c:	e5dc0000 	ldrb	r0, [ip]
    bf80:	e5d43000 	ldrb	r3, [r4]
    bf84:	e35000ff 	cmp	r0, #255	; 0xff
    bf88:	e0833005 	add	r3, r3, r5
    bf8c:	e5c43000 	strb	r3, [r4]
    bf90:	03a03000 	moveq	r3, #0	; 0x0
    bf94:	05cc3000 	streqb	r3, [ip]
    bf98:	e5da1001 	ldrb	r1, [sl, #1]
    bf9c:	01a00003 	moveq	r0, r3
    bfa0:	e2802001 	add	r2, r0, #1	; 0x1
    bfa4:	e0813005 	add	r3, r1, r5
    bfa8:	e5cc2000 	strb	r2, [ip]
    bfac:	e5ce3000 	strb	r3, [lr]
    bfb0:	e7c71000 	strb	r1, [r7, r0]
    bfb4:	e5de5000 	ldrb	r5, [lr]
    bfb8:	e5dc0000 	ldrb	r0, [ip]
    bfbc:	e5d43000 	ldrb	r3, [r4]
    bfc0:	e35000ff 	cmp	r0, #255	; 0xff
    bfc4:	e0833005 	add	r3, r3, r5
    bfc8:	e5c43000 	strb	r3, [r4]
    bfcc:	03a03000 	moveq	r3, #0	; 0x0
    bfd0:	05cc3000 	streqb	r3, [ip]
    bfd4:	e51fa460 	ldr	sl, [pc, #-1120]	; bb7c <.text+0x3b7c>
    bfd8:	e5da1000 	ldrb	r1, [sl]
    bfdc:	01a00003 	moveq	r0, r3
    bfe0:	e2802001 	add	r2, r0, #1	; 0x1
    bfe4:	e0813005 	add	r3, r1, r5
    bfe8:	e5ce3000 	strb	r3, [lr]
    bfec:	e5cc2000 	strb	r2, [ip]
    bff0:	e5de5000 	ldrb	r5, [lr]
    bff4:	e7c71000 	strb	r1, [r7, r0]
    bff8:	e5d43000 	ldrb	r3, [r4]
    bffc:	e5dc0000 	ldrb	r0, [ip]
    c000:	e0833005 	add	r3, r3, r5
    c004:	e35000ff 	cmp	r0, #255	; 0xff
    c008:	e5c43000 	strb	r3, [r4]
    c00c:	03a03000 	moveq	r3, #0	; 0x0
    c010:	05cc3000 	streqb	r3, [ip]
    c014:	e5da1001 	ldrb	r1, [sl, #1]
    c018:	01a00003 	moveq	r0, r3
    c01c:	e2802001 	add	r2, r0, #1	; 0x1
    c020:	e0813005 	add	r3, r1, r5
    c024:	e5cc2000 	strb	r2, [ip]
    c028:	e5ce3000 	strb	r3, [lr]
    c02c:	e7c71000 	strb	r1, [r7, r0]
    c030:	e5d43000 	ldrb	r3, [r4]
    c034:	e5dc0000 	ldrb	r0, [ip]
    c038:	e5de1000 	ldrb	r1, [lr]
    c03c:	e35000ff 	cmp	r0, #255	; 0xff
    c040:	e0833001 	add	r3, r3, r1
    c044:	e5c43000 	strb	r3, [r4]
    c048:	03a03000 	moveq	r3, #0	; 0x0
    c04c:	01a00003 	moveq	r0, r3
    c050:	05cc3000 	streqb	r3, [ip]
    c054:	e2803001 	add	r3, r0, #1	; 0x1
    c058:	e5cc3000 	strb	r3, [ip]
    c05c:	e7c71000 	strb	r1, [r7, r0]
    c060:	e5dc0000 	ldrb	r0, [ip]
    c064:	e35000ff 	cmp	r0, #255	; 0xff
    c068:	03a03000 	moveq	r3, #0	; 0x0
    c06c:	01a00003 	moveq	r0, r3
    c070:	05cc3000 	streqb	r3, [ip]
    c074:	e2803001 	add	r3, r0, #1	; 0x1
    c078:	e5cc3000 	strb	r3, [ip]
    c07c:	e5dc2000 	ldrb	r2, [ip]
    c080:	e5d43000 	ldrb	r3, [r4]
    c084:	e35200ff 	cmp	r2, #255	; 0xff
    c088:	e7c73000 	strb	r3, [r7, r0]
    c08c:	03a03000 	moveq	r3, #0	; 0x0
    c090:	05cc3000 	streqb	r3, [ip]
    c094:	e3a0c059 	mov	ip, #89	; 0x59
    c098:	e5dc3000 	ldrb	r3, [ip]
    c09c:	e1a03223 	mov	r3, r3, lsr #4
    c0a0:	e213e001 	ands	lr, r3, #1	; 0x1
    c0a4:	1a000015 	bne	c100 <.text+0x4100>
    c0a8:	e51f3510 	ldr	r3, [pc, #-1296]	; bba0 <.text+0x3ba0>
    c0ac:	e5d30000 	ldrb	r0, [r3]
    c0b0:	e5d33000 	ldrb	r3, [r3]
    c0b4:	e51f151c 	ldr	r1, [pc, #-1308]	; bba0 <.text+0x3ba0>
    c0b8:	e2833001 	add	r3, r3, #1	; 0x1
    c0bc:	e5c13000 	strb	r3, [r1]
    c0c0:	e5d12000 	ldrb	r2, [r1]
    c0c4:	e35200ff 	cmp	r2, #255	; 0xff
    c0c8:	e51f2538 	ldr	r2, [pc, #-1336]	; bb98 <.text+0x3b98>
    c0cc:	e7d71000 	ldrb	r1, [r7, r0]
    c0d0:	e5c2e000 	strb	lr, [r2]
    c0d4:	e51f3540 	ldr	r3, [pc, #-1344]	; bb9c <.text+0x3b9c>
    c0d8:	051f2540 	ldreq	r2, [pc, #-1344]	; bba0 <.text+0x3ba0>
    c0dc:	e5c31000 	strb	r1, [r3]
    c0e0:	05c2e000 	streqb	lr, [r2]
    c0e4:	e3a03058 	mov	r3, #88	; 0x58
    c0e8:	e5d32000 	ldrb	r2, [r3]
    c0ec:	e3822001 	orr	r2, r2, #1	; 0x1
    c0f0:	e5c32000 	strb	r2, [r3]
    c0f4:	e5dc1000 	ldrb	r1, [ip]
    c0f8:	e3811010 	orr	r1, r1, #16	; 0x10
    c0fc:	e5cc1000 	strb	r1, [ip]
    c100:	e51f3568 	ldr	r3, [pc, #-1384]	; bba0 <.text+0x3ba0>
    c104:	e51f0584 	ldr	r0, [pc, #-1412]	; bb88 <.text+0x3b88>
    c108:	e5d32000 	ldrb	r2, [r3]
    c10c:	e5d01000 	ldrb	r1, [r0]
    c110:	e1510002 	cmp	r1, r2
    c114:	251f257c 	ldrcs	r2, [pc, #-1404]	; bba0 <.text+0x3ba0>
    c118:	e3a03002 	mov	r3, #2	; 0x2
    c11c:	351f2584 	ldrcc	r2, [pc, #-1412]	; bba0 <.text+0x3ba0>
    c120:	e5c63000 	strb	r3, [r6]
    c124:	25d23000 	ldrcsb	r3, [r2]
    c128:	35d23000 	ldrccb	r3, [r2]
    c12c:	20633001 	rsbcs	r3, r3, r1
    c130:	226330ff 	rsbcs	r3, r3, #255	; 0xff
    c134:	30613003 	rsbcc	r3, r1, r3
    c138:	e3530006 	cmp	r3, #6	; 0x6
    c13c:	da0000b2 	ble	c40c <.text+0x440c>
    c140:	e51f05c0 	ldr	r0, [pc, #-1472]	; bb88 <.text+0x3b88>
    c144:	e5d03000 	ldrb	r3, [r0]
    c148:	e2832001 	add	r2, r3, #1	; 0x1
    c14c:	e5c02000 	strb	r2, [r0]
    c150:	e5d00000 	ldrb	r0, [r0]
    c154:	e51f55d0 	ldr	r5, [pc, #-1488]	; bb8c <.text+0x3b8c>
    c158:	e35000ff 	cmp	r0, #255	; 0xff
    c15c:	e3a02005 	mov	r2, #5	; 0x5
    c160:	e51fc5e0 	ldr	ip, [pc, #-1504]	; bb88 <.text+0x3b88>
    c164:	e7c52003 	strb	r2, [r5, r3]
    c168:	03a03000 	moveq	r3, #0	; 0x0
    c16c:	01a00003 	moveq	r0, r3
    c170:	05cc3000 	streqb	r3, [ip]
    c174:	e2803001 	add	r3, r0, #1	; 0x1
    c178:	e5cc3000 	strb	r3, [ip]
    c17c:	e3a02003 	mov	r2, #3	; 0x3
    c180:	e7c52000 	strb	r2, [r5, r0]
    c184:	e5dc0000 	ldrb	r0, [ip]
    c188:	e35000ff 	cmp	r0, #255	; 0xff
    c18c:	03a03000 	moveq	r3, #0	; 0x0
    c190:	05cc3000 	streqb	r3, [ip]
    c194:	e51f761c 	ldr	r7, [pc, #-1564]	; bb80 <.text+0x3b80>
    c198:	e5d71000 	ldrb	r1, [r7]
    c19c:	01a00003 	moveq	r0, r3
    c1a0:	e51f4618 	ldr	r4, [pc, #-1560]	; bb90 <.text+0x3b90>
    c1a4:	e2802001 	add	r2, r0, #1	; 0x1
    c1a8:	e2813003 	add	r3, r1, #3	; 0x3
    c1ac:	e5cc2000 	strb	r2, [ip]
    c1b0:	e5c43000 	strb	r3, [r4]
    c1b4:	e7c51000 	strb	r1, [r5, r0]
    c1b8:	e5d4e000 	ldrb	lr, [r4]
    c1bc:	e5dc0000 	ldrb	r0, [ip]
    c1c0:	e51f6634 	ldr	r6, [pc, #-1588]	; bb94 <.text+0x3b94>
    c1c4:	e28e3003 	add	r3, lr, #3	; 0x3
    c1c8:	e35000ff 	cmp	r0, #255	; 0xff
    c1cc:	e5c63000 	strb	r3, [r6]
    c1d0:	03a03000 	moveq	r3, #0	; 0x0
    c1d4:	05cc3000 	streqb	r3, [ip]
    c1d8:	e5d71001 	ldrb	r1, [r7, #1]
    c1dc:	01a00003 	moveq	r0, r3
    c1e0:	e2802001 	add	r2, r0, #1	; 0x1
    c1e4:	e081300e 	add	r3, r1, lr
    c1e8:	e5cc2000 	strb	r2, [ip]
    c1ec:	e5c43000 	strb	r3, [r4]
    c1f0:	e7c51000 	strb	r1, [r5, r0]
    c1f4:	e5d63000 	ldrb	r3, [r6]
    c1f8:	e5dc0000 	ldrb	r0, [ip]
    c1fc:	e5d41000 	ldrb	r1, [r4]
    c200:	e35000ff 	cmp	r0, #255	; 0xff
    c204:	e0833001 	add	r3, r3, r1
    c208:	e5c63000 	strb	r3, [r6]
    c20c:	03a03000 	moveq	r3, #0	; 0x0
    c210:	01a00003 	moveq	r0, r3
    c214:	05cc3000 	streqb	r3, [ip]
    c218:	e2803001 	add	r3, r0, #1	; 0x1
    c21c:	e5cc3000 	strb	r3, [ip]
    c220:	e7c51000 	strb	r1, [r5, r0]
    c224:	e5dc0000 	ldrb	r0, [ip]
    c228:	e35000ff 	cmp	r0, #255	; 0xff
    c22c:	03a03000 	moveq	r3, #0	; 0x0
    c230:	01a00003 	moveq	r0, r3
    c234:	05cc3000 	streqb	r3, [ip]
    c238:	e2803001 	add	r3, r0, #1	; 0x1
    c23c:	e5cc3000 	strb	r3, [ip]
    c240:	e5dc2000 	ldrb	r2, [ip]
    c244:	e5d63000 	ldrb	r3, [r6]
    c248:	e35200ff 	cmp	r2, #255	; 0xff
    c24c:	e7c53000 	strb	r3, [r5, r0]
    c250:	03a03000 	moveq	r3, #0	; 0x0
    c254:	05cc3000 	streqb	r3, [ip]
    c258:	e3a0c059 	mov	ip, #89	; 0x59
    c25c:	e5dc3000 	ldrb	r3, [ip]
    c260:	e1a03223 	mov	r3, r3, lsr #4
    c264:	e213e001 	ands	lr, r3, #1	; 0x1
    c268:	1afffde7 	bne	ba0c <radio_control_task+0x504>
    c26c:	e51f16d4 	ldr	r1, [pc, #-1748]	; bba0 <.text+0x3ba0>
    c270:	e5d10000 	ldrb	r0, [r1]
    c274:	e5d13000 	ldrb	r3, [r1]
    c278:	e2833001 	add	r3, r3, #1	; 0x1
    c27c:	e5c13000 	strb	r3, [r1]
    c280:	e5d12000 	ldrb	r2, [r1]
    c284:	e35200ff 	cmp	r2, #255	; 0xff
    c288:	e51f26f8 	ldr	r2, [pc, #-1784]	; bb98 <.text+0x3b98>
    c28c:	e7d51000 	ldrb	r1, [r5, r0]
    c290:	e51f36fc 	ldr	r3, [pc, #-1788]	; bb9c <.text+0x3b9c>
    c294:	e5c2e000 	strb	lr, [r2]
    c298:	051f2700 	ldreq	r2, [pc, #-1792]	; bba0 <.text+0x3ba0>
    c29c:	e5c31000 	strb	r1, [r3]
    c2a0:	05c2e000 	streqb	lr, [r2]
    c2a4:	e3a03058 	mov	r3, #88	; 0x58
    c2a8:	e5d32000 	ldrb	r2, [r3]
    c2ac:	e3822001 	orr	r2, r2, #1	; 0x1
    c2b0:	e5c32000 	strb	r2, [r3]
    c2b4:	e5dc1000 	ldrb	r1, [ip]
    c2b8:	e3811010 	orr	r1, r1, #16	; 0x10
    c2bc:	e5cc1000 	strb	r1, [ip]
    c2c0:	eafffdd1 	b	ba0c <radio_control_task+0x504>
    c2c4:	e51f2748 	ldr	r2, [pc, #-1864]	; bb84 <.text+0x3b84>
    c2c8:	e5d23000 	ldrb	r3, [r2]
    c2cc:	e3530000 	cmp	r3, #0	; 0x0
    c2d0:	01a01003 	moveq	r1, r3
    c2d4:	0afffcbc 	beq	b5cc <radio_control_task+0xc4>
    c2d8:	e3a03000 	mov	r3, #0	; 0x0
    c2dc:	e5c23000 	strb	r3, [r2]
    c2e0:	eafffcad 	b	b59c <radio_control_task+0x94>
    c2e4:	e51f3764 	ldr	r3, [pc, #-1892]	; bb88 <.text+0x3b88>
    c2e8:	e51f0750 	ldr	r0, [pc, #-1872]	; bba0 <.text+0x3ba0>
    c2ec:	e5d31000 	ldrb	r1, [r3]
    c2f0:	e5d03000 	ldrb	r3, [r0]
    c2f4:	e1510003 	cmp	r1, r3
    c2f8:	e5c62000 	strb	r2, [r6]
    c2fc:	351f2764 	ldrcc	r2, [pc, #-1892]	; bba0 <.text+0x3ba0>
    c300:	25d03000 	ldrcsb	r3, [r0]
    c304:	35d23000 	ldrccb	r3, [r2]
    c308:	20633001 	rsbcs	r3, r3, r1
    c30c:	226330ff 	rsbcs	r3, r3, #255	; 0xff
    c310:	30613003 	rsbcc	r3, r1, r3
    c314:	e3530004 	cmp	r3, #4	; 0x4
    c318:	da00003b 	ble	c40c <.text+0x440c>
    c31c:	e51f079c 	ldr	r0, [pc, #-1948]	; bb88 <.text+0x3b88>
    c320:	e5d03000 	ldrb	r3, [r0]
    c324:	e2832001 	add	r2, r3, #1	; 0x1
    c328:	e5c02000 	strb	r2, [r0]
    c32c:	e5d01000 	ldrb	r1, [r0]
    c330:	e51fe7ac 	ldr	lr, [pc, #-1964]	; bb8c <.text+0x3b8c>
    c334:	e35100ff 	cmp	r1, #255	; 0xff
    c338:	e3a02005 	mov	r2, #5	; 0x5
    c33c:	e7ce2003 	strb	r2, [lr, r3]
    c340:	03a03000 	moveq	r3, #0	; 0x0
    c344:	01a01003 	moveq	r1, r3
    c348:	05c03000 	streqb	r3, [r0]
    c34c:	e2813001 	add	r3, r1, #1	; 0x1
    c350:	e5c03000 	strb	r3, [r0]
    c354:	e3a0c002 	mov	ip, #2	; 0x2
    c358:	e7cec001 	strb	ip, [lr, r1]
    c35c:	e5d01000 	ldrb	r1, [r0]
    c360:	e35100ff 	cmp	r1, #255	; 0xff
    c364:	03a03000 	moveq	r3, #0	; 0x0
    c368:	01a01003 	moveq	r1, r3
    c36c:	05c03000 	streqb	r3, [r0]
    c370:	e2813001 	add	r3, r1, #1	; 0x1
    c374:	e5c03000 	strb	r3, [r0]
    c378:	e7cec001 	strb	ip, [lr, r1]
    c37c:	e5d01000 	ldrb	r1, [r0]
    c380:	e51f37f8 	ldr	r3, [pc, #-2040]	; bb90 <.text+0x3b90>
    c384:	e35100ff 	cmp	r1, #255	; 0xff
    c388:	e5c3c000 	strb	ip, [r3]
    c38c:	03a03000 	moveq	r3, #0	; 0x0
    c390:	01a01003 	moveq	r1, r3
    c394:	05c03000 	streqb	r3, [r0]
    c398:	e2813001 	add	r3, r1, #1	; 0x1
    c39c:	e5c03000 	strb	r3, [r0]
    c3a0:	e51f2814 	ldr	r2, [pc, #-2068]	; bb94 <.text+0x3b94>
    c3a4:	e5c2c000 	strb	ip, [r2]
    c3a8:	e5d02000 	ldrb	r2, [r0]
    c3ac:	e35200ff 	cmp	r2, #255	; 0xff
    c3b0:	03a03000 	moveq	r3, #0	; 0x0
    c3b4:	e7cec001 	strb	ip, [lr, r1]
    c3b8:	05c03000 	streqb	r3, [r0]
    c3bc:	e3a0c059 	mov	ip, #89	; 0x59
    c3c0:	e5dc3000 	ldrb	r3, [ip]
    c3c4:	e1a03223 	mov	r3, r3, lsr #4
    c3c8:	e2134001 	ands	r4, r3, #1	; 0x1
    c3cc:	1afffd8e 	bne	ba0c <radio_control_task+0x504>
    c3d0:	e51f1838 	ldr	r1, [pc, #-2104]	; bba0 <.text+0x3ba0>
    c3d4:	e5d10000 	ldrb	r0, [r1]
    c3d8:	e5d13000 	ldrb	r3, [r1]
    c3dc:	e2833001 	add	r3, r3, #1	; 0x1
    c3e0:	e5c13000 	strb	r3, [r1]
    c3e4:	e5d12000 	ldrb	r2, [r1]
    c3e8:	e35200ff 	cmp	r2, #255	; 0xff
    c3ec:	e51f285c 	ldr	r2, [pc, #-2140]	; bb98 <.text+0x3b98>
    c3f0:	e7de1000 	ldrb	r1, [lr, r0]
    c3f4:	e51f3860 	ldr	r3, [pc, #-2144]	; bb9c <.text+0x3b9c>
    c3f8:	e5c24000 	strb	r4, [r2]
    c3fc:	051f2864 	ldreq	r2, [pc, #-2148]	; bba0 <.text+0x3ba0>
    c400:	e5c31000 	strb	r1, [r3]
    c404:	05c24000 	streqb	r4, [r2]
    c408:	eaffffa5 	b	c2a4 <.text+0x42a4>
    c40c:	e51f2870 	ldr	r2, [pc, #-2160]	; bba4 <.text+0x3ba4>
    c410:	e5d23000 	ldrb	r3, [r2]
    c414:	e2833001 	add	r3, r3, #1	; 0x1
    c418:	e5c23000 	strb	r3, [r2]
    c41c:	eafffd7a 	b	ba0c <radio_control_task+0x504>

0000c420 <navigation_update>:
    c420:	e59f301c 	ldr	r3, [pc, #28]	; c444 <.text+0x4444>
    c424:	e5d32000 	ldrb	r2, [r3]
    c428:	e59f3018 	ldr	r3, [pc, #24]	; c448 <.text+0x4448>
    c42c:	e3a01003 	mov	r1, #3	; 0x3
    c430:	e3520003 	cmp	r2, #3	; 0x3
    c434:	e5c31000 	strb	r1, [r3]
    c438:	0a000000 	beq	c440 <navigation_update+0x20>
    c43c:	ea000d6c 	b	f9f4 <nav_update>
    c440:	ea000c91 	b	f68c <nav_home>
    c444:	000135a4 	andeq	r3, r1, r4, lsr #11
    c448:	000135a2 	andeq	r3, r1, r2, lsr #11

0000c44c <send_nav_values>:
    c44c:	e92d40f0 	stmdb	sp!, {r4, r5, r6, r7, lr}
    c450:	e59f176c 	ldr	r1, [pc, #1900]	; cbc4 <.text+0x4bc4>
    c454:	e59f776c 	ldr	r7, [pc, #1900]	; cbc8 <.text+0x4bc8>
    c458:	e5d12000 	ldrb	r2, [r1]
    c45c:	e5d73000 	ldrb	r3, [r7]
    c460:	e1520003 	cmp	r2, r3
    c464:	25d73000 	ldrcsb	r3, [r7]
    c468:	35d73000 	ldrccb	r3, [r7]
    c46c:	20633002 	rsbcs	r3, r3, r2
    c470:	30623003 	rsbcc	r3, r2, r3
    c474:	226330ff 	rsbcs	r3, r3, #255	; 0xff
    c478:	e353001e 	cmp	r3, #30	; 0x1e
    c47c:	d59f2748 	ldrle	r2, [pc, #1864]	; cbcc <.text+0x4bcc>
    c480:	d5d23000 	ldrleb	r3, [r2]
    c484:	d2833001 	addle	r3, r3, #1	; 0x1
    c488:	d5c23000 	strleb	r3, [r2]
    c48c:	d8bd80f0 	ldmleia	sp!, {r4, r5, r6, r7, pc}
    c490:	e5d13000 	ldrb	r3, [r1]
    c494:	e2832001 	add	r2, r3, #1	; 0x1
    c498:	e5c12000 	strb	r2, [r1]
    c49c:	e5d10000 	ldrb	r0, [r1]
    c4a0:	e59f5728 	ldr	r5, [pc, #1832]	; cbd0 <.text+0x4bd0>
    c4a4:	e35000ff 	cmp	r0, #255	; 0xff
    c4a8:	e3a02005 	mov	r2, #5	; 0x5
    c4ac:	e7c52003 	strb	r2, [r5, r3]
    c4b0:	03a03000 	moveq	r3, #0	; 0x0
    c4b4:	e59fc708 	ldr	ip, [pc, #1800]	; cbc4 <.text+0x4bc4>
    c4b8:	01a00003 	moveq	r0, r3
    c4bc:	05c13000 	streqb	r3, [r1]
    c4c0:	e2803001 	add	r3, r0, #1	; 0x1
    c4c4:	e5cc3000 	strb	r3, [ip]
    c4c8:	e3a0200a 	mov	r2, #10	; 0xa
    c4cc:	e7c52000 	strb	r2, [r5, r0]
    c4d0:	e5dc0000 	ldrb	r0, [ip]
    c4d4:	e35000ff 	cmp	r0, #255	; 0xff
    c4d8:	03a03000 	moveq	r3, #0	; 0x0
    c4dc:	05cc3000 	streqb	r3, [ip]
    c4e0:	01a00003 	moveq	r0, r3
    c4e4:	e59f36e8 	ldr	r3, [pc, #1768]	; cbd4 <.text+0x4bd4>
    c4e8:	e5d31000 	ldrb	r1, [r3]
    c4ec:	e59fe6e4 	ldr	lr, [pc, #1764]	; cbd8 <.text+0x4bd8>
    c4f0:	e2802001 	add	r2, r0, #1	; 0x1
    c4f4:	e281300a 	add	r3, r1, #10	; 0xa
    c4f8:	e5cc2000 	strb	r2, [ip]
    c4fc:	e5ce3000 	strb	r3, [lr]
    c500:	e7c51000 	strb	r1, [r5, r0]
    c504:	e5de2000 	ldrb	r2, [lr]
    c508:	e5dc0000 	ldrb	r0, [ip]
    c50c:	e59f46c8 	ldr	r4, [pc, #1736]	; cbdc <.text+0x4bdc>
    c510:	e282300a 	add	r3, r2, #10	; 0xa
    c514:	e35000ff 	cmp	r0, #255	; 0xff
    c518:	e5c43000 	strb	r3, [r4]
    c51c:	03a03000 	moveq	r3, #0	; 0x0
    c520:	05cc3000 	streqb	r3, [ip]
    c524:	01a00003 	moveq	r0, r3
    c528:	e59f36b0 	ldr	r3, [pc, #1712]	; cbe0 <.text+0x4be0>
    c52c:	e5d31000 	ldrb	r1, [r3]
    c530:	e2803001 	add	r3, r0, #1	; 0x1
    c534:	e0822001 	add	r2, r2, r1
    c538:	e5cc3000 	strb	r3, [ip]
    c53c:	e5ce2000 	strb	r2, [lr]
    c540:	e7c51000 	strb	r1, [r5, r0]
    c544:	e5de2000 	ldrb	r2, [lr]
    c548:	e5dc0000 	ldrb	r0, [ip]
    c54c:	e5d43000 	ldrb	r3, [r4]
    c550:	e35000ff 	cmp	r0, #255	; 0xff
    c554:	e0833002 	add	r3, r3, r2
    c558:	e5c43000 	strb	r3, [r4]
    c55c:	03a03000 	moveq	r3, #0	; 0x0
    c560:	05cc3000 	streqb	r3, [ip]
    c564:	e59f6678 	ldr	r6, [pc, #1656]	; cbe4 <.text+0x4be4>
    c568:	e5d61000 	ldrb	r1, [r6]
    c56c:	01a00003 	moveq	r0, r3
    c570:	e0813002 	add	r3, r1, r2
    c574:	e2802001 	add	r2, r0, #1	; 0x1
    c578:	e5ce3000 	strb	r3, [lr]
    c57c:	e5cc2000 	strb	r2, [ip]
    c580:	e7c51000 	strb	r1, [r5, r0]
    c584:	e5de2000 	ldrb	r2, [lr]
    c588:	e5dc0000 	ldrb	r0, [ip]
    c58c:	e5d43000 	ldrb	r3, [r4]
    c590:	e35000ff 	cmp	r0, #255	; 0xff
    c594:	e0833002 	add	r3, r3, r2
    c598:	e5c43000 	strb	r3, [r4]
    c59c:	03a03000 	moveq	r3, #0	; 0x0
    c5a0:	05cc3000 	streqb	r3, [ip]
    c5a4:	e5d61001 	ldrb	r1, [r6, #1]
    c5a8:	01a00003 	moveq	r0, r3
    c5ac:	e0813002 	add	r3, r1, r2
    c5b0:	e2802001 	add	r2, r0, #1	; 0x1
    c5b4:	e5cc2000 	strb	r2, [ip]
    c5b8:	e5ce3000 	strb	r3, [lr]
    c5bc:	e7c51000 	strb	r1, [r5, r0]
    c5c0:	e5de2000 	ldrb	r2, [lr]
    c5c4:	e5dc0000 	ldrb	r0, [ip]
    c5c8:	e5d43000 	ldrb	r3, [r4]
    c5cc:	e35000ff 	cmp	r0, #255	; 0xff
    c5d0:	e0833002 	add	r3, r3, r2
    c5d4:	e5c43000 	strb	r3, [r4]
    c5d8:	03a03000 	moveq	r3, #0	; 0x0
    c5dc:	05cc3000 	streqb	r3, [ip]
    c5e0:	e5d61002 	ldrb	r1, [r6, #2]
    c5e4:	01a00003 	moveq	r0, r3
    c5e8:	e0813002 	add	r3, r1, r2
    c5ec:	e2802001 	add	r2, r0, #1	; 0x1
    c5f0:	e5cc2000 	strb	r2, [ip]
    c5f4:	e5ce3000 	strb	r3, [lr]
    c5f8:	e7c51000 	strb	r1, [r5, r0]
    c5fc:	e5de2000 	ldrb	r2, [lr]
    c600:	e5dc0000 	ldrb	r0, [ip]
    c604:	e5d43000 	ldrb	r3, [r4]
    c608:	e35000ff 	cmp	r0, #255	; 0xff
    c60c:	e0833002 	add	r3, r3, r2
    c610:	e5c43000 	strb	r3, [r4]
    c614:	03a03000 	moveq	r3, #0	; 0x0
    c618:	05cc3000 	streqb	r3, [ip]
    c61c:	e5d61003 	ldrb	r1, [r6, #3]
    c620:	01a00003 	moveq	r0, r3
    c624:	e0813002 	add	r3, r1, r2
    c628:	e2802001 	add	r2, r0, #1	; 0x1
    c62c:	e5cc2000 	strb	r2, [ip]
    c630:	e5ce3000 	strb	r3, [lr]
    c634:	e7c51000 	strb	r1, [r5, r0]
    c638:	e5de2000 	ldrb	r2, [lr]
    c63c:	e5dc0000 	ldrb	r0, [ip]
    c640:	e5d43000 	ldrb	r3, [r4]
    c644:	e35000ff 	cmp	r0, #255	; 0xff
    c648:	e0833002 	add	r3, r3, r2
    c64c:	e5c43000 	strb	r3, [r4]
    c650:	03a03000 	moveq	r3, #0	; 0x0
    c654:	05cc3000 	streqb	r3, [ip]
    c658:	e59f6588 	ldr	r6, [pc, #1416]	; cbe8 <.text+0x4be8>
    c65c:	e5d61000 	ldrb	r1, [r6]
    c660:	01a00003 	moveq	r0, r3
    c664:	e0813002 	add	r3, r1, r2
    c668:	e2802001 	add	r2, r0, #1	; 0x1
    c66c:	e5ce3000 	strb	r3, [lr]
    c670:	e5cc2000 	strb	r2, [ip]
    c674:	e7c51000 	strb	r1, [r5, r0]
    c678:	e5de2000 	ldrb	r2, [lr]
    c67c:	e5dc0000 	ldrb	r0, [ip]
    c680:	e5d43000 	ldrb	r3, [r4]
    c684:	e35000ff 	cmp	r0, #255	; 0xff
    c688:	e0833002 	add	r3, r3, r2
    c68c:	e5c43000 	strb	r3, [r4]
    c690:	03a03000 	moveq	r3, #0	; 0x0
    c694:	05cc3000 	streqb	r3, [ip]
    c698:	e5d61001 	ldrb	r1, [r6, #1]
    c69c:	01a00003 	moveq	r0, r3
    c6a0:	e0813002 	add	r3, r1, r2
    c6a4:	e2802001 	add	r2, r0, #1	; 0x1
    c6a8:	e5cc2000 	strb	r2, [ip]
    c6ac:	e5ce3000 	strb	r3, [lr]
    c6b0:	e7c51000 	strb	r1, [r5, r0]
    c6b4:	e5de2000 	ldrb	r2, [lr]
    c6b8:	e5dc0000 	ldrb	r0, [ip]
    c6bc:	e5d43000 	ldrb	r3, [r4]
    c6c0:	e35000ff 	cmp	r0, #255	; 0xff
    c6c4:	e0833002 	add	r3, r3, r2
    c6c8:	e5c43000 	strb	r3, [r4]
    c6cc:	03a03000 	moveq	r3, #0	; 0x0
    c6d0:	05cc3000 	streqb	r3, [ip]
    c6d4:	e5d61002 	ldrb	r1, [r6, #2]
    c6d8:	01a00003 	moveq	r0, r3
    c6dc:	e0813002 	add	r3, r1, r2
    c6e0:	e2802001 	add	r2, r0, #1	; 0x1
    c6e4:	e5cc2000 	strb	r2, [ip]
    c6e8:	e5ce3000 	strb	r3, [lr]
    c6ec:	e7c51000 	strb	r1, [r5, r0]
    c6f0:	e5de2000 	ldrb	r2, [lr]
    c6f4:	e5dc0000 	ldrb	r0, [ip]
    c6f8:	e5d43000 	ldrb	r3, [r4]
    c6fc:	e35000ff 	cmp	r0, #255	; 0xff
    c700:	e0833002 	add	r3, r3, r2
    c704:	e5c43000 	strb	r3, [r4]
    c708:	03a03000 	moveq	r3, #0	; 0x0
    c70c:	05cc3000 	streqb	r3, [ip]
    c710:	e5d61003 	ldrb	r1, [r6, #3]
    c714:	01a00003 	moveq	r0, r3
    c718:	e0813002 	add	r3, r1, r2
    c71c:	e2802001 	add	r2, r0, #1	; 0x1
    c720:	e5cc2000 	strb	r2, [ip]
    c724:	e5ce3000 	strb	r3, [lr]
    c728:	e7c51000 	strb	r1, [r5, r0]
    c72c:	e5de2000 	ldrb	r2, [lr]
    c730:	e5dc0000 	ldrb	r0, [ip]
    c734:	e5d43000 	ldrb	r3, [r4]
    c738:	e35000ff 	cmp	r0, #255	; 0xff
    c73c:	e0833002 	add	r3, r3, r2
    c740:	e5c43000 	strb	r3, [r4]
    c744:	03a03000 	moveq	r3, #0	; 0x0
    c748:	05cc3000 	streqb	r3, [ip]
    c74c:	e59f6498 	ldr	r6, [pc, #1176]	; cbec <.text+0x4bec>
    c750:	e5d61000 	ldrb	r1, [r6]
    c754:	01a00003 	moveq	r0, r3
    c758:	e0813002 	add	r3, r1, r2
    c75c:	e2802001 	add	r2, r0, #1	; 0x1
    c760:	e5ce3000 	strb	r3, [lr]
    c764:	e5cc2000 	strb	r2, [ip]
    c768:	e7c51000 	strb	r1, [r5, r0]
    c76c:	e5de2000 	ldrb	r2, [lr]
    c770:	e5dc0000 	ldrb	r0, [ip]
    c774:	e5d43000 	ldrb	r3, [r4]
    c778:	e35000ff 	cmp	r0, #255	; 0xff
    c77c:	e0833002 	add	r3, r3, r2
    c780:	e5c43000 	strb	r3, [r4]
    c784:	03a03000 	moveq	r3, #0	; 0x0
    c788:	05cc3000 	streqb	r3, [ip]
    c78c:	e5d61001 	ldrb	r1, [r6, #1]
    c790:	01a00003 	moveq	r0, r3
    c794:	e0813002 	add	r3, r1, r2
    c798:	e2802001 	add	r2, r0, #1	; 0x1
    c79c:	e5cc2000 	strb	r2, [ip]
    c7a0:	e5ce3000 	strb	r3, [lr]
    c7a4:	e7c51000 	strb	r1, [r5, r0]
    c7a8:	e5de2000 	ldrb	r2, [lr]
    c7ac:	e5dc0000 	ldrb	r0, [ip]
    c7b0:	e5d43000 	ldrb	r3, [r4]
    c7b4:	e35000ff 	cmp	r0, #255	; 0xff
    c7b8:	e0833002 	add	r3, r3, r2
    c7bc:	e5c43000 	strb	r3, [r4]
    c7c0:	03a03000 	moveq	r3, #0	; 0x0
    c7c4:	05cc3000 	streqb	r3, [ip]
    c7c8:	e5d61002 	ldrb	r1, [r6, #2]
    c7cc:	01a00003 	moveq	r0, r3
    c7d0:	e0813002 	add	r3, r1, r2
    c7d4:	e2802001 	add	r2, r0, #1	; 0x1
    c7d8:	e5cc2000 	strb	r2, [ip]
    c7dc:	e5ce3000 	strb	r3, [lr]
    c7e0:	e7c51000 	strb	r1, [r5, r0]
    c7e4:	e5de2000 	ldrb	r2, [lr]
    c7e8:	e5dc0000 	ldrb	r0, [ip]
    c7ec:	e5d43000 	ldrb	r3, [r4]
    c7f0:	e35000ff 	cmp	r0, #255	; 0xff
    c7f4:	e0833002 	add	r3, r3, r2
    c7f8:	e5c43000 	strb	r3, [r4]
    c7fc:	03a03000 	moveq	r3, #0	; 0x0
    c800:	05cc3000 	streqb	r3, [ip]
    c804:	e5d61003 	ldrb	r1, [r6, #3]
    c808:	01a00003 	moveq	r0, r3
    c80c:	e0813002 	add	r3, r1, r2
    c810:	e2802001 	add	r2, r0, #1	; 0x1
    c814:	e5cc2000 	strb	r2, [ip]
    c818:	e5ce3000 	strb	r3, [lr]
    c81c:	e7c51000 	strb	r1, [r5, r0]
    c820:	e5de2000 	ldrb	r2, [lr]
    c824:	e5dc0000 	ldrb	r0, [ip]
    c828:	e5d43000 	ldrb	r3, [r4]
    c82c:	e35000ff 	cmp	r0, #255	; 0xff
    c830:	e0833002 	add	r3, r3, r2
    c834:	e5c43000 	strb	r3, [r4]
    c838:	03a03000 	moveq	r3, #0	; 0x0
    c83c:	05cc3000 	streqb	r3, [ip]
    c840:	e59f63a8 	ldr	r6, [pc, #936]	; cbf0 <.text+0x4bf0>
    c844:	e5d61000 	ldrb	r1, [r6]
    c848:	01a00003 	moveq	r0, r3
    c84c:	e0813002 	add	r3, r1, r2
    c850:	e2802001 	add	r2, r0, #1	; 0x1
    c854:	e5ce3000 	strb	r3, [lr]
    c858:	e5cc2000 	strb	r2, [ip]
    c85c:	e7c51000 	strb	r1, [r5, r0]
    c860:	e5de2000 	ldrb	r2, [lr]
    c864:	e5dc0000 	ldrb	r0, [ip]
    c868:	e5d43000 	ldrb	r3, [r4]
    c86c:	e35000ff 	cmp	r0, #255	; 0xff
    c870:	e0833002 	add	r3, r3, r2
    c874:	e5c43000 	strb	r3, [r4]
    c878:	03a03000 	moveq	r3, #0	; 0x0
    c87c:	05cc3000 	streqb	r3, [ip]
    c880:	e5d61001 	ldrb	r1, [r6, #1]
    c884:	01a00003 	moveq	r0, r3
    c888:	e0813002 	add	r3, r1, r2
    c88c:	e2802001 	add	r2, r0, #1	; 0x1
    c890:	e5cc2000 	strb	r2, [ip]
    c894:	e5ce3000 	strb	r3, [lr]
    c898:	e7c51000 	strb	r1, [r5, r0]
    c89c:	e5de2000 	ldrb	r2, [lr]
    c8a0:	e5dc0000 	ldrb	r0, [ip]
    c8a4:	e5d43000 	ldrb	r3, [r4]
    c8a8:	e35000ff 	cmp	r0, #255	; 0xff
    c8ac:	e0833002 	add	r3, r3, r2
    c8b0:	e5c43000 	strb	r3, [r4]
    c8b4:	03a03000 	moveq	r3, #0	; 0x0
    c8b8:	05cc3000 	streqb	r3, [ip]
    c8bc:	e5d61002 	ldrb	r1, [r6, #2]
    c8c0:	01a00003 	moveq	r0, r3
    c8c4:	e0813002 	add	r3, r1, r2
    c8c8:	e2802001 	add	r2, r0, #1	; 0x1
    c8cc:	e5cc2000 	strb	r2, [ip]
    c8d0:	e5ce3000 	strb	r3, [lr]
    c8d4:	e7c51000 	strb	r1, [r5, r0]
    c8d8:	e5de2000 	ldrb	r2, [lr]
    c8dc:	e5dc0000 	ldrb	r0, [ip]
    c8e0:	e5d43000 	ldrb	r3, [r4]
    c8e4:	e35000ff 	cmp	r0, #255	; 0xff
    c8e8:	e0833002 	add	r3, r3, r2
    c8ec:	e5c43000 	strb	r3, [r4]
    c8f0:	03a03000 	moveq	r3, #0	; 0x0
    c8f4:	05cc3000 	streqb	r3, [ip]
    c8f8:	e5d61003 	ldrb	r1, [r6, #3]
    c8fc:	01a00003 	moveq	r0, r3
    c900:	e0813002 	add	r3, r1, r2
    c904:	e2802001 	add	r2, r0, #1	; 0x1
    c908:	e5cc2000 	strb	r2, [ip]
    c90c:	e5ce3000 	strb	r3, [lr]
    c910:	e7c51000 	strb	r1, [r5, r0]
    c914:	e5de2000 	ldrb	r2, [lr]
    c918:	e5dc0000 	ldrb	r0, [ip]
    c91c:	e5d43000 	ldrb	r3, [r4]
    c920:	e35000ff 	cmp	r0, #255	; 0xff
    c924:	e0833002 	add	r3, r3, r2
    c928:	e5c43000 	strb	r3, [r4]
    c92c:	03a03000 	moveq	r3, #0	; 0x0
    c930:	05cc3000 	streqb	r3, [ip]
    c934:	e59f62b8 	ldr	r6, [pc, #696]	; cbf4 <.text+0x4bf4>
    c938:	e5d61000 	ldrb	r1, [r6]
    c93c:	01a00003 	moveq	r0, r3
    c940:	e0813002 	add	r3, r1, r2
    c944:	e2802001 	add	r2, r0, #1	; 0x1
    c948:	e5ce3000 	strb	r3, [lr]
    c94c:	e5cc2000 	strb	r2, [ip]
    c950:	e7c51000 	strb	r1, [r5, r0]
    c954:	e5de2000 	ldrb	r2, [lr]
    c958:	e5dc0000 	ldrb	r0, [ip]
    c95c:	e5d43000 	ldrb	r3, [r4]
    c960:	e35000ff 	cmp	r0, #255	; 0xff
    c964:	e0833002 	add	r3, r3, r2
    c968:	e5c43000 	strb	r3, [r4]
    c96c:	03a03000 	moveq	r3, #0	; 0x0
    c970:	05cc3000 	streqb	r3, [ip]
    c974:	e5d61001 	ldrb	r1, [r6, #1]
    c978:	01a00003 	moveq	r0, r3
    c97c:	e0813002 	add	r3, r1, r2
    c980:	e2802001 	add	r2, r0, #1	; 0x1
    c984:	e5cc2000 	strb	r2, [ip]
    c988:	e5ce3000 	strb	r3, [lr]
    c98c:	e7c51000 	strb	r1, [r5, r0]
    c990:	e5de2000 	ldrb	r2, [lr]
    c994:	e5dc0000 	ldrb	r0, [ip]
    c998:	e5d43000 	ldrb	r3, [r4]
    c99c:	e35000ff 	cmp	r0, #255	; 0xff
    c9a0:	e0833002 	add	r3, r3, r2
    c9a4:	e5c43000 	strb	r3, [r4]
    c9a8:	03a03000 	moveq	r3, #0	; 0x0
    c9ac:	05cc3000 	streqb	r3, [ip]
    c9b0:	e5d61002 	ldrb	r1, [r6, #2]
    c9b4:	01a00003 	moveq	r0, r3
    c9b8:	e0813002 	add	r3, r1, r2
    c9bc:	e2802001 	add	r2, r0, #1	; 0x1
    c9c0:	e5cc2000 	strb	r2, [ip]
    c9c4:	e5ce3000 	strb	r3, [lr]
    c9c8:	e7c51000 	strb	r1, [r5, r0]
    c9cc:	e5de2000 	ldrb	r2, [lr]
    c9d0:	e5dc0000 	ldrb	r0, [ip]
    c9d4:	e5d43000 	ldrb	r3, [r4]
    c9d8:	e35000ff 	cmp	r0, #255	; 0xff
    c9dc:	e0833002 	add	r3, r3, r2
    c9e0:	e5c43000 	strb	r3, [r4]
    c9e4:	03a03000 	moveq	r3, #0	; 0x0
    c9e8:	05cc3000 	streqb	r3, [ip]
    c9ec:	e5d61003 	ldrb	r1, [r6, #3]
    c9f0:	01a00003 	moveq	r0, r3
    c9f4:	e0813002 	add	r3, r1, r2
    c9f8:	e2802001 	add	r2, r0, #1	; 0x1
    c9fc:	e5cc2000 	strb	r2, [ip]
    ca00:	e5ce3000 	strb	r3, [lr]
    ca04:	e7c51000 	strb	r1, [r5, r0]
    ca08:	e5de2000 	ldrb	r2, [lr]
    ca0c:	e5dc0000 	ldrb	r0, [ip]
    ca10:	e5d43000 	ldrb	r3, [r4]
    ca14:	e35000ff 	cmp	r0, #255	; 0xff
    ca18:	e0833002 	add	r3, r3, r2
    ca1c:	e5c43000 	strb	r3, [r4]
    ca20:	03a03000 	moveq	r3, #0	; 0x0
    ca24:	05cc3000 	streqb	r3, [ip]
    ca28:	e59f61c8 	ldr	r6, [pc, #456]	; cbf8 <.text+0x4bf8>
    ca2c:	e5d61000 	ldrb	r1, [r6]
    ca30:	01a00003 	moveq	r0, r3
    ca34:	e0813002 	add	r3, r1, r2
    ca38:	e2802001 	add	r2, r0, #1	; 0x1
    ca3c:	e5ce3000 	strb	r3, [lr]
    ca40:	e5cc2000 	strb	r2, [ip]
    ca44:	e7c51000 	strb	r1, [r5, r0]
    ca48:	e5de2000 	ldrb	r2, [lr]
    ca4c:	e5dc0000 	ldrb	r0, [ip]
    ca50:	e5d43000 	ldrb	r3, [r4]
    ca54:	e35000ff 	cmp	r0, #255	; 0xff
    ca58:	e0833002 	add	r3, r3, r2
    ca5c:	e5c43000 	strb	r3, [r4]
    ca60:	03a03000 	moveq	r3, #0	; 0x0
    ca64:	05cc3000 	streqb	r3, [ip]
    ca68:	e5d61001 	ldrb	r1, [r6, #1]
    ca6c:	01a00003 	moveq	r0, r3
    ca70:	e0813002 	add	r3, r1, r2
    ca74:	e2802001 	add	r2, r0, #1	; 0x1
    ca78:	e5cc2000 	strb	r2, [ip]
    ca7c:	e5ce3000 	strb	r3, [lr]
    ca80:	e7c51000 	strb	r1, [r5, r0]
    ca84:	e5de2000 	ldrb	r2, [lr]
    ca88:	e5dc0000 	ldrb	r0, [ip]
    ca8c:	e5d43000 	ldrb	r3, [r4]
    ca90:	e35000ff 	cmp	r0, #255	; 0xff
    ca94:	e0833002 	add	r3, r3, r2
    ca98:	e5c43000 	strb	r3, [r4]
    ca9c:	03a03000 	moveq	r3, #0	; 0x0
    caa0:	05cc3000 	streqb	r3, [ip]
    caa4:	e5d61002 	ldrb	r1, [r6, #2]
    caa8:	01a00003 	moveq	r0, r3
    caac:	e0813002 	add	r3, r1, r2
    cab0:	e2802001 	add	r2, r0, #1	; 0x1
    cab4:	e5cc2000 	strb	r2, [ip]
    cab8:	e5ce3000 	strb	r3, [lr]
    cabc:	e7c51000 	strb	r1, [r5, r0]
    cac0:	e5de2000 	ldrb	r2, [lr]
    cac4:	e5dc0000 	ldrb	r0, [ip]
    cac8:	e5d43000 	ldrb	r3, [r4]
    cacc:	e35000ff 	cmp	r0, #255	; 0xff
    cad0:	e0833002 	add	r3, r3, r2
    cad4:	e5c43000 	strb	r3, [r4]
    cad8:	03a03000 	moveq	r3, #0	; 0x0
    cadc:	05cc3000 	streqb	r3, [ip]
    cae0:	e5d61003 	ldrb	r1, [r6, #3]
    cae4:	01a00003 	moveq	r0, r3
    cae8:	e0813002 	add	r3, r1, r2
    caec:	e2802001 	add	r2, r0, #1	; 0x1
    caf0:	e5cc2000 	strb	r2, [ip]
    caf4:	e5ce3000 	strb	r3, [lr]
    caf8:	e7c51000 	strb	r1, [r5, r0]
    cafc:	e5d43000 	ldrb	r3, [r4]
    cb00:	e5dc0000 	ldrb	r0, [ip]
    cb04:	e5de1000 	ldrb	r1, [lr]
    cb08:	e35000ff 	cmp	r0, #255	; 0xff
    cb0c:	e0833001 	add	r3, r3, r1
    cb10:	e5c43000 	strb	r3, [r4]
    cb14:	03a03000 	moveq	r3, #0	; 0x0
    cb18:	01a00003 	moveq	r0, r3
    cb1c:	05cc3000 	streqb	r3, [ip]
    cb20:	e2803001 	add	r3, r0, #1	; 0x1
    cb24:	e5cc3000 	strb	r3, [ip]
    cb28:	e7c51000 	strb	r1, [r5, r0]
    cb2c:	e5dc0000 	ldrb	r0, [ip]
    cb30:	e35000ff 	cmp	r0, #255	; 0xff
    cb34:	03a03000 	moveq	r3, #0	; 0x0
    cb38:	01a00003 	moveq	r0, r3
    cb3c:	05cc3000 	streqb	r3, [ip]
    cb40:	e2803001 	add	r3, r0, #1	; 0x1
    cb44:	e5cc3000 	strb	r3, [ip]
    cb48:	e5dc2000 	ldrb	r2, [ip]
    cb4c:	e5d43000 	ldrb	r3, [r4]
    cb50:	e35200ff 	cmp	r2, #255	; 0xff
    cb54:	e7c53000 	strb	r3, [r5, r0]
    cb58:	03a03000 	moveq	r3, #0	; 0x0
    cb5c:	05cc3000 	streqb	r3, [ip]
    cb60:	e3a0c059 	mov	ip, #89	; 0x59
    cb64:	e5dc3000 	ldrb	r3, [ip]
    cb68:	e1a03223 	mov	r3, r3, lsr #4
    cb6c:	e213e001 	ands	lr, r3, #1	; 0x1
    cb70:	18bd80f0 	ldmneia	sp!, {r4, r5, r6, r7, pc}
    cb74:	e5d70000 	ldrb	r0, [r7]
    cb78:	e5d73000 	ldrb	r3, [r7]
    cb7c:	e2833001 	add	r3, r3, #1	; 0x1
    cb80:	e5c73000 	strb	r3, [r7]
    cb84:	e5d72000 	ldrb	r2, [r7]
    cb88:	e7d51000 	ldrb	r1, [r5, r0]
    cb8c:	e35200ff 	cmp	r2, #255	; 0xff
    cb90:	e59f3064 	ldr	r3, [pc, #100]	; cbfc <.text+0x4bfc>
    cb94:	e59f2064 	ldr	r2, [pc, #100]	; cc00 <.text+0x4c00>
    cb98:	e5c31000 	strb	r1, [r3]
    cb9c:	e5c2e000 	strb	lr, [r2]
    cba0:	05c7e000 	streqb	lr, [r7]
    cba4:	e3a03058 	mov	r3, #88	; 0x58
    cba8:	e5d32000 	ldrb	r2, [r3]
    cbac:	e3822001 	orr	r2, r2, #1	; 0x1
    cbb0:	e5c32000 	strb	r2, [r3]
    cbb4:	e5dc1000 	ldrb	r1, [ip]
    cbb8:	e3811010 	orr	r1, r1, #16	; 0x10
    cbbc:	e5cc1000 	strb	r1, [ip]
    cbc0:	e8bd80f0 	ldmia	sp!, {r4, r5, r6, r7, pc}
    cbc4:	000139f5 	streqd	r3, [r1], -r5
    cbc8:	000139f6 	streqd	r3, [r1], -r6
    cbcc:	000139f3 	streqd	r3, [r1], -r3
    cbd0:	000139f8 	streqd	r3, [r1], -r8
    cbd4:	00013b90 	muleq	r1, r0, fp
    cbd8:	00013af7 	streqd	r3, [r1], -r7
    cbdc:	000139f2 	streqd	r3, [r1], -r2
    cbe0:	00013b9c 	muleq	r1, ip, fp
    cbe4:	00013bd8 	ldreqd	r3, [r1], -r8
    cbe8:	00013bec 	andeq	r3, r1, ip, ror #23
    cbec:	0001377c 	andeq	r3, r1, ip, ror r7
    cbf0:	00013b78 	andeq	r3, r1, r8, ror fp
    cbf4:	00013528 	andeq	r3, r1, r8, lsr #10
    cbf8:	00013b98 	muleq	r1, r8, fp
    cbfc:	000139f4 	streqd	r3, [r1], -r4
    cc00:	000139f7 	streqd	r3, [r1], -r7

0000cc04 <course_run>:
    cc04:	e1a0c00d 	mov	ip, sp
    cc08:	e92dd800 	stmdb	sp!, {fp, ip, lr, pc}
    cc0c:	e59f204c 	ldr	r2, [pc, #76]	; cc60 <.text+0x4c60>
    cc10:	e5d23000 	ldrb	r3, [r2]
    cc14:	e2433002 	sub	r3, r3, #2	; 0x2
    cc18:	e3530001 	cmp	r3, #1	; 0x1
    cc1c:	e24cb004 	sub	fp, ip, #4	; 0x4
    cc20:	889da800 	ldmhiia	sp, {fp, sp, pc}
    cc24:	e59f3038 	ldr	r3, [pc, #56]	; cc64 <.text+0x4c64>
    cc28:	e5d32000 	ldrb	r2, [r3]
    cc2c:	e3520002 	cmp	r2, #2	; 0x2
    cc30:	8a000004 	bhi	cc48 <course_run+0x44>
    cc34:	e59f302c 	ldr	r3, [pc, #44]	; cc68 <.text+0x4c68>
    cc38:	e59f202c 	ldr	r2, [pc, #44]	; cc6c <.text+0x4c6c>
    cc3c:	e5931000 	ldr	r1, [r3]
    cc40:	e5821000 	str	r1, [r2]
    cc44:	e89da800 	ldmia	sp, {fp, sp, pc}
    cc48:	eb00084b 	bl	ed7c <course_pid_run>
    cc4c:	e59f3014 	ldr	r3, [pc, #20]	; cc68 <.text+0x4c68>
    cc50:	e59f2014 	ldr	r2, [pc, #20]	; cc6c <.text+0x4c6c>
    cc54:	e5931000 	ldr	r1, [r3]
    cc58:	e5821000 	str	r1, [r2]
    cc5c:	e89da800 	ldmia	sp, {fp, sp, pc}
    cc60:	000135a4 	andeq	r3, r1, r4, lsr #11
    cc64:	000135a2 	andeq	r3, r1, r2, lsr #11
    cc68:	00013b8c 	andeq	r3, r1, ip, lsl #23
    cc6c:	0001378c 	andeq	r3, r1, ip, lsl #15

0000cc70 <altitude_control_task>:
    cc70:	e59f2020 	ldr	r2, [pc, #32]	; cc98 <.text+0x4c98>
    cc74:	e5d23000 	ldrb	r3, [r2]
    cc78:	e2433002 	sub	r3, r3, #2	; 0x2
    cc7c:	e3530001 	cmp	r3, #1	; 0x1
    cc80:	81a0f00e 	movhi	pc, lr
    cc84:	e59f3010 	ldr	r3, [pc, #16]	; cc9c <.text+0x4c9c>
    cc88:	e5d32000 	ldrb	r2, [r3]
    cc8c:	e3520003 	cmp	r2, #3	; 0x3
    cc90:	11a0f00e 	movne	pc, lr
    cc94:	ea000931 	b	f160 <altitude_pid_run>
    cc98:	000135a4 	andeq	r3, r1, r4, lsr #11
    cc9c:	000135a3 	andeq	r3, r1, r3, lsr #11

0000cca0 <climb_control_task>:
    cca0:	e1a0c00d 	mov	ip, sp
    cca4:	e92dd810 	stmdb	sp!, {r4, fp, ip, lr, pc}
    cca8:	e59f2080 	ldr	r2, [pc, #128]	; cd30 <.text+0x4d30>
    ccac:	e5d23000 	ldrb	r3, [r2]
    ccb0:	e2433002 	sub	r3, r3, #2	; 0x2
    ccb4:	e3530001 	cmp	r3, #1	; 0x1
    ccb8:	e24cb004 	sub	fp, ip, #4	; 0x4
    ccbc:	e59f4070 	ldr	r4, [pc, #112]	; cd34 <.text+0x4d34>
    ccc0:	889da810 	ldmhiia	sp, {r4, fp, sp, pc}
    ccc4:	e5d42000 	ldrb	r2, [r4]
    ccc8:	e3520001 	cmp	r2, #1	; 0x1
    cccc:	8a000014 	bhi	cd24 <climb_control_task+0x84>
    ccd0:	e3520001 	cmp	r2, #1	; 0x1
    ccd4:	e59f305c 	ldr	r3, [pc, #92]	; cd38 <.text+0x4d38>
    ccd8:	059f205c 	ldreq	r2, [pc, #92]	; cd3c <.text+0x4d3c>
    ccdc:	e5d31000 	ldrb	r1, [r3]
    cce0:	01d220b0 	ldreqh	r2, [r2]
    cce4:	059f3054 	ldreq	r3, [pc, #84]	; cd40 <.text+0x4d40>
    cce8:	01c320b0 	streqh	r2, [r3]
    ccec:	e3510000 	cmp	r1, #0	; 0x0
    ccf0:	1a000007 	bne	cd14 <climb_control_task+0x74>
    ccf4:	e59f3048 	ldr	r3, [pc, #72]	; cd44 <.text+0x4d44>
    ccf8:	e1d320b0 	ldrh	r2, [r3]
    ccfc:	e3520000 	cmp	r2, #0	; 0x0
    cd00:	189da810 	ldmneia	sp, {r4, fp, sp, pc}
    cd04:	e59f303c 	ldr	r3, [pc, #60]	; cd48 <.text+0x4d48>
    cd08:	e5d32000 	ldrb	r2, [r3]
    cd0c:	e3520000 	cmp	r2, #0	; 0x0
    cd10:	189da810 	ldmneia	sp, {r4, fp, sp, pc}
    cd14:	e59f3024 	ldr	r3, [pc, #36]	; cd40 <.text+0x4d40>
    cd18:	e3a02000 	mov	r2, #0	; 0x0
    cd1c:	e1c320b0 	strh	r2, [r3]
    cd20:	e89da810 	ldmia	sp, {r4, fp, sp, pc}
    cd24:	eb00085e 	bl	eea4 <climb_pid_run>
    cd28:	e5d42000 	ldrb	r2, [r4]
    cd2c:	eaffffe7 	b	ccd0 <climb_control_task+0x30>
    cd30:	000135a4 	andeq	r3, r1, r4, lsr #11
    cd34:	000135a3 	andeq	r3, r1, r3, lsr #11
    cd38:	000135a8 	andeq	r3, r1, r8, lsr #11
    cd3c:	00013b88 	andeq	r3, r1, r8, lsl #23
    cd40:	00013b70 	andeq	r3, r1, r0, ror fp
    cd44:	00013ba8 	andeq	r3, r1, r8, lsr #23
    cd48:	000135a0 	andeq	r3, r1, r0, lsr #11

0000cd4c <stabilisation_task>:
    cd4c:	e1a0c00d 	mov	ip, sp
    cd50:	e92dd870 	stmdb	sp!, {r4, r5, r6, fp, ip, lr, pc}
    cd54:	e24cb004 	sub	fp, ip, #4	; 0x4
    cd58:	eb000771 	bl	eb24 <ir_update>
    cd5c:	eb00120a 	bl	1158c <estimator_update_state_infrared>
    cd60:	eb0007a2 	bl	ebf0 <roll_pitch_pid_run>
    cd64:	e59f30bc 	ldr	r3, [pc, #188]	; ce28 <.text+0x4e28>
    cd68:	e5930000 	ldr	r0, [r3]
    cd6c:	e59f30b8 	ldr	r3, [pc, #184]	; ce2c <.text+0x4e2c>
    cd70:	e59f10b8 	ldr	r1, [pc, #184]	; ce30 <.text+0x4e30>
    cd74:	e1d330b0 	ldrh	r3, [r3]
    cd78:	e59f20b4 	ldr	r2, [pc, #180]	; ce34 <.text+0x4e34>
    cd7c:	e1c130b0 	strh	r3, [r1]
    cd80:	e59f30b0 	ldr	r3, [pc, #176]	; ce38 <.text+0x4e38>
    cd84:	e1d220b0 	ldrh	r2, [r2]
    cd88:	e1d330b0 	ldrh	r3, [r3]
    cd8c:	e1c120b2 	strh	r2, [r1, #2]
    cd90:	e1c130b4 	strh	r3, [r1, #4]
    cd94:	e2200102 	eor	r0, r0, #-2147483648	; 0x80000000
    cd98:	e1a06001 	mov	r6, r1
    cd9c:	eb001607 	bl	125c0 <__extendsfdf2>
    cda0:	e28f2068 	add	r2, pc, #104	; 0x68
    cda4:	e892000c 	ldmia	r2, {r2, r3}
    cda8:	eb001617 	bl	1260c <__muldf3>
    cdac:	e28f2064 	add	r2, pc, #100	; 0x64
    cdb0:	e892000c 	ldmia	r2, {r2, r3}
    cdb4:	e1a05001 	mov	r5, r1
    cdb8:	e1a04000 	mov	r4, r0
    cdbc:	eb001745 	bl	12ad8 <__ledf2>
    cdc0:	e3a0c4b5 	mov	ip, #-1258291200	; 0xb5000000
    cdc4:	e3500000 	cmp	r0, #0	; 0x0
    cdc8:	e28f2050 	add	r2, pc, #80	; 0x50
    cdcc:	e892000c 	ldmia	r2, {r2, r3}
    cdd0:	e1a0c8cc 	mov	ip, ip, asr #17
    cdd4:	e1a01005 	mov	r1, r5
    cdd8:	e1a00004 	mov	r0, r4
    cddc:	ba000005 	blt	cdf8 <stabilisation_task+0xac>
    cde0:	eb00173a 	bl	12ad0 <__gedf2>
    cde4:	e3500000 	cmp	r0, #0	; 0x0
    cde8:	e3a0cd96 	mov	ip, #9600	; 0x2580
    cdec:	e1a01005 	mov	r1, r5
    cdf0:	e1a00004 	mov	r0, r4
    cdf4:	da000001 	ble	ce00 <stabilisation_task+0xb4>
    cdf8:	e1c6c0ba 	strh	ip, [r6, #10]
    cdfc:	e89da870 	ldmia	sp, {r4, r5, r6, fp, sp, pc}
    ce00:	eb00175b 	bl	12b74 <__fixdfsi>
    ce04:	e1a0c000 	mov	ip, r0
    ce08:	e1c6c0ba 	strh	ip, [r6, #10]
    ce0c:	e89da870 	ldmia	sp, {r4, r5, r6, fp, sp, pc}
    ce10:	40c90000 	sbcmi	r0, r9, r0
    ce14:	00000000 	andeq	r0, r0, r0
    ce18:	c0c2c000 	sbcgt	ip, r2, r0
    ce1c:	00000000 	andeq	r0, r0, r0
    ce20:	40c2c000 	sbcmi	ip, r2, r0
    ce24:	00000000 	andeq	r0, r0, r0
    ce28:	00013bcc 	andeq	r3, r1, ip, asr #23
    ce2c:	00013b70 	andeq	r3, r1, r0, ror fp
    ce30:	00013af8 	streqd	r3, [r1], -r8
    ce34:	00013b72 	andeq	r3, r1, r2, ror fp
    ce38:	00013b74 	andeq	r3, r1, r4, ror fp

0000ce3c <periodic_task>:
    ce3c:	e1a0c00d 	mov	ip, sp
    ce40:	e92dd8f0 	stmdb	sp!, {r4, r5, r6, r7, fp, ip, lr, pc}
    ce44:	e59f4250 	ldr	r4, [pc, #592]	; d09c <.text+0x509c>
    ce48:	e24cb004 	sub	fp, ip, #4	; 0x4
    ce4c:	e5940000 	ldr	r0, [r4]
    ce50:	eb0015da 	bl	125c0 <__extendsfdf2>
    ce54:	e59f7244 	ldr	r7, [pc, #580]	; d0a0 <.text+0x50a0>
    ce58:	e28f2f89 	add	r2, pc, #548	; 0x224
    ce5c:	e892000c 	ldmia	r2, {r2, r3}
    ce60:	eb001508 	bl	12288 <__adddf3>
    ce64:	eb001762 	bl	12bf4 <__truncdfsf2>
    ce68:	e5d73000 	ldrb	r3, [r7]
    ce6c:	e2833001 	add	r3, r3, #1	; 0x1
    ce70:	e5c73000 	strb	r3, [r7]
    ce74:	e5d72000 	ldrb	r2, [r7]
    ce78:	e3520002 	cmp	r2, #2	; 0x2
    ce7c:	e59f2220 	ldr	r2, [pc, #544]	; d0a4 <.text+0x50a4>
    ce80:	83a03000 	movhi	r3, #0	; 0x0
    ce84:	85c73000 	strhib	r3, [r7]
    ce88:	e5d23000 	ldrb	r3, [r2]
    ce8c:	e2833001 	add	r3, r3, #1	; 0x1
    ce90:	e5c23000 	strb	r3, [r2]
    ce94:	e5d21000 	ldrb	r1, [r2]
    ce98:	e59f6208 	ldr	r6, [pc, #520]	; d0a8 <.text+0x50a8>
    ce9c:	e3510005 	cmp	r1, #5	; 0x5
    cea0:	83a03000 	movhi	r3, #0	; 0x0
    cea4:	85c23000 	strhib	r3, [r2]
    cea8:	81a01003 	movhi	r1, r3
    ceac:	e5d63000 	ldrb	r3, [r6]
    ceb0:	e2833001 	add	r3, r3, #1	; 0x1
    ceb4:	e5c63000 	strb	r3, [r6]
    ceb8:	e5d62000 	ldrb	r2, [r6]
    cebc:	e352000e 	cmp	r2, #14	; 0xe
    cec0:	e59f21e4 	ldr	r2, [pc, #484]	; d0ac <.text+0x50ac>
    cec4:	83a03000 	movhi	r3, #0	; 0x0
    cec8:	85c63000 	strhib	r3, [r6]
    cecc:	e5d23000 	ldrb	r3, [r2]
    ced0:	e2833001 	add	r3, r3, #1	; 0x1
    ced4:	e5c23000 	strb	r3, [r2]
    ced8:	e5d25000 	ldrb	r5, [r2]
    cedc:	e355003c 	cmp	r5, #60	; 0x3c
    cee0:	83a03000 	movhi	r3, #0	; 0x0
    cee4:	85c23000 	strhib	r3, [r2]
    cee8:	81a05003 	movhi	r5, r3
    ceec:	e3510000 	cmp	r1, #0	; 0x0
    cef0:	e5840000 	str	r0, [r4]
    cef4:	1a000007 	bne	cf18 <periodic_task+0xdc>
    cef8:	e59f41b0 	ldr	r4, [pc, #432]	; d0b0 <.text+0x50b0>
    cefc:	e5940000 	ldr	r0, [r4]
    cf00:	eb0015ae 	bl	125c0 <__extendsfdf2>
    cf04:	e28f2d06 	add	r2, pc, #384	; 0x180
    cf08:	e892000c 	ldmia	r2, {r2, r3}
    cf0c:	eb0014dd 	bl	12288 <__adddf3>
    cf10:	eb001737 	bl	12bf4 <__truncdfsf2>
    cf14:	e5840000 	str	r0, [r4]
    cf18:	e20550ff 	and	r5, r5, #255	; 0xff
    cf1c:	e3550000 	cmp	r5, #0	; 0x0
    cf20:	1a00002a 	bne	cfd0 <periodic_task+0x194>
    cf24:	e59f2188 	ldr	r2, [pc, #392]	; d0b4 <.text+0x50b4>
    cf28:	e1d230b0 	ldrh	r3, [r2]
    cf2c:	e3530000 	cmp	r3, #0	; 0x0
    cf30:	12833001 	addne	r3, r3, #1	; 0x1
    cf34:	11c230b0 	strneh	r3, [r2]
    cf38:	e59f2178 	ldr	r2, [pc, #376]	; d0b8 <.text+0x50b8>
    cf3c:	e1d230b0 	ldrh	r3, [r2]
    cf40:	e59f4168 	ldr	r4, [pc, #360]	; d0b0 <.text+0x50b0>
    cf44:	e2833001 	add	r3, r3, #1	; 0x1
    cf48:	e5940000 	ldr	r0, [r4]
    cf4c:	e1c230b0 	strh	r3, [r2]
    cf50:	eb00159a 	bl	125c0 <__extendsfdf2>
    cf54:	e28f2f4e 	add	r2, pc, #312	; 0x138
    cf58:	e892000c 	ldmia	r2, {r2, r3}
    cf5c:	eb0014c9 	bl	12288 <__adddf3>
    cf60:	eb001703 	bl	12b74 <__fixdfsi>
    cf64:	e1a00800 	mov	r0, r0, lsl #16
    cf68:	e1a00840 	mov	r0, r0, asr #16
    cf6c:	eb0017d1 	bl	12eb8 <__floatsisf>
    cf70:	e59fc144 	ldr	ip, [pc, #324]	; d0bc <.text+0x50bc>
    cf74:	e59f3144 	ldr	r3, [pc, #324]	; d0c0 <.text+0x50c0>
    cf78:	e59fe144 	ldr	lr, [pc, #324]	; d0c4 <.text+0x50c4>
    cf7c:	e5d31000 	ldrb	r1, [r3]
    cf80:	e1dc20b0 	ldrh	r2, [ip]
    cf84:	e351005c 	cmp	r1, #92	; 0x5c
    cf88:	e2822001 	add	r2, r2, #1	; 0x1
    cf8c:	e1de30b0 	ldrh	r3, [lr]
    cf90:	e1cc20b0 	strh	r2, [ip]
    cf94:	959f212c 	ldrls	r2, [pc, #300]	; d0c8 <.text+0x50c8>
    cf98:	e2833001 	add	r3, r3, #1	; 0x1
    cf9c:	e1ce30b0 	strh	r3, [lr]
    cfa0:	95d23000 	ldrlsb	r3, [r2]
    cfa4:	859f211c 	ldrhi	r2, [pc, #284]	; d0c8 <.text+0x50c8>
    cfa8:	92833001 	addls	r3, r3, #1	; 0x1
    cfac:	95c23000 	strlsb	r3, [r2]
    cfb0:	85c25000 	strhib	r5, [r2]
    cfb4:	e59f1110 	ldr	r1, [pc, #272]	; d0cc <.text+0x50cc>
    cfb8:	e5d22000 	ldrb	r2, [r2]
    cfbc:	e5d13000 	ldrb	r3, [r1]
    cfc0:	e3520004 	cmp	r2, #4	; 0x4
    cfc4:	83833001 	orrhi	r3, r3, #1	; 0x1
    cfc8:	e5840000 	str	r0, [r4]
    cfcc:	e5c13000 	strb	r3, [r1]
    cfd0:	e5d63000 	ldrb	r3, [r6]
    cfd4:	e3530000 	cmp	r3, #0	; 0x0
    cfd8:	0a00000d 	beq	d014 <periodic_task+0x1d8>
    cfdc:	e5d73000 	ldrb	r3, [r7]
    cfe0:	e3530000 	cmp	r3, #0	; 0x0
    cfe4:	089da8f0 	ldmeqia	sp, {r4, r5, r6, r7, fp, sp, pc}
    cfe8:	e3530001 	cmp	r3, #1	; 0x1
    cfec:	0a000012 	beq	d03c <periodic_task+0x200>
    cff0:	e3530002 	cmp	r3, #2	; 0x2
    cff4:	159f20d4 	ldrne	r2, [pc, #212]	; d0d0 <.text+0x50d0>
    cff8:	15d23000 	ldrneb	r3, [r2]
    cffc:	12833001 	addne	r3, r3, #1	; 0x1
    d000:	15c23000 	strneb	r3, [r2]
    d004:	189da8f0 	ldmneia	sp, {r4, r5, r6, r7, fp, sp, pc}
    d008:	ebffff4f 	bl	cd4c <stabilisation_task>
    d00c:	e89d68f0 	ldmia	sp, {r4, r5, r6, r7, fp, sp, lr}
    d010:	ea0004a7 	b	e2b4 <link_fbw_send>
    d014:	eb0012aa 	bl	11ac4 <estimator_propagate_state>
    d018:	ebfffd00 	bl	c420 <navigation_update>
    d01c:	ebfffd0a 	bl	c44c <send_nav_values>
    d020:	ebfffef7 	bl	cc04 <course_run>
    d024:	ebffff11 	bl	cc70 <altitude_control_task>
    d028:	ebffff1c 	bl	cca0 <climb_control_task>
    d02c:	e5d73000 	ldrb	r3, [r7]
    d030:	e3530000 	cmp	r3, #0	; 0x0
    d034:	089da8f0 	ldmeqia	sp, {r4, r5, r6, r7, fp, sp, pc}
    d038:	eaffffea 	b	cfe8 <periodic_task+0x1ac>
    d03c:	e59f3090 	ldr	r3, [pc, #144]	; d0d4 <.text+0x50d4>
    d040:	e5d32000 	ldrb	r2, [r3]
    d044:	e2822001 	add	r2, r2, #1	; 0x1
    d048:	e5c32000 	strb	r2, [r3]
    d04c:	e5d31000 	ldrb	r1, [r3]
    d050:	e3110001 	tst	r1, #1	; 0x1
    d054:	089da8f0 	ldmeqia	sp, {r4, r5, r6, r7, fp, sp, pc}
    d058:	ebffee58 	bl	89c0 <send_boot>
    d05c:	ebfff01d 	bl	90d8 <send_attitude>
    d060:	ebfff145 	bl	957c <send_adc>
    d064:	ebfff1ed 	bl	9820 <send_settings>
    d068:	ebfff2e5 	bl	9c04 <send_desired>
    d06c:	ebfff483 	bl	a280 <send_bat>
    d070:	ebfff56d 	bl	a62c <send_climb>
    d074:	ebfff6af 	bl	ab38 <send_mode>
    d078:	ebfff76d 	bl	ae34 <send_debug>
    d07c:	e89d68f0 	ldmia	sp, {r4, r5, r6, r7, fp, sp, lr}
    d080:	eafff829 	b	b12c <send_nav_ref>
    d084:	3f90c6f7 	swicc	0x0090c6f7
    d088:	a0b5ed8d 	adcges	lr, r5, sp, lsl #27
    d08c:	3fb99999 	swicc	0x00b99999
    d090:	9999999a 	ldmlsib	r9, {r1, r3, r4, r7, r8, fp, ip, pc}
    d094:	3fe00000 	swicc	0x00e00000
    d098:	00000000 	andeq	r0, r0, r0
    d09c:	00013bb8 	streqh	r3, [r1], -r8
    d0a0:	000135aa 	andeq	r3, r1, sl, lsr #11
    d0a4:	000135b0 	streqh	r3, [r1], -r0
    d0a8:	000135b1 	streqh	r3, [r1], -r1
    d0ac:	000135a9 	andeq	r3, r1, r9, lsr #11
    d0b0:	00013b80 	andeq	r3, r1, r0, lsl #23
    d0b4:	00013ba8 	andeq	r3, r1, r8, lsr #23
    d0b8:	000135a6 	andeq	r3, r1, r6, lsr #11
    d0bc:	00013b9e 	muleq	r1, lr, fp
    d0c0:	000139f1 	streqd	r3, [r1], -r1
    d0c4:	00013ba0 	andeq	r3, r1, r0, lsr #23
    d0c8:	000135b2 	streqh	r3, [r1], -r2
    d0cc:	000135a8 	andeq	r3, r1, r8, lsr #11
    d0d0:	000135a5 	andeq	r3, r1, r5, lsr #11
    d0d4:	000135b3 	streqh	r3, [r1], -r3

0000d0d8 <send_gps_pos>:
    d0d8:	e92d40f0 	stmdb	sp!, {r4, r5, r6, r7, lr}
    d0dc:	e59f3844 	ldr	r3, [pc, #2116]	; d928 <.text+0x5928>
    d0e0:	e5d32000 	ldrb	r2, [r3]
    d0e4:	e59f3840 	ldr	r3, [pc, #2112]	; d92c <.text+0x592c>
    d0e8:	e3a01000 	mov	r1, #0	; 0x0
    d0ec:	e3520000 	cmp	r2, #0	; 0x0
    d0f0:	e5c31000 	strb	r1, [r3]
    d0f4:	08bd80f0 	ldmeqia	sp!, {r4, r5, r6, r7, pc}
    d0f8:	e59f7830 	ldr	r7, [pc, #2096]	; d930 <.text+0x5930>
    d0fc:	e59f1830 	ldr	r1, [pc, #2096]	; d934 <.text+0x5934>
    d100:	e5d73000 	ldrb	r3, [r7]
    d104:	e5d12000 	ldrb	r2, [r1]
    d108:	e1520003 	cmp	r2, r3
    d10c:	25d73000 	ldrcsb	r3, [r7]
    d110:	35d73000 	ldrccb	r3, [r7]
    d114:	20633002 	rsbcs	r3, r3, r2
    d118:	30623003 	rsbcc	r3, r2, r3
    d11c:	226330ff 	rsbcs	r3, r3, #255	; 0xff
    d120:	e3530021 	cmp	r3, #33	; 0x21
    d124:	d59f280c 	ldrle	r2, [pc, #2060]	; d938 <.text+0x5938>
    d128:	d5d23000 	ldrleb	r3, [r2]
    d12c:	d2833001 	addle	r3, r3, #1	; 0x1
    d130:	d5c23000 	strleb	r3, [r2]
    d134:	da0001e5 	ble	d8d0 <send_gps_pos+0x7f8>
    d138:	e5d13000 	ldrb	r3, [r1]
    d13c:	e2832001 	add	r2, r3, #1	; 0x1
    d140:	e5c12000 	strb	r2, [r1]
    d144:	e5d10000 	ldrb	r0, [r1]
    d148:	e59f57ec 	ldr	r5, [pc, #2028]	; d93c <.text+0x593c>
    d14c:	e35000ff 	cmp	r0, #255	; 0xff
    d150:	e3a02005 	mov	r2, #5	; 0x5
    d154:	e7c52003 	strb	r2, [r5, r3]
    d158:	03a03000 	moveq	r3, #0	; 0x0
    d15c:	e59fc7d0 	ldr	ip, [pc, #2000]	; d934 <.text+0x5934>
    d160:	01a00003 	moveq	r0, r3
    d164:	05c13000 	streqb	r3, [r1]
    d168:	e2803001 	add	r3, r0, #1	; 0x1
    d16c:	e5cc3000 	strb	r3, [ip]
    d170:	e3a02008 	mov	r2, #8	; 0x8
    d174:	e7c52000 	strb	r2, [r5, r0]
    d178:	e5dc0000 	ldrb	r0, [ip]
    d17c:	e35000ff 	cmp	r0, #255	; 0xff
    d180:	03a03000 	moveq	r3, #0	; 0x0
    d184:	05cc3000 	streqb	r3, [ip]
    d188:	01a00003 	moveq	r0, r3
    d18c:	e59f37ac 	ldr	r3, [pc, #1964]	; d940 <.text+0x5940>
    d190:	e5d31000 	ldrb	r1, [r3]
    d194:	e59fe7a8 	ldr	lr, [pc, #1960]	; d944 <.text+0x5944>
    d198:	e2802001 	add	r2, r0, #1	; 0x1
    d19c:	e2813008 	add	r3, r1, #8	; 0x8
    d1a0:	e5cc2000 	strb	r2, [ip]
    d1a4:	e5ce3000 	strb	r3, [lr]
    d1a8:	e7c51000 	strb	r1, [r5, r0]
    d1ac:	e5de2000 	ldrb	r2, [lr]
    d1b0:	e5dc0000 	ldrb	r0, [ip]
    d1b4:	e59f478c 	ldr	r4, [pc, #1932]	; d948 <.text+0x5948>
    d1b8:	e2823008 	add	r3, r2, #8	; 0x8
    d1bc:	e35000ff 	cmp	r0, #255	; 0xff
    d1c0:	e5c43000 	strb	r3, [r4]
    d1c4:	03a03000 	moveq	r3, #0	; 0x0
    d1c8:	05cc3000 	streqb	r3, [ip]
    d1cc:	e59f6778 	ldr	r6, [pc, #1912]	; d94c <.text+0x594c>
    d1d0:	e5d61000 	ldrb	r1, [r6]
    d1d4:	01a00003 	moveq	r0, r3
    d1d8:	e0813002 	add	r3, r1, r2
    d1dc:	e2802001 	add	r2, r0, #1	; 0x1
    d1e0:	e5cc2000 	strb	r2, [ip]
    d1e4:	e5ce3000 	strb	r3, [lr]
    d1e8:	e7c51000 	strb	r1, [r5, r0]
    d1ec:	e5de2000 	ldrb	r2, [lr]
    d1f0:	e5dc0000 	ldrb	r0, [ip]
    d1f4:	e5d43000 	ldrb	r3, [r4]
    d1f8:	e35000ff 	cmp	r0, #255	; 0xff
    d1fc:	e0833002 	add	r3, r3, r2
    d200:	e5c43000 	strb	r3, [r4]
    d204:	03a03000 	moveq	r3, #0	; 0x0
    d208:	05cc3000 	streqb	r3, [ip]
    d20c:	e5d61001 	ldrb	r1, [r6, #1]
    d210:	01a00003 	moveq	r0, r3
    d214:	e0813002 	add	r3, r1, r2
    d218:	e2802001 	add	r2, r0, #1	; 0x1
    d21c:	e5ce3000 	strb	r3, [lr]
    d220:	e5cc2000 	strb	r2, [ip]
    d224:	e7c51000 	strb	r1, [r5, r0]
    d228:	e5de2000 	ldrb	r2, [lr]
    d22c:	e5dc0000 	ldrb	r0, [ip]
    d230:	e5d43000 	ldrb	r3, [r4]
    d234:	e35000ff 	cmp	r0, #255	; 0xff
    d238:	e0833002 	add	r3, r3, r2
    d23c:	e5c43000 	strb	r3, [r4]
    d240:	03a03000 	moveq	r3, #0	; 0x0
    d244:	05cc3000 	streqb	r3, [ip]
    d248:	e5d61002 	ldrb	r1, [r6, #2]
    d24c:	01a00003 	moveq	r0, r3
    d250:	e0813002 	add	r3, r1, r2
    d254:	e2802001 	add	r2, r0, #1	; 0x1
    d258:	e5cc2000 	strb	r2, [ip]
    d25c:	e5ce3000 	strb	r3, [lr]
    d260:	e7c51000 	strb	r1, [r5, r0]
    d264:	e5de2000 	ldrb	r2, [lr]
    d268:	e5dc0000 	ldrb	r0, [ip]
    d26c:	e5d43000 	ldrb	r3, [r4]
    d270:	e35000ff 	cmp	r0, #255	; 0xff
    d274:	e0833002 	add	r3, r3, r2
    d278:	e5c43000 	strb	r3, [r4]
    d27c:	03a03000 	moveq	r3, #0	; 0x0
    d280:	05cc3000 	streqb	r3, [ip]
    d284:	e5d61003 	ldrb	r1, [r6, #3]
    d288:	01a00003 	moveq	r0, r3
    d28c:	e0813002 	add	r3, r1, r2
    d290:	e2802001 	add	r2, r0, #1	; 0x1
    d294:	e5cc2000 	strb	r2, [ip]
    d298:	e5ce3000 	strb	r3, [lr]
    d29c:	e7c51000 	strb	r1, [r5, r0]
    d2a0:	e5de2000 	ldrb	r2, [lr]
    d2a4:	e5dc0000 	ldrb	r0, [ip]
    d2a8:	e5d43000 	ldrb	r3, [r4]
    d2ac:	e35000ff 	cmp	r0, #255	; 0xff
    d2b0:	e0833002 	add	r3, r3, r2
    d2b4:	e5c43000 	strb	r3, [r4]
    d2b8:	03a03000 	moveq	r3, #0	; 0x0
    d2bc:	05cc3000 	streqb	r3, [ip]
    d2c0:	e59f6688 	ldr	r6, [pc, #1672]	; d950 <.text+0x5950>
    d2c4:	e5d61000 	ldrb	r1, [r6]
    d2c8:	01a00003 	moveq	r0, r3
    d2cc:	e0813002 	add	r3, r1, r2
    d2d0:	e2802001 	add	r2, r0, #1	; 0x1
    d2d4:	e5cc2000 	strb	r2, [ip]
    d2d8:	e5ce3000 	strb	r3, [lr]
    d2dc:	e7c51000 	strb	r1, [r5, r0]
    d2e0:	e5de2000 	ldrb	r2, [lr]
    d2e4:	e5dc0000 	ldrb	r0, [ip]
    d2e8:	e5d43000 	ldrb	r3, [r4]
    d2ec:	e35000ff 	cmp	r0, #255	; 0xff
    d2f0:	e0833002 	add	r3, r3, r2
    d2f4:	e5c43000 	strb	r3, [r4]
    d2f8:	03a03000 	moveq	r3, #0	; 0x0
    d2fc:	05cc3000 	streqb	r3, [ip]
    d300:	e5d61001 	ldrb	r1, [r6, #1]
    d304:	01a00003 	moveq	r0, r3
    d308:	e0813002 	add	r3, r1, r2
    d30c:	e2802001 	add	r2, r0, #1	; 0x1
    d310:	e5ce3000 	strb	r3, [lr]
    d314:	e5cc2000 	strb	r2, [ip]
    d318:	e7c51000 	strb	r1, [r5, r0]
    d31c:	e5de2000 	ldrb	r2, [lr]
    d320:	e5dc0000 	ldrb	r0, [ip]
    d324:	e5d43000 	ldrb	r3, [r4]
    d328:	e35000ff 	cmp	r0, #255	; 0xff
    d32c:	e0833002 	add	r3, r3, r2
    d330:	e5c43000 	strb	r3, [r4]
    d334:	03a03000 	moveq	r3, #0	; 0x0
    d338:	05cc3000 	streqb	r3, [ip]
    d33c:	e5d61002 	ldrb	r1, [r6, #2]
    d340:	01a00003 	moveq	r0, r3
    d344:	e0813002 	add	r3, r1, r2
    d348:	e2802001 	add	r2, r0, #1	; 0x1
    d34c:	e5cc2000 	strb	r2, [ip]
    d350:	e5ce3000 	strb	r3, [lr]
    d354:	e7c51000 	strb	r1, [r5, r0]
    d358:	e5de2000 	ldrb	r2, [lr]
    d35c:	e5dc0000 	ldrb	r0, [ip]
    d360:	e5d43000 	ldrb	r3, [r4]
    d364:	e35000ff 	cmp	r0, #255	; 0xff
    d368:	e0833002 	add	r3, r3, r2
    d36c:	e5c43000 	strb	r3, [r4]
    d370:	03a03000 	moveq	r3, #0	; 0x0
    d374:	05cc3000 	streqb	r3, [ip]
    d378:	e5d61003 	ldrb	r1, [r6, #3]
    d37c:	01a00003 	moveq	r0, r3
    d380:	e0813002 	add	r3, r1, r2
    d384:	e2802001 	add	r2, r0, #1	; 0x1
    d388:	e5cc2000 	strb	r2, [ip]
    d38c:	e5ce3000 	strb	r3, [lr]
    d390:	e7c51000 	strb	r1, [r5, r0]
    d394:	e5de2000 	ldrb	r2, [lr]
    d398:	e5dc0000 	ldrb	r0, [ip]
    d39c:	e5d43000 	ldrb	r3, [r4]
    d3a0:	e35000ff 	cmp	r0, #255	; 0xff
    d3a4:	e0833002 	add	r3, r3, r2
    d3a8:	e5c43000 	strb	r3, [r4]
    d3ac:	03a03000 	moveq	r3, #0	; 0x0
    d3b0:	05cc3000 	streqb	r3, [ip]
    d3b4:	e59f6598 	ldr	r6, [pc, #1432]	; d954 <.text+0x5954>
    d3b8:	e5d61000 	ldrb	r1, [r6]
    d3bc:	01a00003 	moveq	r0, r3
    d3c0:	e0813002 	add	r3, r1, r2
    d3c4:	e2802001 	add	r2, r0, #1	; 0x1
    d3c8:	e5cc2000 	strb	r2, [ip]
    d3cc:	e5ce3000 	strb	r3, [lr]
    d3d0:	e7c51000 	strb	r1, [r5, r0]
    d3d4:	e5de2000 	ldrb	r2, [lr]
    d3d8:	e5dc0000 	ldrb	r0, [ip]
    d3dc:	e5d43000 	ldrb	r3, [r4]
    d3e0:	e35000ff 	cmp	r0, #255	; 0xff
    d3e4:	e0833002 	add	r3, r3, r2
    d3e8:	e5c43000 	strb	r3, [r4]
    d3ec:	03a03000 	moveq	r3, #0	; 0x0
    d3f0:	05cc3000 	streqb	r3, [ip]
    d3f4:	e5d61001 	ldrb	r1, [r6, #1]
    d3f8:	01a00003 	moveq	r0, r3
    d3fc:	e0813002 	add	r3, r1, r2
    d400:	e2802001 	add	r2, r0, #1	; 0x1
    d404:	e5ce3000 	strb	r3, [lr]
    d408:	e5cc2000 	strb	r2, [ip]
    d40c:	e7c51000 	strb	r1, [r5, r0]
    d410:	e5de2000 	ldrb	r2, [lr]
    d414:	e5dc0000 	ldrb	r0, [ip]
    d418:	e5d43000 	ldrb	r3, [r4]
    d41c:	e35000ff 	cmp	r0, #255	; 0xff
    d420:	e0833002 	add	r3, r3, r2
    d424:	e5c43000 	strb	r3, [r4]
    d428:	03a03000 	moveq	r3, #0	; 0x0
    d42c:	05cc3000 	streqb	r3, [ip]
    d430:	e5d61002 	ldrb	r1, [r6, #2]
    d434:	01a00003 	moveq	r0, r3
    d438:	e0813002 	add	r3, r1, r2
    d43c:	e2802001 	add	r2, r0, #1	; 0x1
    d440:	e5cc2000 	strb	r2, [ip]
    d444:	e5ce3000 	strb	r3, [lr]
    d448:	e7c51000 	strb	r1, [r5, r0]
    d44c:	e5de2000 	ldrb	r2, [lr]
    d450:	e5dc0000 	ldrb	r0, [ip]
    d454:	e5d43000 	ldrb	r3, [r4]
    d458:	e35000ff 	cmp	r0, #255	; 0xff
    d45c:	e0833002 	add	r3, r3, r2
    d460:	e5c43000 	strb	r3, [r4]
    d464:	03a03000 	moveq	r3, #0	; 0x0
    d468:	05cc3000 	streqb	r3, [ip]
    d46c:	e5d61003 	ldrb	r1, [r6, #3]
    d470:	01a00003 	moveq	r0, r3
    d474:	e0813002 	add	r3, r1, r2
    d478:	e2802001 	add	r2, r0, #1	; 0x1
    d47c:	e5cc2000 	strb	r2, [ip]
    d480:	e5ce3000 	strb	r3, [lr]
    d484:	e7c51000 	strb	r1, [r5, r0]
    d488:	e5de2000 	ldrb	r2, [lr]
    d48c:	e5dc0000 	ldrb	r0, [ip]
    d490:	e5d43000 	ldrb	r3, [r4]
    d494:	e35000ff 	cmp	r0, #255	; 0xff
    d498:	e0833002 	add	r3, r3, r2
    d49c:	e5c43000 	strb	r3, [r4]
    d4a0:	03a03000 	moveq	r3, #0	; 0x0
    d4a4:	05cc3000 	streqb	r3, [ip]
    d4a8:	e59f64a8 	ldr	r6, [pc, #1192]	; d958 <.text+0x5958>
    d4ac:	e5d61000 	ldrb	r1, [r6]
    d4b0:	01a00003 	moveq	r0, r3
    d4b4:	e0813002 	add	r3, r1, r2
    d4b8:	e2802001 	add	r2, r0, #1	; 0x1
    d4bc:	e5cc2000 	strb	r2, [ip]
    d4c0:	e5ce3000 	strb	r3, [lr]
    d4c4:	e7c51000 	strb	r1, [r5, r0]
    d4c8:	e5de2000 	ldrb	r2, [lr]
    d4cc:	e5dc0000 	ldrb	r0, [ip]
    d4d0:	e5d43000 	ldrb	r3, [r4]
    d4d4:	e35000ff 	cmp	r0, #255	; 0xff
    d4d8:	e0833002 	add	r3, r3, r2
    d4dc:	e5c43000 	strb	r3, [r4]
    d4e0:	03a03000 	moveq	r3, #0	; 0x0
    d4e4:	05cc3000 	streqb	r3, [ip]
    d4e8:	e5d61001 	ldrb	r1, [r6, #1]
    d4ec:	01a00003 	moveq	r0, r3
    d4f0:	e0813002 	add	r3, r1, r2
    d4f4:	e2802001 	add	r2, r0, #1	; 0x1
    d4f8:	e5ce3000 	strb	r3, [lr]
    d4fc:	e5cc2000 	strb	r2, [ip]
    d500:	e7c51000 	strb	r1, [r5, r0]
    d504:	e5de2000 	ldrb	r2, [lr]
    d508:	e5dc0000 	ldrb	r0, [ip]
    d50c:	e5d43000 	ldrb	r3, [r4]
    d510:	e35000ff 	cmp	r0, #255	; 0xff
    d514:	e0833002 	add	r3, r3, r2
    d518:	e5c43000 	strb	r3, [r4]
    d51c:	03a03000 	moveq	r3, #0	; 0x0
    d520:	05cc3000 	streqb	r3, [ip]
    d524:	e5d61002 	ldrb	r1, [r6, #2]
    d528:	01a00003 	moveq	r0, r3
    d52c:	e0813002 	add	r3, r1, r2
    d530:	e2802001 	add	r2, r0, #1	; 0x1
    d534:	e5cc2000 	strb	r2, [ip]
    d538:	e5ce3000 	strb	r3, [lr]
    d53c:	e7c51000 	strb	r1, [r5, r0]
    d540:	e5de2000 	ldrb	r2, [lr]
    d544:	e5dc0000 	ldrb	r0, [ip]
    d548:	e5d43000 	ldrb	r3, [r4]
    d54c:	e35000ff 	cmp	r0, #255	; 0xff
    d550:	e0833002 	add	r3, r3, r2
    d554:	e5c43000 	strb	r3, [r4]
    d558:	03a03000 	moveq	r3, #0	; 0x0
    d55c:	05cc3000 	streqb	r3, [ip]
    d560:	e5d61003 	ldrb	r1, [r6, #3]
    d564:	01a00003 	moveq	r0, r3
    d568:	e0813002 	add	r3, r1, r2
    d56c:	e2802001 	add	r2, r0, #1	; 0x1
    d570:	e5cc2000 	strb	r2, [ip]
    d574:	e5ce3000 	strb	r3, [lr]
    d578:	e7c51000 	strb	r1, [r5, r0]
    d57c:	e5de2000 	ldrb	r2, [lr]
    d580:	e5dc0000 	ldrb	r0, [ip]
    d584:	e5d43000 	ldrb	r3, [r4]
    d588:	e35000ff 	cmp	r0, #255	; 0xff
    d58c:	e0833002 	add	r3, r3, r2
    d590:	e5c43000 	strb	r3, [r4]
    d594:	03a03000 	moveq	r3, #0	; 0x0
    d598:	05cc3000 	streqb	r3, [ip]
    d59c:	e59f63b8 	ldr	r6, [pc, #952]	; d95c <.text+0x595c>
    d5a0:	e5d61000 	ldrb	r1, [r6]
    d5a4:	01a00003 	moveq	r0, r3
    d5a8:	e0813002 	add	r3, r1, r2
    d5ac:	e2802001 	add	r2, r0, #1	; 0x1
    d5b0:	e5cc2000 	strb	r2, [ip]
    d5b4:	e5ce3000 	strb	r3, [lr]
    d5b8:	e7c51000 	strb	r1, [r5, r0]
    d5bc:	e5de2000 	ldrb	r2, [lr]
    d5c0:	e5dc0000 	ldrb	r0, [ip]
    d5c4:	e5d43000 	ldrb	r3, [r4]
    d5c8:	e35000ff 	cmp	r0, #255	; 0xff
    d5cc:	e0833002 	add	r3, r3, r2
    d5d0:	e5c43000 	strb	r3, [r4]
    d5d4:	03a03000 	moveq	r3, #0	; 0x0
    d5d8:	05cc3000 	streqb	r3, [ip]
    d5dc:	e5d61001 	ldrb	r1, [r6, #1]
    d5e0:	01a00003 	moveq	r0, r3
    d5e4:	e0813002 	add	r3, r1, r2
    d5e8:	e2802001 	add	r2, r0, #1	; 0x1
    d5ec:	e5ce3000 	strb	r3, [lr]
    d5f0:	e5cc2000 	strb	r2, [ip]
    d5f4:	e7c51000 	strb	r1, [r5, r0]
    d5f8:	e5de2000 	ldrb	r2, [lr]
    d5fc:	e5dc0000 	ldrb	r0, [ip]
    d600:	e5d43000 	ldrb	r3, [r4]
    d604:	e35000ff 	cmp	r0, #255	; 0xff
    d608:	e0833002 	add	r3, r3, r2
    d60c:	e5c43000 	strb	r3, [r4]
    d610:	03a03000 	moveq	r3, #0	; 0x0
    d614:	05cc3000 	streqb	r3, [ip]
    d618:	e5d61002 	ldrb	r1, [r6, #2]
    d61c:	01a00003 	moveq	r0, r3
    d620:	e0813002 	add	r3, r1, r2
    d624:	e2802001 	add	r2, r0, #1	; 0x1
    d628:	e5cc2000 	strb	r2, [ip]
    d62c:	e5ce3000 	strb	r3, [lr]
    d630:	e7c51000 	strb	r1, [r5, r0]
    d634:	e5de2000 	ldrb	r2, [lr]
    d638:	e5dc0000 	ldrb	r0, [ip]
    d63c:	e5d43000 	ldrb	r3, [r4]
    d640:	e35000ff 	cmp	r0, #255	; 0xff
    d644:	e0833002 	add	r3, r3, r2
    d648:	e5c43000 	strb	r3, [r4]
    d64c:	03a03000 	moveq	r3, #0	; 0x0
    d650:	05cc3000 	streqb	r3, [ip]
    d654:	e5d61003 	ldrb	r1, [r6, #3]
    d658:	01a00003 	moveq	r0, r3
    d65c:	e0813002 	add	r3, r1, r2
    d660:	e2802001 	add	r2, r0, #1	; 0x1
    d664:	e5cc2000 	strb	r2, [ip]
    d668:	e5ce3000 	strb	r3, [lr]
    d66c:	e7c51000 	strb	r1, [r5, r0]
    d670:	e5de2000 	ldrb	r2, [lr]
    d674:	e5dc0000 	ldrb	r0, [ip]
    d678:	e5d43000 	ldrb	r3, [r4]
    d67c:	e35000ff 	cmp	r0, #255	; 0xff
    d680:	e0833002 	add	r3, r3, r2
    d684:	e5c43000 	strb	r3, [r4]
    d688:	03a03000 	moveq	r3, #0	; 0x0
    d68c:	05cc3000 	streqb	r3, [ip]
    d690:	e59f62c8 	ldr	r6, [pc, #712]	; d960 <.text+0x5960>
    d694:	e5d61000 	ldrb	r1, [r6]
    d698:	01a00003 	moveq	r0, r3
    d69c:	e0813002 	add	r3, r1, r2
    d6a0:	e2802001 	add	r2, r0, #1	; 0x1
    d6a4:	e5cc2000 	strb	r2, [ip]
    d6a8:	e5ce3000 	strb	r3, [lr]
    d6ac:	e7c51000 	strb	r1, [r5, r0]
    d6b0:	e5de2000 	ldrb	r2, [lr]
    d6b4:	e5dc0000 	ldrb	r0, [ip]
    d6b8:	e5d43000 	ldrb	r3, [r4]
    d6bc:	e35000ff 	cmp	r0, #255	; 0xff
    d6c0:	e0833002 	add	r3, r3, r2
    d6c4:	e5c43000 	strb	r3, [r4]
    d6c8:	03a03000 	moveq	r3, #0	; 0x0
    d6cc:	05cc3000 	streqb	r3, [ip]
    d6d0:	e5d61001 	ldrb	r1, [r6, #1]
    d6d4:	01a00003 	moveq	r0, r3
    d6d8:	e0813002 	add	r3, r1, r2
    d6dc:	e2802001 	add	r2, r0, #1	; 0x1
    d6e0:	e5ce3000 	strb	r3, [lr]
    d6e4:	e5cc2000 	strb	r2, [ip]
    d6e8:	e7c51000 	strb	r1, [r5, r0]
    d6ec:	e5de2000 	ldrb	r2, [lr]
    d6f0:	e5dc0000 	ldrb	r0, [ip]
    d6f4:	e5d43000 	ldrb	r3, [r4]
    d6f8:	e35000ff 	cmp	r0, #255	; 0xff
    d6fc:	e0833002 	add	r3, r3, r2
    d700:	e5c43000 	strb	r3, [r4]
    d704:	03a03000 	moveq	r3, #0	; 0x0
    d708:	05cc3000 	streqb	r3, [ip]
    d70c:	e5d61002 	ldrb	r1, [r6, #2]
    d710:	01a00003 	moveq	r0, r3
    d714:	e0813002 	add	r3, r1, r2
    d718:	e2802001 	add	r2, r0, #1	; 0x1
    d71c:	e5cc2000 	strb	r2, [ip]
    d720:	e5ce3000 	strb	r3, [lr]
    d724:	e7c51000 	strb	r1, [r5, r0]
    d728:	e5de2000 	ldrb	r2, [lr]
    d72c:	e5dc0000 	ldrb	r0, [ip]
    d730:	e5d43000 	ldrb	r3, [r4]
    d734:	e35000ff 	cmp	r0, #255	; 0xff
    d738:	e0833002 	add	r3, r3, r2
    d73c:	e5c43000 	strb	r3, [r4]
    d740:	03a03000 	moveq	r3, #0	; 0x0
    d744:	05cc3000 	streqb	r3, [ip]
    d748:	e5d61003 	ldrb	r1, [r6, #3]
    d74c:	01a00003 	moveq	r0, r3
    d750:	e0813002 	add	r3, r1, r2
    d754:	e2802001 	add	r2, r0, #1	; 0x1
    d758:	e5cc2000 	strb	r2, [ip]
    d75c:	e5ce3000 	strb	r3, [lr]
    d760:	e7c51000 	strb	r1, [r5, r0]
    d764:	e5de2000 	ldrb	r2, [lr]
    d768:	e5dc0000 	ldrb	r0, [ip]
    d76c:	e5d43000 	ldrb	r3, [r4]
    d770:	e35000ff 	cmp	r0, #255	; 0xff
    d774:	e0833002 	add	r3, r3, r2
    d778:	e5c43000 	strb	r3, [r4]
    d77c:	03a03000 	moveq	r3, #0	; 0x0
    d780:	05cc3000 	streqb	r3, [ip]
    d784:	e59f61d8 	ldr	r6, [pc, #472]	; d964 <.text+0x5964>
    d788:	e5d61000 	ldrb	r1, [r6]
    d78c:	01a00003 	moveq	r0, r3
    d790:	e0813002 	add	r3, r1, r2
    d794:	e2802001 	add	r2, r0, #1	; 0x1
    d798:	e5cc2000 	strb	r2, [ip]
    d79c:	e5ce3000 	strb	r3, [lr]
    d7a0:	e7c51000 	strb	r1, [r5, r0]
    d7a4:	e5de2000 	ldrb	r2, [lr]
    d7a8:	e5dc0000 	ldrb	r0, [ip]
    d7ac:	e5d43000 	ldrb	r3, [r4]
    d7b0:	e35000ff 	cmp	r0, #255	; 0xff
    d7b4:	e0833002 	add	r3, r3, r2
    d7b8:	e5c43000 	strb	r3, [r4]
    d7bc:	03a03000 	moveq	r3, #0	; 0x0
    d7c0:	05cc3000 	streqb	r3, [ip]
    d7c4:	e5d61001 	ldrb	r1, [r6, #1]
    d7c8:	01a00003 	moveq	r0, r3
    d7cc:	e0813002 	add	r3, r1, r2
    d7d0:	e2802001 	add	r2, r0, #1	; 0x1
    d7d4:	e5ce3000 	strb	r3, [lr]
    d7d8:	e5cc2000 	strb	r2, [ip]
    d7dc:	e7c51000 	strb	r1, [r5, r0]
    d7e0:	e5de2000 	ldrb	r2, [lr]
    d7e4:	e5dc0000 	ldrb	r0, [ip]
    d7e8:	e5d43000 	ldrb	r3, [r4]
    d7ec:	e35000ff 	cmp	r0, #255	; 0xff
    d7f0:	e0833002 	add	r3, r3, r2
    d7f4:	e5c43000 	strb	r3, [r4]
    d7f8:	03a03000 	moveq	r3, #0	; 0x0
    d7fc:	05cc3000 	streqb	r3, [ip]
    d800:	e5d61002 	ldrb	r1, [r6, #2]
    d804:	01a00003 	moveq	r0, r3
    d808:	e0813002 	add	r3, r1, r2
    d80c:	e2802001 	add	r2, r0, #1	; 0x1
    d810:	e5cc2000 	strb	r2, [ip]
    d814:	e5ce3000 	strb	r3, [lr]
    d818:	e7c51000 	strb	r1, [r5, r0]
    d81c:	e5de2000 	ldrb	r2, [lr]
    d820:	e5dc0000 	ldrb	r0, [ip]
    d824:	e5d43000 	ldrb	r3, [r4]
    d828:	e35000ff 	cmp	r0, #255	; 0xff
    d82c:	e0833002 	add	r3, r3, r2
    d830:	e5c43000 	strb	r3, [r4]
    d834:	03a03000 	moveq	r3, #0	; 0x0
    d838:	05cc3000 	streqb	r3, [ip]
    d83c:	e5d61003 	ldrb	r1, [r6, #3]
    d840:	01a00003 	moveq	r0, r3
    d844:	e0813002 	add	r3, r1, r2
    d848:	e2802001 	add	r2, r0, #1	; 0x1
    d84c:	e5cc2000 	strb	r2, [ip]
    d850:	e5ce3000 	strb	r3, [lr]
    d854:	e7c51000 	strb	r1, [r5, r0]
    d858:	e5d43000 	ldrb	r3, [r4]
    d85c:	e5dc0000 	ldrb	r0, [ip]
    d860:	e5de1000 	ldrb	r1, [lr]
    d864:	e35000ff 	cmp	r0, #255	; 0xff
    d868:	e0833001 	add	r3, r3, r1
    d86c:	e5c43000 	strb	r3, [r4]
    d870:	03a03000 	moveq	r3, #0	; 0x0
    d874:	01a00003 	moveq	r0, r3
    d878:	05cc3000 	streqb	r3, [ip]
    d87c:	e2803001 	add	r3, r0, #1	; 0x1
    d880:	e5cc3000 	strb	r3, [ip]
    d884:	e7c51000 	strb	r1, [r5, r0]
    d888:	e5dc0000 	ldrb	r0, [ip]
    d88c:	e35000ff 	cmp	r0, #255	; 0xff
    d890:	03a03000 	moveq	r3, #0	; 0x0
    d894:	01a00003 	moveq	r0, r3
    d898:	05cc3000 	streqb	r3, [ip]
    d89c:	e2803001 	add	r3, r0, #1	; 0x1
    d8a0:	e5cc3000 	strb	r3, [ip]
    d8a4:	e5dc2000 	ldrb	r2, [ip]
    d8a8:	e5d43000 	ldrb	r3, [r4]
    d8ac:	e35200ff 	cmp	r2, #255	; 0xff
    d8b0:	e7c53000 	strb	r3, [r5, r0]
    d8b4:	03a03000 	moveq	r3, #0	; 0x0
    d8b8:	05cc3000 	streqb	r3, [ip]
    d8bc:	e3a0c059 	mov	ip, #89	; 0x59
    d8c0:	e5dc3000 	ldrb	r3, [ip]
    d8c4:	e1a03223 	mov	r3, r3, lsr #4
    d8c8:	e213e001 	ands	lr, r3, #1	; 0x1
    d8cc:	0a000001 	beq	d8d8 <send_gps_pos+0x800>
    d8d0:	e8bd40f0 	ldmia	sp!, {r4, r5, r6, r7, lr}
    d8d4:	ea001049 	b	11a00 <estimator_update_state_gps>
    d8d8:	e5d70000 	ldrb	r0, [r7]
    d8dc:	e5d73000 	ldrb	r3, [r7]
    d8e0:	e2833001 	add	r3, r3, #1	; 0x1
    d8e4:	e5c73000 	strb	r3, [r7]
    d8e8:	e5d72000 	ldrb	r2, [r7]
    d8ec:	e7d51000 	ldrb	r1, [r5, r0]
    d8f0:	e35200ff 	cmp	r2, #255	; 0xff
    d8f4:	e59f306c 	ldr	r3, [pc, #108]	; d968 <.text+0x5968>
    d8f8:	e59f206c 	ldr	r2, [pc, #108]	; d96c <.text+0x596c>
    d8fc:	e5c31000 	strb	r1, [r3]
    d900:	e5c2e000 	strb	lr, [r2]
    d904:	05c7e000 	streqb	lr, [r7]
    d908:	e3a03058 	mov	r3, #88	; 0x58
    d90c:	e5d32000 	ldrb	r2, [r3]
    d910:	e3822001 	orr	r2, r2, #1	; 0x1
    d914:	e5c32000 	strb	r2, [r3]
    d918:	e5dc1000 	ldrb	r1, [ip]
    d91c:	e3811010 	orr	r1, r1, #16	; 0x10
    d920:	e5cc1000 	strb	r1, [ip]
    d924:	eaffffe9 	b	d8d0 <send_gps_pos+0x7f8>
    d928:	00013b5d 	andeq	r3, r1, sp, asr fp
    d92c:	00013b44 	andeq	r3, r1, r4, asr #22
    d930:	000139f6 	streqd	r3, [r1], -r6
    d934:	000139f5 	streqd	r3, [r1], -r5
    d938:	000139f3 	streqd	r3, [r1], -r3
    d93c:	000139f8 	streqd	r3, [r1], -r8
    d940:	00013b64 	andeq	r3, r1, r4, ror #22
    d944:	00013af7 	streqd	r3, [r1], -r7
    d948:	000139f2 	streqd	r3, [r1], -r2
    d94c:	00013b50 	andeq	r3, r1, r0, asr fp
    d950:	00013b4c 	andeq	r3, r1, ip, asr #22
    d954:	00013b54 	andeq	r3, r1, r4, asr fp
    d958:	00013b40 	andeq	r3, r1, r0, asr #22
    d95c:	00013b58 	andeq	r3, r1, r8, asr fp
    d960:	00013b68 	andeq	r3, r1, r8, ror #22
    d964:	00013b60 	andeq	r3, r1, r0, ror #22
    d968:	000139f4 	streqd	r3, [r1], -r4
    d96c:	000139f7 	streqd	r3, [r1], -r7

0000d970 <send_radIR>:
    d970:	e92d40f0 	stmdb	sp!, {r4, r5, r6, r7, lr}
    d974:	e59f3514 	ldr	r3, [pc, #1300]	; de90 <.text+0x5e90>
    d978:	e5d32000 	ldrb	r2, [r3]
    d97c:	e3520000 	cmp	r2, #0	; 0x0
    d980:	08bd80f0 	ldmeqia	sp!, {r4, r5, r6, r7, pc}
    d984:	e59f7508 	ldr	r7, [pc, #1288]	; de94 <.text+0x5e94>
    d988:	e59f1508 	ldr	r1, [pc, #1288]	; de98 <.text+0x5e98>
    d98c:	e5d73000 	ldrb	r3, [r7]
    d990:	e5d12000 	ldrb	r2, [r1]
    d994:	e1520003 	cmp	r2, r3
    d998:	25d73000 	ldrcsb	r3, [r7]
    d99c:	35d73000 	ldrccb	r3, [r7]
    d9a0:	20633002 	rsbcs	r3, r3, r2
    d9a4:	30623003 	rsbcc	r3, r2, r3
    d9a8:	226330ff 	rsbcs	r3, r3, #255	; 0xff
    d9ac:	e3530014 	cmp	r3, #20	; 0x14
    d9b0:	d59f24e4 	ldrle	r2, [pc, #1252]	; de9c <.text+0x5e9c>
    d9b4:	d5d23000 	ldrleb	r3, [r2]
    d9b8:	d2833001 	addle	r3, r3, #1	; 0x1
    d9bc:	d5c23000 	strleb	r3, [r2]
    d9c0:	d8bd80f0 	ldmleia	sp!, {r4, r5, r6, r7, pc}
    d9c4:	e5d12000 	ldrb	r2, [r1]
    d9c8:	e2823001 	add	r3, r2, #1	; 0x1
    d9cc:	e5c13000 	strb	r3, [r1]
    d9d0:	e5d10000 	ldrb	r0, [r1]
    d9d4:	e35000ff 	cmp	r0, #255	; 0xff
    d9d8:	03a03000 	moveq	r3, #0	; 0x0
    d9dc:	e59fc4b4 	ldr	ip, [pc, #1204]	; de98 <.text+0x5e98>
    d9e0:	01a00003 	moveq	r0, r3
    d9e4:	05c13000 	streqb	r3, [r1]
    d9e8:	e2803001 	add	r3, r0, #1	; 0x1
    d9ec:	e59f54ac 	ldr	r5, [pc, #1196]	; dea0 <.text+0x5ea0>
    d9f0:	e5cc3000 	strb	r3, [ip]
    d9f4:	e3a0e005 	mov	lr, #5	; 0x5
    d9f8:	e7c5e002 	strb	lr, [r5, r2]
    d9fc:	e7c5e000 	strb	lr, [r5, r0]
    da00:	e5dc0000 	ldrb	r0, [ip]
    da04:	e35000ff 	cmp	r0, #255	; 0xff
    da08:	03a03000 	moveq	r3, #0	; 0x0
    da0c:	05cc3000 	streqb	r3, [ip]
    da10:	e59f648c 	ldr	r6, [pc, #1164]	; dea4 <.text+0x5ea4>
    da14:	e5d61000 	ldrb	r1, [r6]
    da18:	e59fe488 	ldr	lr, [pc, #1160]	; dea8 <.text+0x5ea8>
    da1c:	01a00003 	moveq	r0, r3
    da20:	e2802001 	add	r2, r0, #1	; 0x1
    da24:	e2813005 	add	r3, r1, #5	; 0x5
    da28:	e5cc2000 	strb	r2, [ip]
    da2c:	e5ce3000 	strb	r3, [lr]
    da30:	e7c51000 	strb	r1, [r5, r0]
    da34:	e5de2000 	ldrb	r2, [lr]
    da38:	e5dc0000 	ldrb	r0, [ip]
    da3c:	e59f4468 	ldr	r4, [pc, #1128]	; deac <.text+0x5eac>
    da40:	e2823005 	add	r3, r2, #5	; 0x5
    da44:	e35000ff 	cmp	r0, #255	; 0xff
    da48:	e5c43000 	strb	r3, [r4]
    da4c:	03a03000 	moveq	r3, #0	; 0x0
    da50:	05cc3000 	streqb	r3, [ip]
    da54:	e5d61001 	ldrb	r1, [r6, #1]
    da58:	01a00003 	moveq	r0, r3
    da5c:	e0813002 	add	r3, r1, r2
    da60:	e2802001 	add	r2, r0, #1	; 0x1
    da64:	e5cc2000 	strb	r2, [ip]
    da68:	e5ce3000 	strb	r3, [lr]
    da6c:	e7c51000 	strb	r1, [r5, r0]
    da70:	e5de2000 	ldrb	r2, [lr]
    da74:	e5dc0000 	ldrb	r0, [ip]
    da78:	e5d43000 	ldrb	r3, [r4]
    da7c:	e35000ff 	cmp	r0, #255	; 0xff
    da80:	e0833002 	add	r3, r3, r2
    da84:	e5c43000 	strb	r3, [r4]
    da88:	03a03000 	moveq	r3, #0	; 0x0
    da8c:	05cc3000 	streqb	r3, [ip]
    da90:	e5d61002 	ldrb	r1, [r6, #2]
    da94:	01a00003 	moveq	r0, r3
    da98:	e0813002 	add	r3, r1, r2
    da9c:	e2802001 	add	r2, r0, #1	; 0x1
    daa0:	e5ce3000 	strb	r3, [lr]
    daa4:	e5cc2000 	strb	r2, [ip]
    daa8:	e7c51000 	strb	r1, [r5, r0]
    daac:	e5de2000 	ldrb	r2, [lr]
    dab0:	e5dc0000 	ldrb	r0, [ip]
    dab4:	e5d43000 	ldrb	r3, [r4]
    dab8:	e35000ff 	cmp	r0, #255	; 0xff
    dabc:	e0833002 	add	r3, r3, r2
    dac0:	e5c43000 	strb	r3, [r4]
    dac4:	03a03000 	moveq	r3, #0	; 0x0
    dac8:	05cc3000 	streqb	r3, [ip]
    dacc:	e5d61003 	ldrb	r1, [r6, #3]
    dad0:	01a00003 	moveq	r0, r3
    dad4:	e0813002 	add	r3, r1, r2
    dad8:	e2802001 	add	r2, r0, #1	; 0x1
    dadc:	e5cc2000 	strb	r2, [ip]
    dae0:	e5ce3000 	strb	r3, [lr]
    dae4:	e7c51000 	strb	r1, [r5, r0]
    dae8:	e5de2000 	ldrb	r2, [lr]
    daec:	e5dc0000 	ldrb	r0, [ip]
    daf0:	e5d43000 	ldrb	r3, [r4]
    daf4:	e35000ff 	cmp	r0, #255	; 0xff
    daf8:	e0833002 	add	r3, r3, r2
    dafc:	e5c43000 	strb	r3, [r4]
    db00:	03a03000 	moveq	r3, #0	; 0x0
    db04:	05cc3000 	streqb	r3, [ip]
    db08:	e59f63a0 	ldr	r6, [pc, #928]	; deb0 <.text+0x5eb0>
    db0c:	e5d61000 	ldrb	r1, [r6]
    db10:	01a00003 	moveq	r0, r3
    db14:	e0813002 	add	r3, r1, r2
    db18:	e2802001 	add	r2, r0, #1	; 0x1
    db1c:	e5cc2000 	strb	r2, [ip]
    db20:	e5ce3000 	strb	r3, [lr]
    db24:	e7c51000 	strb	r1, [r5, r0]
    db28:	e5de2000 	ldrb	r2, [lr]
    db2c:	e5dc0000 	ldrb	r0, [ip]
    db30:	e5d43000 	ldrb	r3, [r4]
    db34:	e35000ff 	cmp	r0, #255	; 0xff
    db38:	e0833002 	add	r3, r3, r2
    db3c:	e5c43000 	strb	r3, [r4]
    db40:	03a03000 	moveq	r3, #0	; 0x0
    db44:	05cc3000 	streqb	r3, [ip]
    db48:	e5d61001 	ldrb	r1, [r6, #1]
    db4c:	01a00003 	moveq	r0, r3
    db50:	e0813002 	add	r3, r1, r2
    db54:	e2802001 	add	r2, r0, #1	; 0x1
    db58:	e5cc2000 	strb	r2, [ip]
    db5c:	e5ce3000 	strb	r3, [lr]
    db60:	e7c51000 	strb	r1, [r5, r0]
    db64:	e5de2000 	ldrb	r2, [lr]
    db68:	e5dc0000 	ldrb	r0, [ip]
    db6c:	e5d43000 	ldrb	r3, [r4]
    db70:	e35000ff 	cmp	r0, #255	; 0xff
    db74:	e0833002 	add	r3, r3, r2
    db78:	e5c43000 	strb	r3, [r4]
    db7c:	03a03000 	moveq	r3, #0	; 0x0
    db80:	05cc3000 	streqb	r3, [ip]
    db84:	e5d61002 	ldrb	r1, [r6, #2]
    db88:	01a00003 	moveq	r0, r3
    db8c:	e0813002 	add	r3, r1, r2
    db90:	e2802001 	add	r2, r0, #1	; 0x1
    db94:	e5ce3000 	strb	r3, [lr]
    db98:	e5cc2000 	strb	r2, [ip]
    db9c:	e7c51000 	strb	r1, [r5, r0]
    dba0:	e5de2000 	ldrb	r2, [lr]
    dba4:	e5dc0000 	ldrb	r0, [ip]
    dba8:	e5d43000 	ldrb	r3, [r4]
    dbac:	e35000ff 	cmp	r0, #255	; 0xff
    dbb0:	e0833002 	add	r3, r3, r2
    dbb4:	e5c43000 	strb	r3, [r4]
    dbb8:	03a03000 	moveq	r3, #0	; 0x0
    dbbc:	05cc3000 	streqb	r3, [ip]
    dbc0:	e5d61003 	ldrb	r1, [r6, #3]
    dbc4:	01a00003 	moveq	r0, r3
    dbc8:	e0813002 	add	r3, r1, r2
    dbcc:	e2802001 	add	r2, r0, #1	; 0x1
    dbd0:	e5cc2000 	strb	r2, [ip]
    dbd4:	e5ce3000 	strb	r3, [lr]
    dbd8:	e7c51000 	strb	r1, [r5, r0]
    dbdc:	e5de2000 	ldrb	r2, [lr]
    dbe0:	e5dc0000 	ldrb	r0, [ip]
    dbe4:	e5d43000 	ldrb	r3, [r4]
    dbe8:	e35000ff 	cmp	r0, #255	; 0xff
    dbec:	e0833002 	add	r3, r3, r2
    dbf0:	e5c43000 	strb	r3, [r4]
    dbf4:	03a03000 	moveq	r3, #0	; 0x0
    dbf8:	05cc3000 	streqb	r3, [ip]
    dbfc:	e59f62b0 	ldr	r6, [pc, #688]	; deb4 <.text+0x5eb4>
    dc00:	e5d61000 	ldrb	r1, [r6]
    dc04:	01a00003 	moveq	r0, r3
    dc08:	e0813002 	add	r3, r1, r2
    dc0c:	e2802001 	add	r2, r0, #1	; 0x1
    dc10:	e5cc2000 	strb	r2, [ip]
    dc14:	e5ce3000 	strb	r3, [lr]
    dc18:	e7c51000 	strb	r1, [r5, r0]
    dc1c:	e5de2000 	ldrb	r2, [lr]
    dc20:	e5dc0000 	ldrb	r0, [ip]
    dc24:	e5d43000 	ldrb	r3, [r4]
    dc28:	e35000ff 	cmp	r0, #255	; 0xff
    dc2c:	e0833002 	add	r3, r3, r2
    dc30:	e5c43000 	strb	r3, [r4]
    dc34:	03a03000 	moveq	r3, #0	; 0x0
    dc38:	05cc3000 	streqb	r3, [ip]
    dc3c:	e5d61001 	ldrb	r1, [r6, #1]
    dc40:	01a00003 	moveq	r0, r3
    dc44:	e0813002 	add	r3, r1, r2
    dc48:	e2802001 	add	r2, r0, #1	; 0x1
    dc4c:	e5cc2000 	strb	r2, [ip]
    dc50:	e5ce3000 	strb	r3, [lr]
    dc54:	e7c51000 	strb	r1, [r5, r0]
    dc58:	e5de2000 	ldrb	r2, [lr]
    dc5c:	e5dc0000 	ldrb	r0, [ip]
    dc60:	e5d43000 	ldrb	r3, [r4]
    dc64:	e35000ff 	cmp	r0, #255	; 0xff
    dc68:	e0833002 	add	r3, r3, r2
    dc6c:	e5c43000 	strb	r3, [r4]
    dc70:	03a03000 	moveq	r3, #0	; 0x0
    dc74:	05cc3000 	streqb	r3, [ip]
    dc78:	e5d61002 	ldrb	r1, [r6, #2]
    dc7c:	01a00003 	moveq	r0, r3
    dc80:	e0813002 	add	r3, r1, r2
    dc84:	e2802001 	add	r2, r0, #1	; 0x1
    dc88:	e5ce3000 	strb	r3, [lr]
    dc8c:	e5cc2000 	strb	r2, [ip]
    dc90:	e7c51000 	strb	r1, [r5, r0]
    dc94:	e5de2000 	ldrb	r2, [lr]
    dc98:	e5dc0000 	ldrb	r0, [ip]
    dc9c:	e5d43000 	ldrb	r3, [r4]
    dca0:	e35000ff 	cmp	r0, #255	; 0xff
    dca4:	e0833002 	add	r3, r3, r2
    dca8:	e5c43000 	strb	r3, [r4]
    dcac:	03a03000 	moveq	r3, #0	; 0x0
    dcb0:	05cc3000 	streqb	r3, [ip]
    dcb4:	e5d61003 	ldrb	r1, [r6, #3]
    dcb8:	01a00003 	moveq	r0, r3
    dcbc:	e0813002 	add	r3, r1, r2
    dcc0:	e2802001 	add	r2, r0, #1	; 0x1
    dcc4:	e5cc2000 	strb	r2, [ip]
    dcc8:	e5ce3000 	strb	r3, [lr]
    dccc:	e7c51000 	strb	r1, [r5, r0]
    dcd0:	e5de2000 	ldrb	r2, [lr]
    dcd4:	e5dc0000 	ldrb	r0, [ip]
    dcd8:	e5d43000 	ldrb	r3, [r4]
    dcdc:	e35000ff 	cmp	r0, #255	; 0xff
    dce0:	e0833002 	add	r3, r3, r2
    dce4:	e5c43000 	strb	r3, [r4]
    dce8:	03a03000 	moveq	r3, #0	; 0x0
    dcec:	05cc3000 	streqb	r3, [ip]
    dcf0:	e59f61c0 	ldr	r6, [pc, #448]	; deb8 <.text+0x5eb8>
    dcf4:	e5d61000 	ldrb	r1, [r6]
    dcf8:	01a00003 	moveq	r0, r3
    dcfc:	e0813002 	add	r3, r1, r2
    dd00:	e2802001 	add	r2, r0, #1	; 0x1
    dd04:	e5cc2000 	strb	r2, [ip]
    dd08:	e5ce3000 	strb	r3, [lr]
    dd0c:	e7c51000 	strb	r1, [r5, r0]
    dd10:	e5de2000 	ldrb	r2, [lr]
    dd14:	e5dc0000 	ldrb	r0, [ip]
    dd18:	e5d43000 	ldrb	r3, [r4]
    dd1c:	e35000ff 	cmp	r0, #255	; 0xff
    dd20:	e0833002 	add	r3, r3, r2
    dd24:	e5c43000 	strb	r3, [r4]
    dd28:	03a03000 	moveq	r3, #0	; 0x0
    dd2c:	05cc3000 	streqb	r3, [ip]
    dd30:	e5d61001 	ldrb	r1, [r6, #1]
    dd34:	01a00003 	moveq	r0, r3
    dd38:	e0813002 	add	r3, r1, r2
    dd3c:	e2802001 	add	r2, r0, #1	; 0x1
    dd40:	e5cc2000 	strb	r2, [ip]
    dd44:	e5ce3000 	strb	r3, [lr]
    dd48:	e7c51000 	strb	r1, [r5, r0]
    dd4c:	e5de2000 	ldrb	r2, [lr]
    dd50:	e5dc0000 	ldrb	r0, [ip]
    dd54:	e5d43000 	ldrb	r3, [r4]
    dd58:	e35000ff 	cmp	r0, #255	; 0xff
    dd5c:	e0833002 	add	r3, r3, r2
    dd60:	e5c43000 	strb	r3, [r4]
    dd64:	03a03000 	moveq	r3, #0	; 0x0
    dd68:	05cc3000 	streqb	r3, [ip]
    dd6c:	e59f6148 	ldr	r6, [pc, #328]	; debc <.text+0x5ebc>
    dd70:	e5d61000 	ldrb	r1, [r6]
    dd74:	01a00003 	moveq	r0, r3
    dd78:	e0813002 	add	r3, r1, r2
    dd7c:	e2802001 	add	r2, r0, #1	; 0x1
    dd80:	e5ce3000 	strb	r3, [lr]
    dd84:	e5cc2000 	strb	r2, [ip]
    dd88:	e7c51000 	strb	r1, [r5, r0]
    dd8c:	e5de2000 	ldrb	r2, [lr]
    dd90:	e5dc0000 	ldrb	r0, [ip]
    dd94:	e5d43000 	ldrb	r3, [r4]
    dd98:	e35000ff 	cmp	r0, #255	; 0xff
    dd9c:	e0833002 	add	r3, r3, r2
    dda0:	e5c43000 	strb	r3, [r4]
    dda4:	03a03000 	moveq	r3, #0	; 0x0
    dda8:	05cc3000 	streqb	r3, [ip]
    ddac:	e5d61001 	ldrb	r1, [r6, #1]
    ddb0:	01a00003 	moveq	r0, r3
    ddb4:	e0813002 	add	r3, r1, r2
    ddb8:	e2802001 	add	r2, r0, #1	; 0x1
    ddbc:	e5cc2000 	strb	r2, [ip]
    ddc0:	e5ce3000 	strb	r3, [lr]
    ddc4:	e7c51000 	strb	r1, [r5, r0]
    ddc8:	e5d43000 	ldrb	r3, [r4]
    ddcc:	e5dc0000 	ldrb	r0, [ip]
    ddd0:	e5de1000 	ldrb	r1, [lr]
    ddd4:	e35000ff 	cmp	r0, #255	; 0xff
    ddd8:	e0833001 	add	r3, r3, r1
    dddc:	e5c43000 	strb	r3, [r4]
    dde0:	03a03000 	moveq	r3, #0	; 0x0
    dde4:	01a00003 	moveq	r0, r3
    dde8:	05cc3000 	streqb	r3, [ip]
    ddec:	e2803001 	add	r3, r0, #1	; 0x1
    ddf0:	e5cc3000 	strb	r3, [ip]
    ddf4:	e7c51000 	strb	r1, [r5, r0]
    ddf8:	e5dc0000 	ldrb	r0, [ip]
    ddfc:	e35000ff 	cmp	r0, #255	; 0xff
    de00:	03a03000 	moveq	r3, #0	; 0x0
    de04:	01a00003 	moveq	r0, r3
    de08:	05cc3000 	streqb	r3, [ip]
    de0c:	e2803001 	add	r3, r0, #1	; 0x1
    de10:	e5cc3000 	strb	r3, [ip]
    de14:	e5dc2000 	ldrb	r2, [ip]
    de18:	e5d43000 	ldrb	r3, [r4]
    de1c:	e35200ff 	cmp	r2, #255	; 0xff
    de20:	e7c53000 	strb	r3, [r5, r0]
    de24:	03a03000 	moveq	r3, #0	; 0x0
    de28:	05cc3000 	streqb	r3, [ip]
    de2c:	e3a0c059 	mov	ip, #89	; 0x59
    de30:	e5dc3000 	ldrb	r3, [ip]
    de34:	e1a03223 	mov	r3, r3, lsr #4
    de38:	e213e001 	ands	lr, r3, #1	; 0x1
    de3c:	18bd80f0 	ldmneia	sp!, {r4, r5, r6, r7, pc}
    de40:	e5d70000 	ldrb	r0, [r7]
    de44:	e5d73000 	ldrb	r3, [r7]
    de48:	e2833001 	add	r3, r3, #1	; 0x1
    de4c:	e5c73000 	strb	r3, [r7]
    de50:	e5d72000 	ldrb	r2, [r7]
    de54:	e7d51000 	ldrb	r1, [r5, r0]
    de58:	e35200ff 	cmp	r2, #255	; 0xff
    de5c:	e59f305c 	ldr	r3, [pc, #92]	; dec0 <.text+0x5ec0>
    de60:	e59f205c 	ldr	r2, [pc, #92]	; dec4 <.text+0x5ec4>
    de64:	e5c31000 	strb	r1, [r3]
    de68:	e5c2e000 	strb	lr, [r2]
    de6c:	05c7e000 	streqb	lr, [r7]
    de70:	e3a03058 	mov	r3, #88	; 0x58
    de74:	e5d32000 	ldrb	r2, [r3]
    de78:	e3822001 	orr	r2, r2, #1	; 0x1
    de7c:	e5c32000 	strb	r2, [r3]
    de80:	e5dc1000 	ldrb	r1, [ip]
    de84:	e3811010 	orr	r1, r1, #16	; 0x10
    de88:	e5cc1000 	strb	r1, [ip]
    de8c:	e8bd80f0 	ldmia	sp!, {r4, r5, r6, r7, pc}
    de90:	00013b5d 	andeq	r3, r1, sp, asr fp
    de94:	000139f6 	streqd	r3, [r1], -r6
    de98:	000139f5 	streqd	r3, [r1], -r5
    de9c:	000139f3 	streqd	r3, [r1], -r3
    dea0:	000139f8 	streqd	r3, [r1], -r8
    dea4:	00013bc4 	andeq	r3, r1, r4, asr #23
    dea8:	00013af7 	streqd	r3, [r1], -r7
    deac:	000139f2 	streqd	r3, [r1], -r2
    deb0:	00013bdc 	ldreqd	r3, [r1], -ip
    deb4:	00013bbc 	streqh	r3, [r1], -ip
    deb8:	0001350a 	andeq	r3, r1, sl, lsl #10
    debc:	00013508 	andeq	r3, r1, r8, lsl #10
    dec0:	000139f4 	streqd	r3, [r1], -r4
    dec4:	000139f7 	streqd	r3, [r1], -r7

0000dec8 <send_takeOff>:
    dec8:	e1a0c00d 	mov	ip, sp
    decc:	e92dddf0 	stmdb	sp!, {r4, r5, r6, r7, r8, sl, fp, ip, lr, pc}
    ded0:	e59f8208 	ldr	r8, [pc, #520]	; e0e0 <.text+0x60e0>
    ded4:	e5d83000 	ldrb	r3, [r8]
    ded8:	e3530000 	cmp	r3, #0	; 0x0
    dedc:	e24cb004 	sub	fp, ip, #4	; 0x4
    dee0:	089dadf0 	ldmeqia	sp, {r4, r5, r6, r7, r8, sl, fp, sp, pc}
    dee4:	e59f41f8 	ldr	r4, [pc, #504]	; e0e4 <.text+0x60e4>
    dee8:	e1d430b0 	ldrh	r3, [r4]
    deec:	e3530000 	cmp	r3, #0	; 0x0
    def0:	1a000077 	bne	e0d4 <send_takeOff+0x20c>
    def4:	e59f31ec 	ldr	r3, [pc, #492]	; e0e8 <.text+0x60e8>
    def8:	e3a01101 	mov	r1, #1073741824	; 0x40000000
    defc:	e5930000 	ldr	r0, [r3]
    df00:	e281160a 	add	r1, r1, #10485760	; 0xa00000
    df04:	eb0014ca 	bl	13234 <__gesf2>
    df08:	e3500000 	cmp	r0, #0	; 0x0
    df0c:	da000070 	ble	e0d4 <send_takeOff+0x20c>
    df10:	e59f71d4 	ldr	r7, [pc, #468]	; e0ec <.text+0x60ec>
    df14:	e59fe1d4 	ldr	lr, [pc, #468]	; e0f0 <.text+0x60f0>
    df18:	e5d73000 	ldrb	r3, [r7]
    df1c:	e5de1000 	ldrb	r1, [lr]
    df20:	e1510003 	cmp	r1, r3
    df24:	e59f31c8 	ldr	r3, [pc, #456]	; e0f4 <.text+0x60f4>
    df28:	e3a02001 	mov	r2, #1	; 0x1
    df2c:	e5c32000 	strb	r2, [r3]
    df30:	25d73000 	ldrcsb	r3, [r7]
    df34:	35d73000 	ldrccb	r3, [r7]
    df38:	20633001 	rsbcs	r3, r3, r1
    df3c:	226330ff 	rsbcs	r3, r3, #255	; 0xff
    df40:	30613003 	rsbcc	r3, r1, r3
    df44:	e3530006 	cmp	r3, #6	; 0x6
    df48:	e1c420b0 	strh	r2, [r4]
    df4c:	d59f21a4 	ldrle	r2, [pc, #420]	; e0f8 <.text+0x60f8>
    df50:	d5d23000 	ldrleb	r3, [r2]
    df54:	d2833001 	addle	r3, r3, #1	; 0x1
    df58:	d5c23000 	strleb	r3, [r2]
    df5c:	da00005c 	ble	e0d4 <send_takeOff+0x20c>
    df60:	e5de3000 	ldrb	r3, [lr]
    df64:	e2832001 	add	r2, r3, #1	; 0x1
    df68:	e5ce2000 	strb	r2, [lr]
    df6c:	e5de0000 	ldrb	r0, [lr]
    df70:	e59f5184 	ldr	r5, [pc, #388]	; e0fc <.text+0x60fc>
    df74:	e35000ff 	cmp	r0, #255	; 0xff
    df78:	e3a02005 	mov	r2, #5	; 0x5
    df7c:	e7c52003 	strb	r2, [r5, r3]
    df80:	03a03000 	moveq	r3, #0	; 0x0
    df84:	e59fc164 	ldr	ip, [pc, #356]	; e0f0 <.text+0x60f0>
    df88:	01a00003 	moveq	r0, r3
    df8c:	05ce3000 	streqb	r3, [lr]
    df90:	e2803001 	add	r3, r0, #1	; 0x1
    df94:	e5cc3000 	strb	r3, [ip]
    df98:	e3a02004 	mov	r2, #4	; 0x4
    df9c:	e7c52000 	strb	r2, [r5, r0]
    dfa0:	e5dc0000 	ldrb	r0, [ip]
    dfa4:	e35000ff 	cmp	r0, #255	; 0xff
    dfa8:	03a03000 	moveq	r3, #0	; 0x0
    dfac:	05cc3000 	streqb	r3, [ip]
    dfb0:	e59fa148 	ldr	sl, [pc, #328]	; e100 <.text+0x6100>
    dfb4:	e5da1000 	ldrb	r1, [sl]
    dfb8:	01a00003 	moveq	r0, r3
    dfbc:	e59f4140 	ldr	r4, [pc, #320]	; e104 <.text+0x6104>
    dfc0:	e2802001 	add	r2, r0, #1	; 0x1
    dfc4:	e2813004 	add	r3, r1, #4	; 0x4
    dfc8:	e5cc2000 	strb	r2, [ip]
    dfcc:	e5c43000 	strb	r3, [r4]
    dfd0:	e7c51000 	strb	r1, [r5, r0]
    dfd4:	e5d4e000 	ldrb	lr, [r4]
    dfd8:	e5dc0000 	ldrb	r0, [ip]
    dfdc:	e59f6124 	ldr	r6, [pc, #292]	; e108 <.text+0x6108>
    dfe0:	e28e3004 	add	r3, lr, #4	; 0x4
    dfe4:	e35000ff 	cmp	r0, #255	; 0xff
    dfe8:	e5c63000 	strb	r3, [r6]
    dfec:	03a03000 	moveq	r3, #0	; 0x0
    dff0:	05cc3000 	streqb	r3, [ip]
    dff4:	e5da1001 	ldrb	r1, [sl, #1]
    dff8:	01a00003 	moveq	r0, r3
    dffc:	e2802001 	add	r2, r0, #1	; 0x1
    e000:	e081300e 	add	r3, r1, lr
    e004:	e5cc2000 	strb	r2, [ip]
    e008:	e5c43000 	strb	r3, [r4]
    e00c:	e7c51000 	strb	r1, [r5, r0]
    e010:	e5d63000 	ldrb	r3, [r6]
    e014:	e5dc0000 	ldrb	r0, [ip]
    e018:	e5d41000 	ldrb	r1, [r4]
    e01c:	e35000ff 	cmp	r0, #255	; 0xff
    e020:	e0833001 	add	r3, r3, r1
    e024:	e5c63000 	strb	r3, [r6]
    e028:	03a03000 	moveq	r3, #0	; 0x0
    e02c:	01a00003 	moveq	r0, r3
    e030:	05cc3000 	streqb	r3, [ip]
    e034:	e2803001 	add	r3, r0, #1	; 0x1
    e038:	e5cc3000 	strb	r3, [ip]
    e03c:	e7c51000 	strb	r1, [r5, r0]
    e040:	e5dc0000 	ldrb	r0, [ip]
    e044:	e35000ff 	cmp	r0, #255	; 0xff
    e048:	03a03000 	moveq	r3, #0	; 0x0
    e04c:	01a00003 	moveq	r0, r3
    e050:	05cc3000 	streqb	r3, [ip]
    e054:	e2803001 	add	r3, r0, #1	; 0x1
    e058:	e5cc3000 	strb	r3, [ip]
    e05c:	e5dc2000 	ldrb	r2, [ip]
    e060:	e5d63000 	ldrb	r3, [r6]
    e064:	e35200ff 	cmp	r2, #255	; 0xff
    e068:	e7c53000 	strb	r3, [r5, r0]
    e06c:	03a03000 	moveq	r3, #0	; 0x0
    e070:	05cc3000 	streqb	r3, [ip]
    e074:	e3a0c059 	mov	ip, #89	; 0x59
    e078:	e5dc3000 	ldrb	r3, [ip]
    e07c:	e1a03223 	mov	r3, r3, lsr #4
    e080:	e213e001 	ands	lr, r3, #1	; 0x1
    e084:	1a000012 	bne	e0d4 <send_takeOff+0x20c>
    e088:	e5d70000 	ldrb	r0, [r7]
    e08c:	e5d73000 	ldrb	r3, [r7]
    e090:	e2833001 	add	r3, r3, #1	; 0x1
    e094:	e5c73000 	strb	r3, [r7]
    e098:	e5d72000 	ldrb	r2, [r7]
    e09c:	e7d51000 	ldrb	r1, [r5, r0]
    e0a0:	e35200ff 	cmp	r2, #255	; 0xff
    e0a4:	e59f3060 	ldr	r3, [pc, #96]	; e10c <.text+0x610c>
    e0a8:	e59f2060 	ldr	r2, [pc, #96]	; e110 <.text+0x6110>
    e0ac:	e5c31000 	strb	r1, [r3]
    e0b0:	e5c2e000 	strb	lr, [r2]
    e0b4:	05c7e000 	streqb	lr, [r7]
    e0b8:	e3a03058 	mov	r3, #88	; 0x58
    e0bc:	e5d32000 	ldrb	r2, [r3]
    e0c0:	e3822001 	orr	r2, r2, #1	; 0x1
    e0c4:	e5c32000 	strb	r2, [r3]
    e0c8:	e5dc1000 	ldrb	r1, [ip]
    e0cc:	e3811010 	orr	r1, r1, #16	; 0x10
    e0d0:	e5cc1000 	strb	r1, [ip]
    e0d4:	e3a03000 	mov	r3, #0	; 0x0
    e0d8:	e5c83000 	strb	r3, [r8]
    e0dc:	e89dadf0 	ldmia	sp, {r4, r5, r6, r7, r8, sl, fp, sp, pc}
    e0e0:	00013b5d 	andeq	r3, r1, sp, asr fp
    e0e4:	00013ba8 	andeq	r3, r1, r8, lsr #23
    e0e8:	00013bc8 	andeq	r3, r1, r8, asr #23
    e0ec:	000139f6 	streqd	r3, [r1], -r6
    e0f0:	000139f5 	streqd	r3, [r1], -r5
    e0f4:	000135a0 	andeq	r3, r1, r0, lsr #11
    e0f8:	000139f3 	streqd	r3, [r1], -r3
    e0fc:	000139f8 	streqd	r3, [r1], -r8
    e100:	000135a6 	andeq	r3, r1, r6, lsr #11
    e104:	00013af7 	streqd	r3, [r1], -r7
    e108:	000139f2 	streqd	r3, [r1], -r2
    e10c:	000139f4 	streqd	r3, [r1], -r4
    e110:	000139f7 	streqd	r3, [r1], -r7

0000e114 <modem_init>:
    e114:	e3a02037 	mov	r2, #55	; 0x37
    e118:	e5d23000 	ldrb	r3, [r2]
    e11c:	e3833010 	orr	r3, r3, #16	; 0x10
    e120:	e5c23000 	strb	r3, [r2]
    e124:	e3a01001 	mov	r1, #1	; 0x1
    e128:	e3a03051 	mov	r3, #81	; 0x51
    e12c:	e5c31000 	strb	r1, [r3]
    e130:	e242201e 	sub	r2, r2, #30	; 0x1e
    e134:	e2833002 	add	r3, r3, #2	; 0x2
    e138:	e5c32000 	strb	r2, [r3]
    e13c:	e3a00031 	mov	r0, #49	; 0x31
    e140:	e5d03000 	ldrb	r3, [r0]
    e144:	e1e03d03 	mvn	r3, r3, lsl #26
    e148:	e1e03d23 	mvn	r3, r3, lsr #26
    e14c:	e5c03000 	strb	r3, [r0]
    e150:	e0811000 	add	r1, r1, r0
    e154:	e5d13000 	ldrb	r3, [r1]
    e158:	e3833040 	orr	r3, r3, #64	; 0x40
    e15c:	e5c13000 	strb	r3, [r1]
    e160:	e5d12000 	ldrb	r2, [r1]
    e164:	e202207f 	and	r2, r2, #127	; 0x7f
    e168:	e5c12000 	strb	r2, [r1]
    e16c:	e2800029 	add	r0, r0, #41	; 0x29
    e170:	e5d03000 	ldrb	r3, [r0]
    e174:	e3833002 	orr	r3, r3, #2	; 0x2
    e178:	e5c03000 	strb	r3, [r0]
    e17c:	e1a0f00e 	mov	pc, lr

0000e180 <__vector_5>:
    e180:	e59f10f8 	ldr	r1, [pc, #248]	; e280 <.text+0x6280>
    e184:	e5d13000 	ldrb	r3, [r1]
    e188:	e3530000 	cmp	r3, #0	; 0x0
    e18c:	03a02032 	moveq	r2, #50	; 0x32
    e190:	05d23000 	ldreqb	r3, [r2]
    e194:	03c33040 	biceq	r3, r3, #64	; 0x40
    e198:	0a000004 	beq	e1b0 <__vector_5+0x30>
    e19c:	e3530008 	cmp	r3, #8	; 0x8
    e1a0:	83a02032 	movhi	r2, #50	; 0x32
    e1a4:	85d23000 	ldrhib	r3, [r2]
    e1a8:	83833040 	orrhi	r3, r3, #64	; 0x40
    e1ac:	9a00001f 	bls	e230 <__vector_5+0xb0>
    e1b0:	e5c23000 	strb	r3, [r2]
    e1b4:	e5d13000 	ldrb	r3, [r1]
    e1b8:	e2833001 	add	r3, r3, #1	; 0x1
    e1bc:	e5c13000 	strb	r3, [r1]
    e1c0:	e5d12000 	ldrb	r2, [r1]
    e1c4:	e3520009 	cmp	r2, #9	; 0x9
    e1c8:	91a0f00e 	movls	pc, lr
    e1cc:	e59f30b0 	ldr	r3, [pc, #176]	; e284 <.text+0x6284>
    e1d0:	e59fc0b0 	ldr	ip, [pc, #176]	; e288 <.text+0x6288>
    e1d4:	e5d31000 	ldrb	r1, [r3]
    e1d8:	e5dc2000 	ldrb	r2, [ip]
    e1dc:	e1510002 	cmp	r1, r2
    e1e0:	03a02059 	moveq	r2, #89	; 0x59
    e1e4:	05d23000 	ldreqb	r3, [r2]
    e1e8:	03c33010 	biceq	r3, r3, #16	; 0x10
    e1ec:	05c23000 	streqb	r3, [r2]
    e1f0:	01a0f00e 	moveq	pc, lr
    e1f4:	e5dc0000 	ldrb	r0, [ip]
    e1f8:	e5dc3000 	ldrb	r3, [ip]
    e1fc:	e2833001 	add	r3, r3, #1	; 0x1
    e200:	e5cc3000 	strb	r3, [ip]
    e204:	e59f3080 	ldr	r3, [pc, #128]	; e28c <.text+0x628c>
    e208:	e5dc2000 	ldrb	r2, [ip]
    e20c:	e7d31000 	ldrb	r1, [r3, r0]
    e210:	e35200ff 	cmp	r2, #255	; 0xff
    e214:	e59f3064 	ldr	r3, [pc, #100]	; e280 <.text+0x6280>
    e218:	e59f2070 	ldr	r2, [pc, #112]	; e290 <.text+0x6290>
    e21c:	e3a00000 	mov	r0, #0	; 0x0
    e220:	e5c21000 	strb	r1, [r2]
    e224:	e5c30000 	strb	r0, [r3]
    e228:	05cc0000 	streqb	r0, [ip]
    e22c:	e1a0f00e 	mov	pc, lr
    e230:	e59f0058 	ldr	r0, [pc, #88]	; e290 <.text+0x6290>
    e234:	e5d03000 	ldrb	r3, [r0]
    e238:	e3130001 	tst	r3, #1	; 0x1
    e23c:	13a02032 	movne	r2, #50	; 0x32
    e240:	03a02032 	moveq	r2, #50	; 0x32
    e244:	15d23000 	ldrneb	r3, [r2]
    e248:	05d23000 	ldreqb	r3, [r2]
    e24c:	13833040 	orrne	r3, r3, #64	; 0x40
    e250:	03c33040 	biceq	r3, r3, #64	; 0x40
    e254:	e5c23000 	strb	r3, [r2]
    e258:	e5d03000 	ldrb	r3, [r0]
    e25c:	e1a030a3 	mov	r3, r3, lsr #1
    e260:	e5c03000 	strb	r3, [r0]
    e264:	e5d13000 	ldrb	r3, [r1]
    e268:	e2833001 	add	r3, r3, #1	; 0x1
    e26c:	e5c13000 	strb	r3, [r1]
    e270:	e5d12000 	ldrb	r2, [r1]
    e274:	e3520009 	cmp	r2, #9	; 0x9
    e278:	91a0f00e 	movls	pc, lr
    e27c:	eaffffd2 	b	e1cc <__vector_5+0x4c>
    e280:	000139f7 	streqd	r3, [r1], -r7
    e284:	000139f5 	streqd	r3, [r1], -r5
    e288:	000139f6 	streqd	r3, [r1], -r6
    e28c:	000139f8 	streqd	r3, [r1], -r8
    e290:	000139f4 	streqd	r3, [r1], -r4

0000e294 <link_fbw_init>:
    e294:	e59f3010 	ldr	r3, [pc, #16]	; e2ac <.text+0x62ac>
    e298:	e5d31000 	ldrb	r1, [r3]
    e29c:	e59f300c 	ldr	r3, [pc, #12]	; e2b0 <.text+0x62b0>
    e2a0:	e3a02000 	mov	r2, #0	; 0x0
    e2a4:	e5c32000 	strb	r2, [r3]
    e2a8:	e1a0f00e 	mov	pc, lr
    e2ac:	00013b29 	andeq	r3, r1, r9, lsr #22
    e2b0:	00013502 	andeq	r3, r1, r2, lsl #10

0000e2b4 <link_fbw_send>:
    e2b4:	e92d4030 	stmdb	sp!, {r4, r5, lr}
    e2b8:	e59fe09c 	ldr	lr, [pc, #156]	; e35c <.text+0x635c>
    e2bc:	e5de3000 	ldrb	r3, [lr]
    e2c0:	e59f2098 	ldr	r2, [pc, #152]	; e360 <.text+0x6360>
    e2c4:	e20300ff 	and	r0, r3, #255	; 0xff
    e2c8:	e3500000 	cmp	r0, #0	; 0x0
    e2cc:	15d23000 	ldrneb	r3, [r2]
    e2d0:	12833001 	addne	r3, r3, #1	; 0x1
    e2d4:	e59f5088 	ldr	r5, [pc, #136]	; e364 <.text+0x6364>
    e2d8:	e3a0102d 	mov	r1, #45	; 0x2d
    e2dc:	e3a04038 	mov	r4, #56	; 0x38
    e2e0:	15c23000 	strneb	r3, [r2]
    e2e4:	18bd8030 	ldmneia	sp!, {r4, r5, pc}
    e2e8:	e59f3078 	ldr	r3, [pc, #120]	; e368 <.text+0x6368>
    e2ec:	e3a02051 	mov	r2, #81	; 0x51
    e2f0:	e5d3c000 	ldrb	ip, [r3]
    e2f4:	e5c12000 	strb	r2, [r1]
    e2f8:	e3a0302e 	mov	r3, #46	; 0x2e
    e2fc:	e5d32000 	ldrb	r2, [r3]
    e300:	e3120080 	tst	r2, #128	; 0x80
    e304:	12833001 	addne	r3, r3, #1	; 0x1
    e308:	15d32000 	ldrneb	r2, [r3]
    e30c:	e5d13000 	ldrb	r3, [r1]
    e310:	e1e03c83 	mvn	r3, r3, lsl #25
    e314:	e1e03ca3 	mvn	r3, r3, lsr #25
    e318:	e3a02001 	mov	r2, #1	; 0x1
    e31c:	e5c13000 	strb	r3, [r1]
    e320:	e5ce2000 	strb	r2, [lr]
    e324:	e5c5c000 	strb	ip, [r5]
    e328:	e5d42000 	ldrb	r2, [r4]
    e32c:	e3c22001 	bic	r2, r2, #1	; 0x1
    e330:	e5d51000 	ldrb	r1, [r5]
    e334:	e5c42000 	strb	r2, [r4]
    e338:	e59f202c 	ldr	r2, [pc, #44]	; e36c <.text+0x636c>
    e33c:	e3a0302f 	mov	r3, #47	; 0x2f
    e340:	e5c31000 	strb	r1, [r3]
    e344:	e5c20000 	strb	r0, [r2]
    e348:	e59f3020 	ldr	r3, [pc, #32]	; e370 <.text+0x6370>
    e34c:	e59f2020 	ldr	r2, [pc, #32]	; e374 <.text+0x6374>
    e350:	e5c30000 	strb	r0, [r3]
    e354:	e5c20000 	strb	r0, [r2]
    e358:	e8bd8030 	ldmia	sp!, {r4, r5, pc}
    e35c:	00013b2b 	andeq	r3, r1, fp, lsr #22
    e360:	00013b2a 	andeq	r3, r1, sl, lsr #22
    e364:	000135bb 	streqh	r3, [r1], -fp
    e368:	00013af8 	streqd	r3, [r1], -r8
    e36c:	000135b8 	streqh	r3, [r1], -r8
    e370:	000135b9 	streqh	r3, [r1], -r9
    e374:	000135ba 	streqh	r3, [r1], -sl

0000e378 <link_fbw_on_spi_it>:
    e378:	e3a0204c 	mov	r2, #76	; 0x4c
    e37c:	e1d230b0 	ldrh	r3, [r2]
    e380:	e2422002 	sub	r2, r2, #2	; 0x2
    e384:	e28330c8 	add	r3, r3, #200	; 0xc8
    e388:	e1c230b0 	strh	r3, [r2]
    e38c:	e3a01056 	mov	r1, #86	; 0x56
    e390:	e5d13000 	ldrb	r3, [r1]
    e394:	e3833010 	orr	r3, r3, #16	; 0x10
    e398:	e5c13000 	strb	r3, [r1]
    e39c:	e282200d 	add	r2, r2, #13	; 0xd
    e3a0:	e5d23000 	ldrb	r3, [r2]
    e3a4:	e3833010 	orr	r3, r3, #16	; 0x10
    e3a8:	e5c23000 	strb	r3, [r2]
    e3ac:	e1a0f00e 	mov	pc, lr

0000e3b0 <__vector_12>:
    e3b0:	e59fc110 	ldr	ip, [pc, #272]	; e4c8 <.text+0x64c8>
    e3b4:	e5dc3000 	ldrb	r3, [ip]
    e3b8:	e2833001 	add	r3, r3, #1	; 0x1
    e3bc:	e5cc3000 	strb	r3, [ip]
    e3c0:	e3a02057 	mov	r2, #87	; 0x57
    e3c4:	e5d23000 	ldrb	r3, [r2]
    e3c8:	e5dc1000 	ldrb	r1, [ip]
