
autopilot.elf:     format de fichier elf32-littlearm

Déassemblage de la section .text:

00008000 <_start>:
    8000:	e1a0c00d 	mov	ip, sp
    8004:	e92dd800 	stmdb	sp!, {fp, ip, lr, pc}
    8008:	e24cb004 	sub	fp, ip, #4	; 0x4
    800c:	e3a0d102 	mov	sp, #-2147483648	; 0x80000000
    8010:	e3a00001 	mov	r0, #1	; 0x1
    8014:	e59f1008 	ldr	r1, [pc, #8]	; 8024 <.text+0x24>
    8018:	e59f2008 	ldr	r2, [pc, #8]	; 8028 <.text+0x28>
    801c:	eb00276d 	bl	11dd8 <main>
    8020:	eafffffe 	b	8020 <_start+0x20>
    8024:	000134f8 	streqd	r3, [r1], -r8
    8028:	0001359c 	muleq	r1, ip, r5

0000802c <ground_calibrate>:
    802c:	e1a0c00d 	mov	ip, sp
    8030:	e92ddff0 	stmdb	sp!, {r4, r5, r6, r7, r8, r9, sl, fp, ip, lr, pc}
    8034:	e59f582c 	ldr	r5, [pc, #2092]	; 8868 <.text+0x868>
    8038:	e5d53000 	ldrb	r3, [r5]
    803c:	e3530000 	cmp	r3, #0	; 0x0
    8040:	e24cb004 	sub	fp, ip, #4	; 0x4
    8044:	1a000048 	bne	816c <ground_calibrate+0x140>
    8048:	e59f381c 	ldr	r3, [pc, #2076]	; 886c <.text+0x86c>
    804c:	e1d320b0 	ldrh	r2, [r3]
    8050:	e3520009 	cmp	r2, #9	; 0x9
    8054:	889daff0 	ldmhiia	sp, {r4, r5, r6, r7, r8, r9, sl, fp, sp, pc}
    8058:	e59f3810 	ldr	r3, [pc, #2064]	; 8870 <.text+0x870>
    805c:	e5d32000 	ldrb	r2, [r3]
    8060:	e3520001 	cmp	r2, #1	; 0x1
    8064:	189daff0 	ldmneia	sp, {r4, r5, r6, r7, r8, r9, sl, fp, sp, pc}
    8068:	e59fa804 	ldr	sl, [pc, #2052]	; 8874 <.text+0x874>
    806c:	e59f8804 	ldr	r8, [pc, #2052]	; 8878 <.text+0x878>
    8070:	e5da3000 	ldrb	r3, [sl]
    8074:	e5d81000 	ldrb	r1, [r8]
    8078:	e1510003 	cmp	r1, r3
    807c:	25da3000 	ldrcsb	r3, [sl]
    8080:	35da3000 	ldrccb	r3, [sl]
    8084:	20633001 	rsbcs	r3, r3, r1
    8088:	226330ff 	rsbcs	r3, r3, #255	; 0xff
    808c:	30613003 	rsbcc	r3, r1, r3
    8090:	e3530004 	cmp	r3, #4	; 0x4
    8094:	e5c52000 	strb	r2, [r5]
    8098:	da0001ed 	ble	8854 <ground_calibrate+0x828>
    809c:	e5d83000 	ldrb	r3, [r8]
    80a0:	e2832001 	add	r2, r3, #1	; 0x1
    80a4:	e5c82000 	strb	r2, [r8]
    80a8:	e5d81000 	ldrb	r1, [r8]
    80ac:	e59f47c8 	ldr	r4, [pc, #1992]	; 887c <.text+0x87c>
    80b0:	e35100ff 	cmp	r1, #255	; 0xff
    80b4:	e3a02005 	mov	r2, #5	; 0x5
    80b8:	e7c42003 	strb	r2, [r4, r3]
    80bc:	03a03000 	moveq	r3, #0	; 0x0
    80c0:	e59f07b0 	ldr	r0, [pc, #1968]	; 8878 <.text+0x878>
    80c4:	01a01003 	moveq	r1, r3
    80c8:	05c83000 	streqb	r3, [r8]
    80cc:	e2813001 	add	r3, r1, #1	; 0x1
    80d0:	e5c03000 	strb	r3, [r0]
    80d4:	e3a0c002 	mov	ip, #2	; 0x2
    80d8:	e7c4c001 	strb	ip, [r4, r1]
    80dc:	e5d01000 	ldrb	r1, [r0]
    80e0:	e35100ff 	cmp	r1, #255	; 0xff
    80e4:	03a03000 	moveq	r3, #0	; 0x0
    80e8:	01a01003 	moveq	r1, r3
    80ec:	05c03000 	streqb	r3, [r0]
    80f0:	e2813001 	add	r3, r1, #1	; 0x1
    80f4:	e5c03000 	strb	r3, [r0]
    80f8:	e7c4c001 	strb	ip, [r4, r1]
    80fc:	e5d01000 	ldrb	r1, [r0]
    8100:	e59f3778 	ldr	r3, [pc, #1912]	; 8880 <.text+0x880>
    8104:	e35100ff 	cmp	r1, #255	; 0xff
    8108:	e5c3c000 	strb	ip, [r3]
    810c:	03a03000 	moveq	r3, #0	; 0x0
    8110:	01a01003 	moveq	r1, r3
    8114:	05c03000 	streqb	r3, [r0]
    8118:	e2813001 	add	r3, r1, #1	; 0x1
    811c:	e5c03000 	strb	r3, [r0]
    8120:	e59f275c 	ldr	r2, [pc, #1884]	; 8884 <.text+0x884>
    8124:	e5c2c000 	strb	ip, [r2]
    8128:	e5d02000 	ldrb	r2, [r0]
    812c:	e35200ff 	cmp	r2, #255	; 0xff
    8130:	03a03000 	moveq	r3, #0	; 0x0
    8134:	e7c4c001 	strb	ip, [r4, r1]
    8138:	05c03000 	streqb	r3, [r0]
    813c:	e3a0c059 	mov	ip, #89	; 0x59
    8140:	e5dc3000 	ldrb	r3, [ip]
    8144:	e1a03223 	mov	r3, r3, lsr #4
    8148:	e213e001 	ands	lr, r3, #1	; 0x1
    814c:	189daff0 	ldmneia	sp, {r4, r5, r6, r7, r8, r9, sl, fp, sp, pc}
    8150:	e5da0000 	ldrb	r0, [sl]
    8154:	e5da3000 	ldrb	r3, [sl]
    8158:	e2833001 	add	r3, r3, #1	; 0x1
    815c:	e5ca3000 	strb	r3, [sl]
    8160:	e7d41000 	ldrb	r1, [r4, r0]
    8164:	e5da2000 	ldrb	r2, [sl]
    8168:	ea0001ab 	b	881c <ground_calibrate+0x7f0>
    816c:	e3530001 	cmp	r3, #1	; 0x1
    8170:	189daff0 	ldmneia	sp, {r4, r5, r6, r7, r8, r9, sl, fp, sp, pc}
    8174:	e59f270c 	ldr	r2, [pc, #1804]	; 8888 <.text+0x888>
    8178:	e1d230b2 	ldrh	r3, [r2, #2]
    817c:	e2833d4b 	add	r3, r3, #4800	; 0x12c0
    8180:	e1a03803 	mov	r3, r3, lsl #16
    8184:	e353057d 	cmp	r3, #524288000	; 0x1f400000
    8188:	989daff0 	ldmlsia	sp, {r4, r5, r6, r7, r8, r9, sl, fp, sp, pc}
    818c:	e59fa6e0 	ldr	sl, [pc, #1760]	; 8874 <.text+0x874>
    8190:	e59f86e0 	ldr	r8, [pc, #1760]	; 8878 <.text+0x878>
    8194:	eb001a7d 	bl	eb90 <ir_gain_calib>
    8198:	e5da3000 	ldrb	r3, [sl]
    819c:	e5d80000 	ldrb	r0, [r8]
    81a0:	e1500003 	cmp	r0, r3
    81a4:	25da3000 	ldrcsb	r3, [sl]
    81a8:	35da3000 	ldrccb	r3, [sl]
    81ac:	20633000 	rsbcs	r3, r3, r0
    81b0:	e59f26d4 	ldr	r2, [pc, #1748]	; 888c <.text+0x88c>
    81b4:	226330ff 	rsbcs	r3, r3, #255	; 0xff
    81b8:	30603003 	rsbcc	r3, r0, r3
    81bc:	e3530014 	cmp	r3, #20	; 0x14
    81c0:	e5921000 	ldr	r1, [r2]
    81c4:	d59f26c4 	ldrle	r2, [pc, #1732]	; 8890 <.text+0x890>
    81c8:	d5d23000 	ldrleb	r3, [r2]
    81cc:	e59f96c0 	ldr	r9, [pc, #1728]	; 8894 <.text+0x894>
    81d0:	d2833001 	addle	r3, r3, #1	; 0x1
    81d4:	e5891000 	str	r1, [r9]
    81d8:	d5c23000 	strleb	r3, [r2]
    81dc:	da000131 	ble	86a8 <ground_calibrate+0x67c>
    81e0:	e5d82000 	ldrb	r2, [r8]
    81e4:	e2823001 	add	r3, r2, #1	; 0x1
    81e8:	e5c83000 	strb	r3, [r8]
    81ec:	e5d80000 	ldrb	r0, [r8]
    81f0:	e35000ff 	cmp	r0, #255	; 0xff
    81f4:	03a03000 	moveq	r3, #0	; 0x0
    81f8:	e59fc678 	ldr	ip, [pc, #1656]	; 8878 <.text+0x878>
    81fc:	01a00003 	moveq	r0, r3
    8200:	05c83000 	streqb	r3, [r8]
    8204:	e2803001 	add	r3, r0, #1	; 0x1
    8208:	e59f666c 	ldr	r6, [pc, #1644]	; 887c <.text+0x87c>
    820c:	e5cc3000 	strb	r3, [ip]
    8210:	e3a01005 	mov	r1, #5	; 0x5
    8214:	e7c61002 	strb	r1, [r6, r2]
    8218:	e7c61000 	strb	r1, [r6, r0]
    821c:	e5dc0000 	ldrb	r0, [ip]
    8220:	e35000ff 	cmp	r0, #255	; 0xff
    8224:	03a03000 	moveq	r3, #0	; 0x0
    8228:	05cc3000 	streqb	r3, [ip]
    822c:	e59f7664 	ldr	r7, [pc, #1636]	; 8898 <.text+0x898>
    8230:	e5d71000 	ldrb	r1, [r7]
    8234:	e59fe644 	ldr	lr, [pc, #1604]	; 8880 <.text+0x880>
    8238:	01a00003 	moveq	r0, r3
    823c:	e2802001 	add	r2, r0, #1	; 0x1
    8240:	e2813005 	add	r3, r1, #5	; 0x5
    8244:	e5cc2000 	strb	r2, [ip]
    8248:	e5ce3000 	strb	r3, [lr]
    824c:	e7c61000 	strb	r1, [r6, r0]
    8250:	e5de2000 	ldrb	r2, [lr]
    8254:	e5dc0000 	ldrb	r0, [ip]
    8258:	e59f4624 	ldr	r4, [pc, #1572]	; 8884 <.text+0x884>
    825c:	e2823005 	add	r3, r2, #5	; 0x5
    8260:	e35000ff 	cmp	r0, #255	; 0xff
    8264:	e5c43000 	strb	r3, [r4]
    8268:	03a03000 	moveq	r3, #0	; 0x0
    826c:	05cc3000 	streqb	r3, [ip]
    8270:	e5d71001 	ldrb	r1, [r7, #1]
    8274:	01a00003 	moveq	r0, r3
    8278:	e0813002 	add	r3, r1, r2
    827c:	e2802001 	add	r2, r0, #1	; 0x1
    8280:	e5cc2000 	strb	r2, [ip]
    8284:	e5ce3000 	strb	r3, [lr]
    8288:	e7c61000 	strb	r1, [r6, r0]
    828c:	e5de2000 	ldrb	r2, [lr]
    8290:	e5dc0000 	ldrb	r0, [ip]
    8294:	e5d43000 	ldrb	r3, [r4]
    8298:	e35000ff 	cmp	r0, #255	; 0xff
    829c:	e0833002 	add	r3, r3, r2
    82a0:	e5c43000 	strb	r3, [r4]
    82a4:	03a03000 	moveq	r3, #0	; 0x0
    82a8:	05cc3000 	streqb	r3, [ip]
    82ac:	e5d71002 	ldrb	r1, [r7, #2]
    82b0:	01a00003 	moveq	r0, r3
    82b4:	e0813002 	add	r3, r1, r2
    82b8:	e2802001 	add	r2, r0, #1	; 0x1
    82bc:	e5ce3000 	strb	r3, [lr]
    82c0:	e5cc2000 	strb	r2, [ip]
    82c4:	e7c61000 	strb	r1, [r6, r0]
    82c8:	e5de2000 	ldrb	r2, [lr]
    82cc:	e5dc0000 	ldrb	r0, [ip]
    82d0:	e5d43000 	ldrb	r3, [r4]
    82d4:	e35000ff 	cmp	r0, #255	; 0xff
    82d8:	e0833002 	add	r3, r3, r2
    82dc:	e5c43000 	strb	r3, [r4]
    82e0:	03a03000 	moveq	r3, #0	; 0x0
    82e4:	05cc3000 	streqb	r3, [ip]
    82e8:	e5d71003 	ldrb	r1, [r7, #3]
    82ec:	01a00003 	moveq	r0, r3
    82f0:	e0813002 	add	r3, r1, r2
    82f4:	e2802001 	add	r2, r0, #1	; 0x1
    82f8:	e5cc2000 	strb	r2, [ip]
    82fc:	e5ce3000 	strb	r3, [lr]
    8300:	e7c61000 	strb	r1, [r6, r0]
    8304:	e5de2000 	ldrb	r2, [lr]
    8308:	e5dc0000 	ldrb	r0, [ip]
    830c:	e5d43000 	ldrb	r3, [r4]
    8310:	e35000ff 	cmp	r0, #255	; 0xff
    8314:	e0833002 	add	r3, r3, r2
    8318:	e5c43000 	strb	r3, [r4]
    831c:	03a03000 	moveq	r3, #0	; 0x0
    8320:	05cc3000 	streqb	r3, [ip]
    8324:	e59f7570 	ldr	r7, [pc, #1392]	; 889c <.text+0x89c>
    8328:	e5d71000 	ldrb	r1, [r7]
    832c:	01a00003 	moveq	r0, r3
    8330:	e0813002 	add	r3, r1, r2
    8334:	e2802001 	add	r2, r0, #1	; 0x1
    8338:	e5cc2000 	strb	r2, [ip]
    833c:	e5ce3000 	strb	r3, [lr]
    8340:	e7c61000 	strb	r1, [r6, r0]
    8344:	e5de2000 	ldrb	r2, [lr]
    8348:	e5dc0000 	ldrb	r0, [ip]
    834c:	e5d43000 	ldrb	r3, [r4]
    8350:	e35000ff 	cmp	r0, #255	; 0xff
    8354:	e0833002 	add	r3, r3, r2
    8358:	e5c43000 	strb	r3, [r4]
    835c:	03a03000 	moveq	r3, #0	; 0x0
    8360:	05cc3000 	streqb	r3, [ip]
    8364:	e5d71001 	ldrb	r1, [r7, #1]
    8368:	01a00003 	moveq	r0, r3
    836c:	e0813002 	add	r3, r1, r2
    8370:	e2802001 	add	r2, r0, #1	; 0x1
    8374:	e5cc2000 	strb	r2, [ip]
    8378:	e5ce3000 	strb	r3, [lr]
    837c:	e7c61000 	strb	r1, [r6, r0]
    8380:	e5de2000 	ldrb	r2, [lr]
    8384:	e5dc0000 	ldrb	r0, [ip]
    8388:	e5d43000 	ldrb	r3, [r4]
    838c:	e35000ff 	cmp	r0, #255	; 0xff
    8390:	e0833002 	add	r3, r3, r2
    8394:	e5c43000 	strb	r3, [r4]
    8398:	03a03000 	moveq	r3, #0	; 0x0
    839c:	05cc3000 	streqb	r3, [ip]
    83a0:	e5d71002 	ldrb	r1, [r7, #2]
    83a4:	01a00003 	moveq	r0, r3
    83a8:	e0813002 	add	r3, r1, r2
    83ac:	e2802001 	add	r2, r0, #1	; 0x1
    83b0:	e5ce3000 	strb	r3, [lr]
    83b4:	e5cc2000 	strb	r2, [ip]
    83b8:	e7c61000 	strb	r1, [r6, r0]
    83bc:	e5de2000 	ldrb	r2, [lr]
    83c0:	e5dc0000 	ldrb	r0, [ip]
    83c4:	e5d43000 	ldrb	r3, [r4]
    83c8:	e35000ff 	cmp	r0, #255	; 0xff
    83cc:	e0833002 	add	r3, r3, r2
    83d0:	e5c43000 	strb	r3, [r4]
    83d4:	03a03000 	moveq	r3, #0	; 0x0
    83d8:	05cc3000 	streqb	r3, [ip]
    83dc:	e5d71003 	ldrb	r1, [r7, #3]
    83e0:	01a00003 	moveq	r0, r3
    83e4:	e0813002 	add	r3, r1, r2
    83e8:	e2802001 	add	r2, r0, #1	; 0x1
    83ec:	e5cc2000 	strb	r2, [ip]
    83f0:	e5ce3000 	strb	r3, [lr]
    83f4:	e7c61000 	strb	r1, [r6, r0]
    83f8:	e5de2000 	ldrb	r2, [lr]
    83fc:	e5dc0000 	ldrb	r0, [ip]
    8400:	e5d43000 	ldrb	r3, [r4]
    8404:	e35000ff 	cmp	r0, #255	; 0xff
    8408:	e0833002 	add	r3, r3, r2
    840c:	e5c43000 	strb	r3, [r4]
    8410:	03a03000 	moveq	r3, #0	; 0x0
    8414:	05cc3000 	streqb	r3, [ip]
    8418:	e5d91000 	ldrb	r1, [r9]
    841c:	01a00003 	moveq	r0, r3
    8420:	e0813002 	add	r3, r1, r2
    8424:	e2802001 	add	r2, r0, #1	; 0x1
    8428:	e5cc2000 	strb	r2, [ip]
    842c:	e5ce3000 	strb	r3, [lr]
    8430:	e7c61000 	strb	r1, [r6, r0]
    8434:	e5de2000 	ldrb	r2, [lr]
    8438:	e5dc0000 	ldrb	r0, [ip]
    843c:	e5d43000 	ldrb	r3, [r4]
    8440:	e35000ff 	cmp	r0, #255	; 0xff
    8444:	e0833002 	add	r3, r3, r2
    8448:	e5c43000 	strb	r3, [r4]
    844c:	03a03000 	moveq	r3, #0	; 0x0
    8450:	05cc3000 	streqb	r3, [ip]
    8454:	e59f7438 	ldr	r7, [pc, #1080]	; 8894 <.text+0x894>
    8458:	e5d71001 	ldrb	r1, [r7, #1]
    845c:	01a00003 	moveq	r0, r3
    8460:	e0813002 	add	r3, r1, r2
    8464:	e2802001 	add	r2, r0, #1	; 0x1
    8468:	e5cc2000 	strb	r2, [ip]
    846c:	e5ce3000 	strb	r3, [lr]
    8470:	e7c61000 	strb	r1, [r6, r0]
    8474:	e5de2000 	ldrb	r2, [lr]
    8478:	e5dc0000 	ldrb	r0, [ip]
    847c:	e5d43000 	ldrb	r3, [r4]
    8480:	e35000ff 	cmp	r0, #255	; 0xff
    8484:	e0833002 	add	r3, r3, r2
    8488:	e5c43000 	strb	r3, [r4]
    848c:	03a03000 	moveq	r3, #0	; 0x0
    8490:	05cc3000 	streqb	r3, [ip]
    8494:	e5d71002 	ldrb	r1, [r7, #2]
    8498:	01a00003 	moveq	r0, r3
    849c:	e0813002 	add	r3, r1, r2
    84a0:	e2802001 	add	r2, r0, #1	; 0x1
    84a4:	e5ce3000 	strb	r3, [lr]
    84a8:	e5cc2000 	strb	r2, [ip]
    84ac:	e7c61000 	strb	r1, [r6, r0]
    84b0:	e5de2000 	ldrb	r2, [lr]
    84b4:	e5dc0000 	ldrb	r0, [ip]
    84b8:	e5d43000 	ldrb	r3, [r4]
    84bc:	e35000ff 	cmp	r0, #255	; 0xff
    84c0:	e0833002 	add	r3, r3, r2
    84c4:	e5c43000 	strb	r3, [r4]
    84c8:	03a03000 	moveq	r3, #0	; 0x0
    84cc:	05cc3000 	streqb	r3, [ip]
    84d0:	e5d71003 	ldrb	r1, [r7, #3]
    84d4:	01a00003 	moveq	r0, r3
    84d8:	e0813002 	add	r3, r1, r2
    84dc:	e2802001 	add	r2, r0, #1	; 0x1
    84e0:	e5cc2000 	strb	r2, [ip]
    84e4:	e5ce3000 	strb	r3, [lr]
    84e8:	e7c61000 	strb	r1, [r6, r0]
    84ec:	e5de2000 	ldrb	r2, [lr]
    84f0:	e5dc0000 	ldrb	r0, [ip]
    84f4:	e5d43000 	ldrb	r3, [r4]
    84f8:	e35000ff 	cmp	r0, #255	; 0xff
    84fc:	e0833002 	add	r3, r3, r2
    8500:	e5c43000 	strb	r3, [r4]
    8504:	03a03000 	moveq	r3, #0	; 0x0
    8508:	05cc3000 	streqb	r3, [ip]
    850c:	e59f738c 	ldr	r7, [pc, #908]	; 88a0 <.text+0x8a0>
    8510:	e5d71000 	ldrb	r1, [r7]
    8514:	01a00003 	moveq	r0, r3
    8518:	e0813002 	add	r3, r1, r2
    851c:	e2802001 	add	r2, r0, #1	; 0x1
    8520:	e5cc2000 	strb	r2, [ip]
    8524:	e5ce3000 	strb	r3, [lr]
    8528:	e7c61000 	strb	r1, [r6, r0]
    852c:	e5de2000 	ldrb	r2, [lr]
    8530:	e5dc0000 	ldrb	r0, [ip]
    8534:	e5d43000 	ldrb	r3, [r4]
    8538:	e35000ff 	cmp	r0, #255	; 0xff
    853c:	e0833002 	add	r3, r3, r2
    8540:	e5c43000 	strb	r3, [r4]
    8544:	03a03000 	moveq	r3, #0	; 0x0
    8548:	05cc3000 	streqb	r3, [ip]
    854c:	e5d71001 	ldrb	r1, [r7, #1]
    8550:	01a00003 	moveq	r0, r3
    8554:	e0813002 	add	r3, r1, r2
    8558:	e2802001 	add	r2, r0, #1	; 0x1
    855c:	e5cc2000 	strb	r2, [ip]
    8560:	e5ce3000 	strb	r3, [lr]
    8564:	e7c61000 	strb	r1, [r6, r0]
    8568:	e5de2000 	ldrb	r2, [lr]
    856c:	e5dc0000 	ldrb	r0, [ip]
    8570:	e5d43000 	ldrb	r3, [r4]
    8574:	e35000ff 	cmp	r0, #255	; 0xff
    8578:	e0833002 	add	r3, r3, r2
    857c:	e5c43000 	strb	r3, [r4]
    8580:	03a03000 	moveq	r3, #0	; 0x0
    8584:	05cc3000 	streqb	r3, [ip]
    8588:	e59f7314 	ldr	r7, [pc, #788]	; 88a4 <.text+0x8a4>
    858c:	e5d71000 	ldrb	r1, [r7]
    8590:	01a00003 	moveq	r0, r3
    8594:	e0813002 	add	r3, r1, r2
    8598:	e2802001 	add	r2, r0, #1	; 0x1
    859c:	e5ce3000 	strb	r3, [lr]
    85a0:	e5cc2000 	strb	r2, [ip]
    85a4:	e7c61000 	strb	r1, [r6, r0]
    85a8:	e5de2000 	ldrb	r2, [lr]
    85ac:	e5dc0000 	ldrb	r0, [ip]
    85b0:	e5d43000 	ldrb	r3, [r4]
    85b4:	e35000ff 	cmp	r0, #255	; 0xff
    85b8:	e0833002 	add	r3, r3, r2
    85bc:	e5c43000 	strb	r3, [r4]
    85c0:	03a03000 	moveq	r3, #0	; 0x0
    85c4:	05cc3000 	streqb	r3, [ip]
    85c8:	e5d71001 	ldrb	r1, [r7, #1]
    85cc:	01a00003 	moveq	r0, r3
    85d0:	e0813002 	add	r3, r1, r2
    85d4:	e2802001 	add	r2, r0, #1	; 0x1
    85d8:	e5cc2000 	strb	r2, [ip]
    85dc:	e5ce3000 	strb	r3, [lr]
    85e0:	e7c61000 	strb	r1, [r6, r0]
    85e4:	e5d43000 	ldrb	r3, [r4]
    85e8:	e5dc0000 	ldrb	r0, [ip]
    85ec:	e5de1000 	ldrb	r1, [lr]
    85f0:	e35000ff 	cmp	r0, #255	; 0xff
    85f4:	e0833001 	add	r3, r3, r1
    85f8:	e5c43000 	strb	r3, [r4]
    85fc:	03a03000 	moveq	r3, #0	; 0x0
    8600:	01a00003 	moveq	r0, r3
    8604:	05cc3000 	streqb	r3, [ip]
    8608:	e2803001 	add	r3, r0, #1	; 0x1
    860c:	e5cc3000 	strb	r3, [ip]
    8610:	e7c61000 	strb	r1, [r6, r0]
    8614:	e5dc0000 	ldrb	r0, [ip]
    8618:	e35000ff 	cmp	r0, #255	; 0xff
    861c:	03a03000 	moveq	r3, #0	; 0x0
    8620:	01a00003 	moveq	r0, r3
    8624:	05cc3000 	streqb	r3, [ip]
    8628:	e2803001 	add	r3, r0, #1	; 0x1
    862c:	e5cc3000 	strb	r3, [ip]
    8630:	e5dc2000 	ldrb	r2, [ip]
    8634:	e5d43000 	ldrb	r3, [r4]
    8638:	e35200ff 	cmp	r2, #255	; 0xff
    863c:	e7c63000 	strb	r3, [r6, r0]
    8640:	03a03000 	moveq	r3, #0	; 0x0
    8644:	05cc3000 	streqb	r3, [ip]
    8648:	e3a0c059 	mov	ip, #89	; 0x59
    864c:	e5dc3000 	ldrb	r3, [ip]
    8650:	e1a03223 	mov	r3, r3, lsr #4
    8654:	e213e001 	ands	lr, r3, #1	; 0x1
    8658:	1a000012 	bne	86a8 <ground_calibrate+0x67c>
    865c:	e5da0000 	ldrb	r0, [sl]
    8660:	e5da3000 	ldrb	r3, [sl]
    8664:	e2833001 	add	r3, r3, #1	; 0x1
    8668:	e5ca3000 	strb	r3, [sl]
    866c:	e5da2000 	ldrb	r2, [sl]
    8670:	e7d61000 	ldrb	r1, [r6, r0]
    8674:	e35200ff 	cmp	r2, #255	; 0xff
    8678:	e59f3228 	ldr	r3, [pc, #552]	; 88a8 <.text+0x8a8>
    867c:	e59f2228 	ldr	r2, [pc, #552]	; 88ac <.text+0x8ac>
    8680:	e5c31000 	strb	r1, [r3]
    8684:	e5c2e000 	strb	lr, [r2]
    8688:	05cae000 	streqb	lr, [sl]
    868c:	e3a03058 	mov	r3, #88	; 0x58
    8690:	e5d32000 	ldrb	r2, [r3]
    8694:	e3822001 	orr	r2, r2, #1	; 0x1
    8698:	e5c32000 	strb	r2, [r3]
    869c:	e5dc1000 	ldrb	r1, [ip]
    86a0:	e3811010 	orr	r1, r1, #16	; 0x10
    86a4:	e5cc1000 	strb	r1, [ip]
    86a8:	e5da2000 	ldrb	r2, [sl]
    86ac:	e5d81000 	ldrb	r1, [r8]
    86b0:	e1510002 	cmp	r1, r2
    86b4:	e3a03002 	mov	r3, #2	; 0x2
    86b8:	359f21b4 	ldrcc	r2, [pc, #436]	; 8874 <.text+0x874>
    86bc:	e5c53000 	strb	r3, [r5]
    86c0:	25da3000 	ldrcsb	r3, [sl]
    86c4:	35d23000 	ldrccb	r3, [r2]
    86c8:	20633001 	rsbcs	r3, r3, r1
    86cc:	226330ff 	rsbcs	r3, r3, #255	; 0xff
    86d0:	30613003 	rsbcc	r3, r1, r3
    86d4:	e3530006 	cmp	r3, #6	; 0x6
    86d8:	da00005d 	ble	8854 <ground_calibrate+0x828>
    86dc:	e5d83000 	ldrb	r3, [r8]
    86e0:	e2832001 	add	r2, r3, #1	; 0x1
    86e4:	e5c82000 	strb	r2, [r8]
    86e8:	e5d80000 	ldrb	r0, [r8]
    86ec:	e59f5188 	ldr	r5, [pc, #392]	; 887c <.text+0x87c>
    86f0:	e35000ff 	cmp	r0, #255	; 0xff
    86f4:	e3a02005 	mov	r2, #5	; 0x5
    86f8:	e7c52003 	strb	r2, [r5, r3]
    86fc:	03a03000 	moveq	r3, #0	; 0x0
    8700:	e59fc170 	ldr	ip, [pc, #368]	; 8878 <.text+0x878>
    8704:	01a00003 	moveq	r0, r3
    8708:	05c83000 	streqb	r3, [r8]
    870c:	e2803001 	add	r3, r0, #1	; 0x1
    8710:	e5cc3000 	strb	r3, [ip]
    8714:	e3a02003 	mov	r2, #3	; 0x3
    8718:	e7c52000 	strb	r2, [r5, r0]
    871c:	e5dc0000 	ldrb	r0, [ip]
    8720:	e35000ff 	cmp	r0, #255	; 0xff
    8724:	03a03000 	moveq	r3, #0	; 0x0
    8728:	05cc3000 	streqb	r3, [ip]
    872c:	e59f717c 	ldr	r7, [pc, #380]	; 88b0 <.text+0x8b0>
    8730:	e5d71000 	ldrb	r1, [r7]
    8734:	01a00003 	moveq	r0, r3
    8738:	e59f4140 	ldr	r4, [pc, #320]	; 8880 <.text+0x880>
    873c:	e2802001 	add	r2, r0, #1	; 0x1
    8740:	e2813003 	add	r3, r1, #3	; 0x3
    8744:	e5cc2000 	strb	r2, [ip]
    8748:	e5c43000 	strb	r3, [r4]
    874c:	e7c51000 	strb	r1, [r5, r0]
    8750:	e5d4e000 	ldrb	lr, [r4]
    8754:	e5dc0000 	ldrb	r0, [ip]
    8758:	e59f6124 	ldr	r6, [pc, #292]	; 8884 <.text+0x884>
    875c:	e28e3003 	add	r3, lr, #3	; 0x3
    8760:	e35000ff 	cmp	r0, #255	; 0xff
    8764:	e5c63000 	strb	r3, [r6]
    8768:	03a03000 	moveq	r3, #0	; 0x0
    876c:	05cc3000 	streqb	r3, [ip]
    8770:	e5d71001 	ldrb	r1, [r7, #1]
    8774:	01a00003 	moveq	r0, r3
    8778:	e2802001 	add	r2, r0, #1	; 0x1
    877c:	e081300e 	add	r3, r1, lr
    8780:	e5cc2000 	strb	r2, [ip]
    8784:	e5c43000 	strb	r3, [r4]
    8788:	e7c51000 	strb	r1, [r5, r0]
    878c:	e5d63000 	ldrb	r3, [r6]
    8790:	e5dc0000 	ldrb	r0, [ip]
    8794:	e5d41000 	ldrb	r1, [r4]
    8798:	e35000ff 	cmp	r0, #255	; 0xff
    879c:	e0833001 	add	r3, r3, r1
    87a0:	e5c63000 	strb	r3, [r6]
    87a4:	03a03000 	moveq	r3, #0	; 0x0
    87a8:	01a00003 	moveq	r0, r3
    87ac:	05cc3000 	streqb	r3, [ip]
    87b0:	e2803001 	add	r3, r0, #1	; 0x1
    87b4:	e5cc3000 	strb	r3, [ip]
    87b8:	e7c51000 	strb	r1, [r5, r0]
    87bc:	e5dc0000 	ldrb	r0, [ip]
    87c0:	e35000ff 	cmp	r0, #255	; 0xff
    87c4:	03a03000 	moveq	r3, #0	; 0x0
    87c8:	01a00003 	moveq	r0, r3
    87cc:	05cc3000 	streqb	r3, [ip]
    87d0:	e2803001 	add	r3, r0, #1	; 0x1
    87d4:	e5cc3000 	strb	r3, [ip]
    87d8:	e5dc2000 	ldrb	r2, [ip]
    87dc:	e5d63000 	ldrb	r3, [r6]
    87e0:	e35200ff 	cmp	r2, #255	; 0xff
    87e4:	e7c53000 	strb	r3, [r5, r0]
    87e8:	03a03000 	moveq	r3, #0	; 0x0
    87ec:	05cc3000 	streqb	r3, [ip]
    87f0:	e3a0c059 	mov	ip, #89	; 0x59
    87f4:	e5dc3000 	ldrb	r3, [ip]
    87f8:	e1a03223 	mov	r3, r3, lsr #4
    87fc:	e213e001 	ands	lr, r3, #1	; 0x1
    8800:	189daff0 	ldmneia	sp, {r4, r5, r6, r7, r8, r9, sl, fp, sp, pc}
    8804:	e5da0000 	ldrb	r0, [sl]
    8808:	e5da3000 	ldrb	r3, [sl]
    880c:	e2833001 	add	r3, r3, #1	; 0x1
    8810:	e5ca3000 	strb	r3, [sl]
    8814:	e7d51000 	ldrb	r1, [r5, r0]
    8818:	e5da2000 	ldrb	r2, [sl]
    881c:	e35200ff 	cmp	r2, #255	; 0xff
    8820:	e59f3080 	ldr	r3, [pc, #128]	; 88a8 <.text+0x8a8>
    8824:	e59f2080 	ldr	r2, [pc, #128]	; 88ac <.text+0x8ac>
    8828:	e5c31000 	strb	r1, [r3]
    882c:	e5c2e000 	strb	lr, [r2]
    8830:	05cae000 	streqb	lr, [sl]
    8834:	e3a03058 	mov	r3, #88	; 0x58
    8838:	e5d32000 	ldrb	r2, [r3]
    883c:	e3822001 	orr	r2, r2, #1	; 0x1
    8840:	e5c32000 	strb	r2, [r3]
    8844:	e5dc1000 	ldrb	r1, [ip]
    8848:	e3811010 	orr	r1, r1, #16	; 0x10
    884c:	e5cc1000 	strb	r1, [ip]
    8850:	e89daff0 	ldmia	sp, {r4, r5, r6, r7, r8, r9, sl, fp, sp, pc}
    8854:	e59f2034 	ldr	r2, [pc, #52]	; 8890 <.text+0x890>
    8858:	e5d23000 	ldrb	r3, [r2]
    885c:	e2833001 	add	r3, r3, #1	; 0x1
    8860:	e5c23000 	strb	r3, [r2]
    8864:	e89daff0 	ldmia	sp, {r4, r5, r6, r7, r8, r9, sl, fp, sp, pc}
    8868:	000135ab 	andeq	r3, r1, fp, lsr #11
    886c:	000135a6 	andeq	r3, r1, r6, lsr #11
    8870:	000135a4 	andeq	r3, r1, r4, lsr #11
    8874:	000139f6 	streqd	r3, [r1], -r6
    8878:	000139f5 	streqd	r3, [r1], -r5
    887c:	000139f8 	streqd	r3, [r1], -r8
    8880:	00013af7 	streqd	r3, [r1], -r7
    8884:	000139f2 	streqd	r3, [r1], -r2
    8888:	00013b10 	andeq	r3, r1, r0, lsl fp
    888c:	00013504 	andeq	r3, r1, r4, lsl #10
    8890:	000139f3 	streqd	r3, [r1], -r3
    8894:	00013bbc 	streqh	r3, [r1], -ip
    8898:	00013bc4 	andeq	r3, r1, r4, asr #23
    889c:	00013bdc 	ldreqd	r3, [r1], -ip
    88a0:	0001350a 	andeq	r3, r1, sl, lsl #10
    88a4:	00013508 	andeq	r3, r1, r8, lsl #10
    88a8:	000139f4 	streqd	r3, [r1], -r4
    88ac:	000139f7 	streqd	r3, [r1], -r7
    88b0:	0001350c 	andeq	r3, r1, ip, lsl #10

000088b4 <pprz_mode_update>:
    88b4:	e59f105c 	ldr	r1, [pc, #92]	; 8918 <.text+0x918>
    88b8:	e5d13000 	ldrb	r3, [r1]
    88bc:	e3530003 	cmp	r3, #3	; 0x3
    88c0:	0a00000d 	beq	88fc <pprz_mode_update+0x48>
    88c4:	e59f3050 	ldr	r3, [pc, #80]	; 891c <.text+0x91c>
    88c8:	e1d330f8 	ldrsh	r3, [r3, #8]
    88cc:	e3530d32 	cmp	r3, #3200	; 0xc80
    88d0:	c3a02002 	movgt	r2, #2	; 0x2
    88d4:	ca000002 	bgt	88e4 <pprz_mode_update+0x30>
    88d8:	e3730d4b 	cmn	r3, #4800	; 0x12c0
    88dc:	d3a02000 	movle	r2, #0	; 0x0
    88e0:	c3a02001 	movgt	r2, #1	; 0x1
    88e4:	e5d13000 	ldrb	r3, [r1]
    88e8:	e1530002 	cmp	r3, r2
    88ec:	13a00001 	movne	r0, #1	; 0x1
    88f0:	03a00000 	moveq	r0, #0	; 0x0
    88f4:	15c12000 	strneb	r2, [r1]
    88f8:	e1a0f00e 	mov	pc, lr
    88fc:	e59f201c 	ldr	r2, [pc, #28]	; 8920 <.text+0x920>
    8900:	e5d20000 	ldrb	r0, [r2]
    8904:	e3500000 	cmp	r0, #0	; 0x0
    8908:	01a0f00e 	moveq	pc, lr
    890c:	e2433003 	sub	r3, r3, #3	; 0x3
    8910:	e5c23000 	strb	r3, [r2]
    8914:	eaffffea 	b	88c4 <pprz_mode_update+0x10>
    8918:	000135a4 	andeq	r3, r1, r4, lsr #11
    891c:	00013b10 	andeq	r3, r1, r0, lsl fp
    8920:	000139e4 	andeq	r3, r1, r4, ror #19

00008924 <ir_estim_mode_update>:
    8924:	e59f3028 	ldr	r3, [pc, #40]	; 8954 <.text+0x954>
    8928:	e59fc028 	ldr	ip, [pc, #40]	; 8958 <.text+0x958>
    892c:	e1d320fe 	ldrsh	r2, [r3, #14]
    8930:	e5dc1000 	ldrb	r1, [ip]
    8934:	e3520d32 	cmp	r2, #3200	; 0xc80
    8938:	b3a02000 	movlt	r2, #0	; 0x0
    893c:	a3a02001 	movge	r2, #1	; 0x1
    8940:	e1510002 	cmp	r1, r2
    8944:	e3a00001 	mov	r0, #1	; 0x1
    8948:	03a00000 	moveq	r0, #0	; 0x0
    894c:	15cc2000 	strneb	r2, [ip]
    8950:	e1a0f00e 	mov	pc, lr
    8954:	00013b10 	andeq	r3, r1, r0, lsl fp
    8958:	00013500 	andeq	r3, r1, r0, lsl #10

0000895c <mcu1_status_update>:
    895c:	e59f3030 	ldr	r3, [pc, #48]	; 8994 <.text+0x994>
    8960:	e59fc030 	ldr	ip, [pc, #48]	; 8998 <.text+0x998>
    8964:	e5d32013 	ldrb	r2, [r3, #19]
    8968:	e5dc1000 	ldrb	r1, [ip]
    896c:	e2023003 	and	r3, r2, #3	; 0x3
    8970:	e20220ff 	and	r2, r2, #255	; 0xff
    8974:	e1510002 	cmp	r1, r2
    8978:	e2010003 	and	r0, r1, #3	; 0x3
    897c:	03a00000 	moveq	r0, #0	; 0x0
    8980:	01a0f00e 	moveq	pc, lr
    8984:	e0500003 	subs	r0, r0, r3
    8988:	13a00001 	movne	r0, #1	; 0x1
    898c:	e5cc2000 	strb	r2, [ip]
    8990:	e1a0f00e 	mov	pc, lr
    8994:	00013b10 	andeq	r3, r1, r0, lsl fp
    8998:	000135b4 	streqh	r3, [r1], -r4

0000899c <copy_from_to_fbw>:
    899c:	e59f1014 	ldr	r1, [pc, #20]	; 89b8 <.text+0x9b8>
    89a0:	e59f3014 	ldr	r3, [pc, #20]	; 89bc <.text+0x9bc>
    89a4:	e1d110b6 	ldrh	r1, [r1, #6]
    89a8:	e3a02000 	mov	r2, #0	; 0x0
    89ac:	e5c32013 	strb	r2, [r3, #19]
    89b0:	e1c310b6 	strh	r1, [r3, #6]
    89b4:	e1a0f00e 	mov	pc, lr
    89b8:	00013b10 	andeq	r3, r1, r0, lsl fp
    89bc:	00013af8 	streqd	r3, [r1], -r8

000089c0 <send_boot>:
    89c0:	e92d47f0 	stmdb	sp!, {r4, r5, r6, r7, r8, r9, sl, lr}
    89c4:	e59f96d0 	ldr	r9, [pc, #1744]	; 909c <.text+0x109c>
    89c8:	e5d93000 	ldrb	r3, [r9]
    89cc:	e3530000 	cmp	r3, #0	; 0x0
    89d0:	08bd87f0 	ldmeqia	sp!, {r4, r5, r6, r7, r8, r9, sl, pc}
    89d4:	e59fa6c4 	ldr	sl, [pc, #1732]	; 90a0 <.text+0x10a0>
    89d8:	e59f76c4 	ldr	r7, [pc, #1732]	; 90a4 <.text+0x10a4>
    89dc:	e5da3000 	ldrb	r3, [sl]
    89e0:	e5d72000 	ldrb	r2, [r7]
    89e4:	e1520003 	cmp	r2, r3
    89e8:	25da3000 	ldrcsb	r3, [sl]
    89ec:	35da3000 	ldrccb	r3, [sl]
    89f0:	20633002 	rsbcs	r3, r3, r2
    89f4:	30623003 	rsbcc	r3, r2, r3
    89f8:	226330ff 	rsbcs	r3, r3, #255	; 0xff
    89fc:	e3530006 	cmp	r3, #6	; 0x6
    8a00:	d59f26a0 	ldrle	r2, [pc, #1696]	; 90a8 <.text+0x10a8>
    8a04:	d5d23000 	ldrleb	r3, [r2]
    8a08:	d2833001 	addle	r3, r3, #1	; 0x1
    8a0c:	d5c23000 	strleb	r3, [r2]
    8a10:	ca000143 	bgt	8f24 <send_boot+0x564>
    8a14:	e5da3000 	ldrb	r3, [sl]
    8a18:	e5d71000 	ldrb	r1, [r7]
    8a1c:	e1510003 	cmp	r1, r3
    8a20:	359f2678 	ldrcc	r2, [pc, #1656]	; 90a0 <.text+0x10a0>
    8a24:	25da3000 	ldrcsb	r3, [sl]
    8a28:	35d23000 	ldrccb	r3, [r2]
    8a2c:	20633001 	rsbcs	r3, r3, r1
    8a30:	226330ff 	rsbcs	r3, r3, #255	; 0xff
    8a34:	30613003 	rsbcc	r3, r1, r3
    8a38:	e3530014 	cmp	r3, #20	; 0x14
    8a3c:	d59f2664 	ldrle	r2, [pc, #1636]	; 90a8 <.text+0x10a8>
    8a40:	d5d23000 	ldrleb	r3, [r2]
    8a44:	d2833001 	addle	r3, r3, #1	; 0x1
    8a48:	d5c23000 	strleb	r3, [r2]
    8a4c:	da000131 	ble	8f18 <send_boot+0x558>
    8a50:	e5d72000 	ldrb	r2, [r7]
    8a54:	e2823001 	add	r3, r2, #1	; 0x1
    8a58:	e5c73000 	strb	r3, [r7]
    8a5c:	e5d70000 	ldrb	r0, [r7]
    8a60:	e35000ff 	cmp	r0, #255	; 0xff
    8a64:	03a03000 	moveq	r3, #0	; 0x0
    8a68:	e59fc634 	ldr	ip, [pc, #1588]	; 90a4 <.text+0x10a4>
    8a6c:	01a00003 	moveq	r0, r3
    8a70:	05c73000 	streqb	r3, [r7]
    8a74:	e2803001 	add	r3, r0, #1	; 0x1
    8a78:	e59f562c 	ldr	r5, [pc, #1580]	; 90ac <.text+0x10ac>
    8a7c:	e5cc3000 	strb	r3, [ip]
    8a80:	e3a01005 	mov	r1, #5	; 0x5
    8a84:	e7c51002 	strb	r1, [r5, r2]
    8a88:	e7c51000 	strb	r1, [r5, r0]
    8a8c:	e5dc0000 	ldrb	r0, [ip]
    8a90:	e35000ff 	cmp	r0, #255	; 0xff
    8a94:	03a03000 	moveq	r3, #0	; 0x0
    8a98:	05cc3000 	streqb	r3, [ip]
    8a9c:	e59f660c 	ldr	r6, [pc, #1548]	; 90b0 <.text+0x10b0>
    8aa0:	e5d61000 	ldrb	r1, [r6]
    8aa4:	e59fe608 	ldr	lr, [pc, #1544]	; 90b4 <.text+0x10b4>
    8aa8:	01a00003 	moveq	r0, r3
    8aac:	e2802001 	add	r2, r0, #1	; 0x1
    8ab0:	e2813005 	add	r3, r1, #5	; 0x5
    8ab4:	e5cc2000 	strb	r2, [ip]
    8ab8:	e5ce3000 	strb	r3, [lr]
    8abc:	e7c51000 	strb	r1, [r5, r0]
    8ac0:	e5de2000 	ldrb	r2, [lr]
    8ac4:	e5dc0000 	ldrb	r0, [ip]
    8ac8:	e59f45e8 	ldr	r4, [pc, #1512]	; 90b8 <.text+0x10b8>
    8acc:	e2823005 	add	r3, r2, #5	; 0x5
    8ad0:	e35000ff 	cmp	r0, #255	; 0xff
    8ad4:	e5c43000 	strb	r3, [r4]
    8ad8:	03a03000 	moveq	r3, #0	; 0x0
    8adc:	05cc3000 	streqb	r3, [ip]
    8ae0:	e5d61001 	ldrb	r1, [r6, #1]
    8ae4:	01a00003 	moveq	r0, r3
    8ae8:	e0813002 	add	r3, r1, r2
    8aec:	e2802001 	add	r2, r0, #1	; 0x1
    8af0:	e5cc2000 	strb	r2, [ip]
    8af4:	e5ce3000 	strb	r3, [lr]
    8af8:	e7c51000 	strb	r1, [r5, r0]
    8afc:	e5de2000 	ldrb	r2, [lr]
    8b00:	e5dc0000 	ldrb	r0, [ip]
    8b04:	e5d43000 	ldrb	r3, [r4]
    8b08:	e35000ff 	cmp	r0, #255	; 0xff
    8b0c:	e0833002 	add	r3, r3, r2
    8b10:	e5c43000 	strb	r3, [r4]
    8b14:	03a03000 	moveq	r3, #0	; 0x0
    8b18:	05cc3000 	streqb	r3, [ip]
    8b1c:	e5d61002 	ldrb	r1, [r6, #2]
    8b20:	01a00003 	moveq	r0, r3
    8b24:	e0813002 	add	r3, r1, r2
    8b28:	e2802001 	add	r2, r0, #1	; 0x1
    8b2c:	e5ce3000 	strb	r3, [lr]
    8b30:	e5cc2000 	strb	r2, [ip]
    8b34:	e7c51000 	strb	r1, [r5, r0]
    8b38:	e5de2000 	ldrb	r2, [lr]
    8b3c:	e5dc0000 	ldrb	r0, [ip]
    8b40:	e5d43000 	ldrb	r3, [r4]
    8b44:	e35000ff 	cmp	r0, #255	; 0xff
    8b48:	e0833002 	add	r3, r3, r2
    8b4c:	e5c43000 	strb	r3, [r4]
    8b50:	03a03000 	moveq	r3, #0	; 0x0
    8b54:	05cc3000 	streqb	r3, [ip]
    8b58:	e5d61003 	ldrb	r1, [r6, #3]
    8b5c:	01a00003 	moveq	r0, r3
    8b60:	e0813002 	add	r3, r1, r2
    8b64:	e2802001 	add	r2, r0, #1	; 0x1
    8b68:	e5cc2000 	strb	r2, [ip]
    8b6c:	e5ce3000 	strb	r3, [lr]
    8b70:	e7c51000 	strb	r1, [r5, r0]
    8b74:	e5de2000 	ldrb	r2, [lr]
    8b78:	e5dc0000 	ldrb	r0, [ip]
    8b7c:	e5d43000 	ldrb	r3, [r4]
    8b80:	e35000ff 	cmp	r0, #255	; 0xff
    8b84:	e0833002 	add	r3, r3, r2
    8b88:	e5c43000 	strb	r3, [r4]
    8b8c:	03a03000 	moveq	r3, #0	; 0x0
    8b90:	05cc3000 	streqb	r3, [ip]
    8b94:	e59f6520 	ldr	r6, [pc, #1312]	; 90bc <.text+0x10bc>
    8b98:	e5d61000 	ldrb	r1, [r6]
    8b9c:	01a00003 	moveq	r0, r3
    8ba0:	e0813002 	add	r3, r1, r2
    8ba4:	e2802001 	add	r2, r0, #1	; 0x1
    8ba8:	e5cc2000 	strb	r2, [ip]
    8bac:	e5ce3000 	strb	r3, [lr]
    8bb0:	e7c51000 	strb	r1, [r5, r0]
    8bb4:	e5de2000 	ldrb	r2, [lr]
    8bb8:	e5dc0000 	ldrb	r0, [ip]
    8bbc:	e5d43000 	ldrb	r3, [r4]
    8bc0:	e35000ff 	cmp	r0, #255	; 0xff
    8bc4:	e0833002 	add	r3, r3, r2
    8bc8:	e5c43000 	strb	r3, [r4]
    8bcc:	03a03000 	moveq	r3, #0	; 0x0
    8bd0:	05cc3000 	streqb	r3, [ip]
    8bd4:	e5d61001 	ldrb	r1, [r6, #1]
    8bd8:	01a00003 	moveq	r0, r3
    8bdc:	e0813002 	add	r3, r1, r2
    8be0:	e2802001 	add	r2, r0, #1	; 0x1
    8be4:	e5cc2000 	strb	r2, [ip]
    8be8:	e5ce3000 	strb	r3, [lr]
    8bec:	e7c51000 	strb	r1, [r5, r0]
    8bf0:	e5de2000 	ldrb	r2, [lr]
    8bf4:	e5dc0000 	ldrb	r0, [ip]
    8bf8:	e5d43000 	ldrb	r3, [r4]
    8bfc:	e35000ff 	cmp	r0, #255	; 0xff
    8c00:	e0833002 	add	r3, r3, r2
    8c04:	e5c43000 	strb	r3, [r4]
    8c08:	03a03000 	moveq	r3, #0	; 0x0
    8c0c:	05cc3000 	streqb	r3, [ip]
    8c10:	e5d61002 	ldrb	r1, [r6, #2]
    8c14:	01a00003 	moveq	r0, r3
    8c18:	e0813002 	add	r3, r1, r2
    8c1c:	e2802001 	add	r2, r0, #1	; 0x1
    8c20:	e5ce3000 	strb	r3, [lr]
    8c24:	e5cc2000 	strb	r2, [ip]
    8c28:	e7c51000 	strb	r1, [r5, r0]
    8c2c:	e5de2000 	ldrb	r2, [lr]
    8c30:	e5dc0000 	ldrb	r0, [ip]
    8c34:	e5d43000 	ldrb	r3, [r4]
    8c38:	e35000ff 	cmp	r0, #255	; 0xff
    8c3c:	e0833002 	add	r3, r3, r2
    8c40:	e5c43000 	strb	r3, [r4]
    8c44:	03a03000 	moveq	r3, #0	; 0x0
    8c48:	05cc3000 	streqb	r3, [ip]
    8c4c:	e5d61003 	ldrb	r1, [r6, #3]
    8c50:	01a00003 	moveq	r0, r3
    8c54:	e0813002 	add	r3, r1, r2
    8c58:	e2802001 	add	r2, r0, #1	; 0x1
    8c5c:	e5cc2000 	strb	r2, [ip]
    8c60:	e5ce3000 	strb	r3, [lr]
    8c64:	e7c51000 	strb	r1, [r5, r0]
    8c68:	e5de2000 	ldrb	r2, [lr]
    8c6c:	e5dc0000 	ldrb	r0, [ip]
    8c70:	e5d43000 	ldrb	r3, [r4]
    8c74:	e35000ff 	cmp	r0, #255	; 0xff
    8c78:	e0833002 	add	r3, r3, r2
    8c7c:	e5c43000 	strb	r3, [r4]
    8c80:	03a03000 	moveq	r3, #0	; 0x0
    8c84:	05cc3000 	streqb	r3, [ip]
    8c88:	e59f6430 	ldr	r6, [pc, #1072]	; 90c0 <.text+0x10c0>
    8c8c:	e5d61000 	ldrb	r1, [r6]
    8c90:	01a00003 	moveq	r0, r3
    8c94:	e0813002 	add	r3, r1, r2
    8c98:	e2802001 	add	r2, r0, #1	; 0x1
    8c9c:	e5cc2000 	strb	r2, [ip]
    8ca0:	e5ce3000 	strb	r3, [lr]
    8ca4:	e7c51000 	strb	r1, [r5, r0]
    8ca8:	e5de2000 	ldrb	r2, [lr]
    8cac:	e5dc0000 	ldrb	r0, [ip]
    8cb0:	e5d43000 	ldrb	r3, [r4]
    8cb4:	e35000ff 	cmp	r0, #255	; 0xff
    8cb8:	e0833002 	add	r3, r3, r2
    8cbc:	e5c43000 	strb	r3, [r4]
    8cc0:	03a03000 	moveq	r3, #0	; 0x0
    8cc4:	05cc3000 	streqb	r3, [ip]
    8cc8:	e5d61001 	ldrb	r1, [r6, #1]
    8ccc:	01a00003 	moveq	r0, r3
    8cd0:	e0813002 	add	r3, r1, r2
    8cd4:	e2802001 	add	r2, r0, #1	; 0x1
    8cd8:	e5cc2000 	strb	r2, [ip]
    8cdc:	e5ce3000 	strb	r3, [lr]
    8ce0:	e7c51000 	strb	r1, [r5, r0]
    8ce4:	e5de2000 	ldrb	r2, [lr]
    8ce8:	e5dc0000 	ldrb	r0, [ip]
    8cec:	e5d43000 	ldrb	r3, [r4]
    8cf0:	e35000ff 	cmp	r0, #255	; 0xff
    8cf4:	e0833002 	add	r3, r3, r2
    8cf8:	e5c43000 	strb	r3, [r4]
    8cfc:	03a03000 	moveq	r3, #0	; 0x0
    8d00:	05cc3000 	streqb	r3, [ip]
    8d04:	e5d61002 	ldrb	r1, [r6, #2]
    8d08:	01a00003 	moveq	r0, r3
    8d0c:	e0813002 	add	r3, r1, r2
    8d10:	e2802001 	add	r2, r0, #1	; 0x1
    8d14:	e5ce3000 	strb	r3, [lr]
    8d18:	e5cc2000 	strb	r2, [ip]
    8d1c:	e7c51000 	strb	r1, [r5, r0]
    8d20:	e5de2000 	ldrb	r2, [lr]
    8d24:	e5dc0000 	ldrb	r0, [ip]
    8d28:	e5d43000 	ldrb	r3, [r4]
    8d2c:	e35000ff 	cmp	r0, #255	; 0xff
    8d30:	e0833002 	add	r3, r3, r2
    8d34:	e5c43000 	strb	r3, [r4]
    8d38:	03a03000 	moveq	r3, #0	; 0x0
    8d3c:	05cc3000 	streqb	r3, [ip]
    8d40:	e5d61003 	ldrb	r1, [r6, #3]
    8d44:	01a00003 	moveq	r0, r3
    8d48:	e0813002 	add	r3, r1, r2
    8d4c:	e2802001 	add	r2, r0, #1	; 0x1
    8d50:	e5cc2000 	strb	r2, [ip]
    8d54:	e5ce3000 	strb	r3, [lr]
    8d58:	e7c51000 	strb	r1, [r5, r0]
    8d5c:	e5de2000 	ldrb	r2, [lr]
    8d60:	e5dc0000 	ldrb	r0, [ip]
    8d64:	e5d43000 	ldrb	r3, [r4]
    8d68:	e35000ff 	cmp	r0, #255	; 0xff
    8d6c:	e0833002 	add	r3, r3, r2
    8d70:	e5c43000 	strb	r3, [r4]
    8d74:	03a03000 	moveq	r3, #0	; 0x0
    8d78:	05cc3000 	streqb	r3, [ip]
    8d7c:	e59f6340 	ldr	r6, [pc, #832]	; 90c4 <.text+0x10c4>
    8d80:	e5d61000 	ldrb	r1, [r6]
    8d84:	01a00003 	moveq	r0, r3
    8d88:	e0813002 	add	r3, r1, r2
    8d8c:	e2802001 	add	r2, r0, #1	; 0x1
    8d90:	e5cc2000 	strb	r2, [ip]
    8d94:	e5ce3000 	strb	r3, [lr]
    8d98:	e7c51000 	strb	r1, [r5, r0]
    8d9c:	e5de2000 	ldrb	r2, [lr]
    8da0:	e5dc0000 	ldrb	r0, [ip]
    8da4:	e5d43000 	ldrb	r3, [r4]
    8da8:	e35000ff 	cmp	r0, #255	; 0xff
    8dac:	e0833002 	add	r3, r3, r2
    8db0:	e5c43000 	strb	r3, [r4]
    8db4:	03a03000 	moveq	r3, #0	; 0x0
    8db8:	05cc3000 	streqb	r3, [ip]
    8dbc:	e5d61001 	ldrb	r1, [r6, #1]
    8dc0:	01a00003 	moveq	r0, r3
    8dc4:	e0813002 	add	r3, r1, r2
    8dc8:	e2802001 	add	r2, r0, #1	; 0x1
    8dcc:	e5cc2000 	strb	r2, [ip]
    8dd0:	e5ce3000 	strb	r3, [lr]
    8dd4:	e7c51000 	strb	r1, [r5, r0]
    8dd8:	e5de2000 	ldrb	r2, [lr]
    8ddc:	e5dc0000 	ldrb	r0, [ip]
    8de0:	e5d43000 	ldrb	r3, [r4]
    8de4:	e35000ff 	cmp	r0, #255	; 0xff
    8de8:	e0833002 	add	r3, r3, r2
    8dec:	e5c43000 	strb	r3, [r4]
    8df0:	03a03000 	moveq	r3, #0	; 0x0
    8df4:	05cc3000 	streqb	r3, [ip]
    8df8:	e59f62c8 	ldr	r6, [pc, #712]	; 90c8 <.text+0x10c8>
    8dfc:	e5d61000 	ldrb	r1, [r6]
    8e00:	01a00003 	moveq	r0, r3
    8e04:	e0813002 	add	r3, r1, r2
    8e08:	e2802001 	add	r2, r0, #1	; 0x1
    8e0c:	e5ce3000 	strb	r3, [lr]
    8e10:	e5cc2000 	strb	r2, [ip]
    8e14:	e7c51000 	strb	r1, [r5, r0]
    8e18:	e5de2000 	ldrb	r2, [lr]
    8e1c:	e5dc0000 	ldrb	r0, [ip]
    8e20:	e5d43000 	ldrb	r3, [r4]
    8e24:	e35000ff 	cmp	r0, #255	; 0xff
    8e28:	e0833002 	add	r3, r3, r2
    8e2c:	e5c43000 	strb	r3, [r4]
    8e30:	03a03000 	moveq	r3, #0	; 0x0
    8e34:	05cc3000 	streqb	r3, [ip]
    8e38:	e5d61001 	ldrb	r1, [r6, #1]
    8e3c:	01a00003 	moveq	r0, r3
    8e40:	e0813002 	add	r3, r1, r2
    8e44:	e2802001 	add	r2, r0, #1	; 0x1
    8e48:	e5cc2000 	strb	r2, [ip]
    8e4c:	e5ce3000 	strb	r3, [lr]
    8e50:	e7c51000 	strb	r1, [r5, r0]
    8e54:	e5d43000 	ldrb	r3, [r4]
    8e58:	e5dc0000 	ldrb	r0, [ip]
    8e5c:	e5de1000 	ldrb	r1, [lr]
    8e60:	e35000ff 	cmp	r0, #255	; 0xff
    8e64:	e0833001 	add	r3, r3, r1
    8e68:	e5c43000 	strb	r3, [r4]
    8e6c:	03a03000 	moveq	r3, #0	; 0x0
    8e70:	01a00003 	moveq	r0, r3
    8e74:	05cc3000 	streqb	r3, [ip]
    8e78:	e2803001 	add	r3, r0, #1	; 0x1
    8e7c:	e5cc3000 	strb	r3, [ip]
    8e80:	e7c51000 	strb	r1, [r5, r0]
    8e84:	e5dc0000 	ldrb	r0, [ip]
    8e88:	e35000ff 	cmp	r0, #255	; 0xff
    8e8c:	03a03000 	moveq	r3, #0	; 0x0
    8e90:	01a00003 	moveq	r0, r3
    8e94:	05cc3000 	streqb	r3, [ip]
    8e98:	e2803001 	add	r3, r0, #1	; 0x1
    8e9c:	e5cc3000 	strb	r3, [ip]
    8ea0:	e5dc2000 	ldrb	r2, [ip]
    8ea4:	e5d43000 	ldrb	r3, [r4]
    8ea8:	e35200ff 	cmp	r2, #255	; 0xff
    8eac:	e7c53000 	strb	r3, [r5, r0]
    8eb0:	03a03000 	moveq	r3, #0	; 0x0
    8eb4:	05cc3000 	streqb	r3, [ip]
    8eb8:	e3a0c059 	mov	ip, #89	; 0x59
    8ebc:	e5dc3000 	ldrb	r3, [ip]
    8ec0:	e1a03223 	mov	r3, r3, lsr #4
    8ec4:	e213e001 	ands	lr, r3, #1	; 0x1
    8ec8:	1a000012 	bne	8f18 <send_boot+0x558>
    8ecc:	e5da0000 	ldrb	r0, [sl]
    8ed0:	e5da3000 	ldrb	r3, [sl]
    8ed4:	e2833001 	add	r3, r3, #1	; 0x1
    8ed8:	e5ca3000 	strb	r3, [sl]
    8edc:	e5da2000 	ldrb	r2, [sl]
    8ee0:	e7d51000 	ldrb	r1, [r5, r0]
    8ee4:	e35200ff 	cmp	r2, #255	; 0xff
    8ee8:	e59f31dc 	ldr	r3, [pc, #476]	; 90cc <.text+0x10cc>
    8eec:	e59f21dc 	ldr	r2, [pc, #476]	; 90d0 <.text+0x10d0>
    8ef0:	e5c31000 	strb	r1, [r3]
    8ef4:	e5c2e000 	strb	lr, [r2]
    8ef8:	05cae000 	streqb	lr, [sl]
    8efc:	e3a03058 	mov	r3, #88	; 0x58
    8f00:	e5d32000 	ldrb	r2, [r3]
    8f04:	e3822001 	orr	r2, r2, #1	; 0x1
    8f08:	e5c32000 	strb	r2, [r3]
    8f0c:	e5dc1000 	ldrb	r1, [ip]
    8f10:	e3811010 	orr	r1, r1, #16	; 0x10
    8f14:	e5cc1000 	strb	r1, [ip]
    8f18:	e3a03000 	mov	r3, #0	; 0x0
    8f1c:	e5c93000 	strb	r3, [r9]
    8f20:	e8bd87f0 	ldmia	sp!, {r4, r5, r6, r7, r8, r9, sl, pc}
    8f24:	e5d73000 	ldrb	r3, [r7]
    8f28:	e2832001 	add	r2, r3, #1	; 0x1
    8f2c:	e5c72000 	strb	r2, [r7]
    8f30:	e5d70000 	ldrb	r0, [r7]
    8f34:	e59f5170 	ldr	r5, [pc, #368]	; 90ac <.text+0x10ac>
    8f38:	e35000ff 	cmp	r0, #255	; 0xff
    8f3c:	e3a02005 	mov	r2, #5	; 0x5
    8f40:	e7c52003 	strb	r2, [r5, r3]
    8f44:	03a03000 	moveq	r3, #0	; 0x0
    8f48:	e59fc154 	ldr	ip, [pc, #340]	; 90a4 <.text+0x10a4>
    8f4c:	01a00003 	moveq	r0, r3
    8f50:	05c73000 	streqb	r3, [r7]
    8f54:	e2803001 	add	r3, r0, #1	; 0x1
    8f58:	e5cc3000 	strb	r3, [ip]
    8f5c:	e3a02001 	mov	r2, #1	; 0x1
    8f60:	e7c52000 	strb	r2, [r5, r0]
    8f64:	e5dc0000 	ldrb	r0, [ip]
    8f68:	e35000ff 	cmp	r0, #255	; 0xff
    8f6c:	03a03000 	moveq	r3, #0	; 0x0
    8f70:	05cc3000 	streqb	r3, [ip]
    8f74:	e59f8158 	ldr	r8, [pc, #344]	; 90d4 <.text+0x10d4>
    8f78:	e5d81000 	ldrb	r1, [r8]
    8f7c:	01a00003 	moveq	r0, r3
    8f80:	e59f412c 	ldr	r4, [pc, #300]	; 90b4 <.text+0x10b4>
    8f84:	e2802001 	add	r2, r0, #1	; 0x1
    8f88:	e2813001 	add	r3, r1, #1	; 0x1
    8f8c:	e5cc2000 	strb	r2, [ip]
    8f90:	e5c43000 	strb	r3, [r4]
    8f94:	e7c51000 	strb	r1, [r5, r0]
    8f98:	e5d4e000 	ldrb	lr, [r4]
    8f9c:	e5dc0000 	ldrb	r0, [ip]
    8fa0:	e59f6110 	ldr	r6, [pc, #272]	; 90b8 <.text+0x10b8>
    8fa4:	e28e3001 	add	r3, lr, #1	; 0x1
    8fa8:	e35000ff 	cmp	r0, #255	; 0xff
    8fac:	e5c63000 	strb	r3, [r6]
    8fb0:	03a03000 	moveq	r3, #0	; 0x0
    8fb4:	05cc3000 	streqb	r3, [ip]
    8fb8:	e5d81001 	ldrb	r1, [r8, #1]
    8fbc:	01a00003 	moveq	r0, r3
    8fc0:	e2802001 	add	r2, r0, #1	; 0x1
    8fc4:	e081300e 	add	r3, r1, lr
    8fc8:	e5cc2000 	strb	r2, [ip]
    8fcc:	e5c43000 	strb	r3, [r4]
    8fd0:	e7c51000 	strb	r1, [r5, r0]
    8fd4:	e5d63000 	ldrb	r3, [r6]
    8fd8:	e5dc0000 	ldrb	r0, [ip]
    8fdc:	e5d41000 	ldrb	r1, [r4]
    8fe0:	e35000ff 	cmp	r0, #255	; 0xff
    8fe4:	e0833001 	add	r3, r3, r1
    8fe8:	e5c63000 	strb	r3, [r6]
    8fec:	03a03000 	moveq	r3, #0	; 0x0
    8ff0:	01a00003 	moveq	r0, r3
    8ff4:	05cc3000 	streqb	r3, [ip]
    8ff8:	e2803001 	add	r3, r0, #1	; 0x1
    8ffc:	e5cc3000 	strb	r3, [ip]
    9000:	e7c51000 	strb	r1, [r5, r0]
    9004:	e5dc0000 	ldrb	r0, [ip]
    9008:	e35000ff 	cmp	r0, #255	; 0xff
    900c:	03a03000 	moveq	r3, #0	; 0x0
    9010:	01a00003 	moveq	r0, r3
    9014:	05cc3000 	streqb	r3, [ip]
    9018:	e2803001 	add	r3, r0, #1	; 0x1
    901c:	e5cc3000 	strb	r3, [ip]
    9020:	e5dc2000 	ldrb	r2, [ip]
    9024:	e5d63000 	ldrb	r3, [r6]
    9028:	e35200ff 	cmp	r2, #255	; 0xff
    902c:	e7c53000 	strb	r3, [r5, r0]
    9030:	03a03000 	moveq	r3, #0	; 0x0
    9034:	05cc3000 	streqb	r3, [ip]
    9038:	e3a0c059 	mov	ip, #89	; 0x59
    903c:	e5dc3000 	ldrb	r3, [ip]
    9040:	e1a03223 	mov	r3, r3, lsr #4
    9044:	e213e001 	ands	lr, r3, #1	; 0x1
    9048:	1afffe71 	bne	8a14 <send_boot+0x54>
    904c:	e5da0000 	ldrb	r0, [sl]
    9050:	e5da3000 	ldrb	r3, [sl]
    9054:	e2833001 	add	r3, r3, #1	; 0x1
    9058:	e5ca3000 	strb	r3, [sl]
    905c:	e5da2000 	ldrb	r2, [sl]
    9060:	e7d51000 	ldrb	r1, [r5, r0]
    9064:	e35200ff 	cmp	r2, #255	; 0xff
    9068:	e59f305c 	ldr	r3, [pc, #92]	; 90cc <.text+0x10cc>
    906c:	e59f205c 	ldr	r2, [pc, #92]	; 90d0 <.text+0x10d0>
    9070:	e5c31000 	strb	r1, [r3]
    9074:	e5c2e000 	strb	lr, [r2]
    9078:	05cae000 	streqb	lr, [sl]
    907c:	e3a03058 	mov	r3, #88	; 0x58
    9080:	e5d32000 	ldrb	r2, [r3]
    9084:	e3822001 	orr	r2, r2, #1	; 0x1
    9088:	e5c32000 	strb	r2, [r3]
    908c:	e5dc1000 	ldrb	r1, [ip]
    9090:	e3811010 	orr	r1, r1, #16	; 0x10
    9094:	e5cc1000 	strb	r1, [ip]
    9098:	eafffe5d 	b	8a14 <send_boot+0x54>
    909c:	00013501 	andeq	r3, r1, r1, lsl #10
    90a0:	000139f6 	streqd	r3, [r1], -r6
    90a4:	000139f5 	streqd	r3, [r1], -r5
    90a8:	000139f3 	streqd	r3, [r1], -r3
    90ac:	000139f8 	streqd	r3, [r1], -r8
    90b0:	00013bc4 	andeq	r3, r1, r4, asr #23
    90b4:	00013af7 	streqd	r3, [r1], -r7
    90b8:	000139f2 	streqd	r3, [r1], -r2
    90bc:	00013bdc 	ldreqd	r3, [r1], -ip
    90c0:	00013bbc 	streqh	r3, [r1], -ip
    90c4:	0001350a 	andeq	r3, r1, sl, lsl #10
    90c8:	00013508 	andeq	r3, r1, r8, lsl #10
    90cc:	000139f4 	streqd	r3, [r1], -r4
    90d0:	000139f7 	streqd	r3, [r1], -r7
    90d4:	000133ca 	andeq	r3, r1, sl, asr #7

000090d8 <send_attitude>:
    90d8:	e92d41f0 	stmdb	sp!, {r4, r5, r6, r7, r8, lr}
    90dc:	e59f3460 	ldr	r3, [pc, #1120]	; 9544 <.text+0x1544>
    90e0:	e5d32000 	ldrb	r2, [r3]
    90e4:	e3520000 	cmp	r2, #0	; 0x0
    90e8:	18bd81f0 	ldmneia	sp!, {r4, r5, r6, r7, r8, pc}
    90ec:	e59f0454 	ldr	r0, [pc, #1108]	; 9548 <.text+0x1548>
    90f0:	e5d03000 	ldrb	r3, [r0]
    90f4:	e2833001 	add	r3, r3, #1	; 0x1
    90f8:	e5c03000 	strb	r3, [r0]
    90fc:	e5d01000 	ldrb	r1, [r0]
    9100:	e35100fa 	cmp	r1, #250	; 0xfa
    9104:	05c02000 	streqb	r2, [r0]
    9108:	01a01002 	moveq	r1, r2
    910c:	e59f2438 	ldr	r2, [pc, #1080]	; 954c <.text+0x154c>
    9110:	e20110ff 	and	r1, r1, #255	; 0xff
    9114:	e0830192 	umull	r0, r3, r2, r1
    9118:	e1a03123 	mov	r3, r3, lsr #2
    911c:	e0833103 	add	r3, r3, r3, lsl #2
    9120:	e0631001 	rsb	r1, r3, r1
    9124:	e31100ff 	tst	r1, #255	; 0xff
    9128:	18bd81f0 	ldmneia	sp!, {r4, r5, r6, r7, r8, pc}
    912c:	e59f841c 	ldr	r8, [pc, #1052]	; 9550 <.text+0x1550>
    9130:	e59f141c 	ldr	r1, [pc, #1052]	; 9554 <.text+0x1554>
    9134:	e5d83000 	ldrb	r3, [r8]
    9138:	e5d12000 	ldrb	r2, [r1]
    913c:	e1520003 	cmp	r2, r3
    9140:	25d83000 	ldrcsb	r3, [r8]
    9144:	35d83000 	ldrccb	r3, [r8]
    9148:	20633002 	rsbcs	r3, r3, r2
    914c:	30623003 	rsbcc	r3, r2, r3
    9150:	226330ff 	rsbcs	r3, r3, #255	; 0xff
    9154:	e3530010 	cmp	r3, #16	; 0x10
    9158:	d59f23f8 	ldrle	r2, [pc, #1016]	; 9558 <.text+0x1558>
    915c:	d5d23000 	ldrleb	r3, [r2]
    9160:	d2833001 	addle	r3, r3, #1	; 0x1
    9164:	d5c23000 	strleb	r3, [r2]
    9168:	d8bd81f0 	ldmleia	sp!, {r4, r5, r6, r7, r8, pc}
    916c:	e5d13000 	ldrb	r3, [r1]
    9170:	e2832001 	add	r2, r3, #1	; 0x1
    9174:	e5c12000 	strb	r2, [r1]
    9178:	e5d10000 	ldrb	r0, [r1]
    917c:	e59f63d8 	ldr	r6, [pc, #984]	; 955c <.text+0x155c>
    9180:	e35000ff 	cmp	r0, #255	; 0xff
    9184:	e3a02005 	mov	r2, #5	; 0x5
    9188:	e7c62003 	strb	r2, [r6, r3]
    918c:	03a03000 	moveq	r3, #0	; 0x0
    9190:	e59fc3bc 	ldr	ip, [pc, #956]	; 9554 <.text+0x1554>
    9194:	01a00003 	moveq	r0, r3
    9198:	05c13000 	streqb	r3, [r1]
    919c:	e2803001 	add	r3, r0, #1	; 0x1
    91a0:	e5cc3000 	strb	r3, [ip]
    91a4:	e3a02006 	mov	r2, #6	; 0x6
    91a8:	e7c62000 	strb	r2, [r6, r0]
    91ac:	e5dc0000 	ldrb	r0, [ip]
    91b0:	e35000ff 	cmp	r0, #255	; 0xff
    91b4:	03a03000 	moveq	r3, #0	; 0x0
    91b8:	05cc3000 	streqb	r3, [ip]
    91bc:	e59f739c 	ldr	r7, [pc, #924]	; 9560 <.text+0x1560>
    91c0:	e5d71000 	ldrb	r1, [r7]
    91c4:	e59f4398 	ldr	r4, [pc, #920]	; 9564 <.text+0x1564>
    91c8:	01a00003 	moveq	r0, r3
    91cc:	e2802001 	add	r2, r0, #1	; 0x1
    91d0:	e2813006 	add	r3, r1, #6	; 0x6
    91d4:	e5cc2000 	strb	r2, [ip]
    91d8:	e5c43000 	strb	r3, [r4]
    91dc:	e7c61000 	strb	r1, [r6, r0]
    91e0:	e5d4e000 	ldrb	lr, [r4]
    91e4:	e5dc0000 	ldrb	r0, [ip]
    91e8:	e59f5378 	ldr	r5, [pc, #888]	; 9568 <.text+0x1568>
    91ec:	e28e3006 	add	r3, lr, #6	; 0x6
    91f0:	e35000ff 	cmp	r0, #255	; 0xff
    91f4:	e5c53000 	strb	r3, [r5]
    91f8:	03a03000 	moveq	r3, #0	; 0x0
    91fc:	05cc3000 	streqb	r3, [ip]
    9200:	e5d71001 	ldrb	r1, [r7, #1]
    9204:	01a00003 	moveq	r0, r3
    9208:	e2802001 	add	r2, r0, #1	; 0x1
    920c:	e081300e 	add	r3, r1, lr
    9210:	e5cc2000 	strb	r2, [ip]
    9214:	e5c43000 	strb	r3, [r4]
    9218:	e7c61000 	strb	r1, [r6, r0]
    921c:	e5d4e000 	ldrb	lr, [r4]
    9220:	e5dc0000 	ldrb	r0, [ip]
    9224:	e5d53000 	ldrb	r3, [r5]
    9228:	e35000ff 	cmp	r0, #255	; 0xff
    922c:	e083300e 	add	r3, r3, lr
    9230:	e5c53000 	strb	r3, [r5]
    9234:	03a03000 	moveq	r3, #0	; 0x0
    9238:	05cc3000 	streqb	r3, [ip]
    923c:	e5d71002 	ldrb	r1, [r7, #2]
    9240:	01a00003 	moveq	r0, r3
    9244:	e2802001 	add	r2, r0, #1	; 0x1
    9248:	e081300e 	add	r3, r1, lr
    924c:	e5cc2000 	strb	r2, [ip]
    9250:	e5c43000 	strb	r3, [r4]
    9254:	e7c61000 	strb	r1, [r6, r0]
    9258:	e5d4e000 	ldrb	lr, [r4]
    925c:	e5dc0000 	ldrb	r0, [ip]
    9260:	e5d53000 	ldrb	r3, [r5]
    9264:	e35000ff 	cmp	r0, #255	; 0xff
    9268:	e083300e 	add	r3, r3, lr
    926c:	e5c53000 	strb	r3, [r5]
    9270:	03a03000 	moveq	r3, #0	; 0x0
    9274:	05cc3000 	streqb	r3, [ip]
    9278:	e5d71003 	ldrb	r1, [r7, #3]
    927c:	01a00003 	moveq	r0, r3
    9280:	e2802001 	add	r2, r0, #1	; 0x1
    9284:	e081300e 	add	r3, r1, lr
    9288:	e5cc2000 	strb	r2, [ip]
    928c:	e5c43000 	strb	r3, [r4]
    9290:	e7c61000 	strb	r1, [r6, r0]
    9294:	e5d4e000 	ldrb	lr, [r4]
    9298:	e5dc0000 	ldrb	r0, [ip]
    929c:	e5d53000 	ldrb	r3, [r5]
    92a0:	e35000ff 	cmp	r0, #255	; 0xff
    92a4:	e083300e 	add	r3, r3, lr
    92a8:	e5c53000 	strb	r3, [r5]
    92ac:	03a03000 	moveq	r3, #0	; 0x0
    92b0:	05cc3000 	streqb	r3, [ip]
    92b4:	e59f72b0 	ldr	r7, [pc, #688]	; 956c <.text+0x156c>
    92b8:	e5d71000 	ldrb	r1, [r7]
    92bc:	01a00003 	moveq	r0, r3
    92c0:	e2802001 	add	r2, r0, #1	; 0x1
    92c4:	e081300e 	add	r3, r1, lr
    92c8:	e5cc2000 	strb	r2, [ip]
    92cc:	e5c43000 	strb	r3, [r4]
    92d0:	e7c61000 	strb	r1, [r6, r0]
    92d4:	e5d4e000 	ldrb	lr, [r4]
    92d8:	e5dc0000 	ldrb	r0, [ip]
    92dc:	e5d53000 	ldrb	r3, [r5]
    92e0:	e35000ff 	cmp	r0, #255	; 0xff
    92e4:	e083300e 	add	r3, r3, lr
    92e8:	e5c53000 	strb	r3, [r5]
    92ec:	03a03000 	moveq	r3, #0	; 0x0
    92f0:	05cc3000 	streqb	r3, [ip]
    92f4:	e5d71001 	ldrb	r1, [r7, #1]
    92f8:	01a00003 	moveq	r0, r3
    92fc:	e2802001 	add	r2, r0, #1	; 0x1
    9300:	e081300e 	add	r3, r1, lr
    9304:	e5cc2000 	strb	r2, [ip]
    9308:	e5c43000 	strb	r3, [r4]
    930c:	e7c61000 	strb	r1, [r6, r0]
    9310:	e5d4e000 	ldrb	lr, [r4]
    9314:	e5dc0000 	ldrb	r0, [ip]
    9318:	e5d53000 	ldrb	r3, [r5]
    931c:	e35000ff 	cmp	r0, #255	; 0xff
    9320:	e083300e 	add	r3, r3, lr
    9324:	e5c53000 	strb	r3, [r5]
    9328:	03a03000 	moveq	r3, #0	; 0x0
    932c:	05cc3000 	streqb	r3, [ip]
    9330:	e5d71002 	ldrb	r1, [r7, #2]
    9334:	01a00003 	moveq	r0, r3
    9338:	e2802001 	add	r2, r0, #1	; 0x1
    933c:	e081300e 	add	r3, r1, lr
    9340:	e5cc2000 	strb	r2, [ip]
    9344:	e5c43000 	strb	r3, [r4]
    9348:	e7c61000 	strb	r1, [r6, r0]
    934c:	e5d4e000 	ldrb	lr, [r4]
    9350:	e5dc0000 	ldrb	r0, [ip]
    9354:	e5d53000 	ldrb	r3, [r5]
    9358:	e35000ff 	cmp	r0, #255	; 0xff
    935c:	e083300e 	add	r3, r3, lr
    9360:	e5c53000 	strb	r3, [r5]
    9364:	03a03000 	moveq	r3, #0	; 0x0
    9368:	05cc3000 	streqb	r3, [ip]
    936c:	e5d71003 	ldrb	r1, [r7, #3]
    9370:	01a00003 	moveq	r0, r3
    9374:	e2802001 	add	r2, r0, #1	; 0x1
    9378:	e081300e 	add	r3, r1, lr
    937c:	e5cc2000 	strb	r2, [ip]
    9380:	e5c43000 	strb	r3, [r4]
    9384:	e7c61000 	strb	r1, [r6, r0]
    9388:	e5d4e000 	ldrb	lr, [r4]
    938c:	e5dc0000 	ldrb	r0, [ip]
    9390:	e5d53000 	ldrb	r3, [r5]
    9394:	e35000ff 	cmp	r0, #255	; 0xff
    9398:	e083300e 	add	r3, r3, lr
    939c:	e5c53000 	strb	r3, [r5]
    93a0:	03a03000 	moveq	r3, #0	; 0x0
    93a4:	05cc3000 	streqb	r3, [ip]
    93a8:	e59f71c0 	ldr	r7, [pc, #448]	; 9570 <.text+0x1570>
    93ac:	e5d71000 	ldrb	r1, [r7]
    93b0:	01a00003 	moveq	r0, r3
    93b4:	e2802001 	add	r2, r0, #1	; 0x1
    93b8:	e081300e 	add	r3, r1, lr
    93bc:	e5cc2000 	strb	r2, [ip]
    93c0:	e5c43000 	strb	r3, [r4]
    93c4:	e7c61000 	strb	r1, [r6, r0]
    93c8:	e5d4e000 	ldrb	lr, [r4]
    93cc:	e5dc0000 	ldrb	r0, [ip]
    93d0:	e5d53000 	ldrb	r3, [r5]
    93d4:	e35000ff 	cmp	r0, #255	; 0xff
    93d8:	e083300e 	add	r3, r3, lr
    93dc:	e5c53000 	strb	r3, [r5]
    93e0:	03a03000 	moveq	r3, #0	; 0x0
    93e4:	05cc3000 	streqb	r3, [ip]
    93e8:	e5d71001 	ldrb	r1, [r7, #1]
    93ec:	01a00003 	moveq	r0, r3
    93f0:	e2802001 	add	r2, r0, #1	; 0x1
    93f4:	e081300e 	add	r3, r1, lr
    93f8:	e5cc2000 	strb	r2, [ip]
    93fc:	e5c43000 	strb	r3, [r4]
    9400:	e7c61000 	strb	r1, [r6, r0]
    9404:	e5d4e000 	ldrb	lr, [r4]
    9408:	e5dc0000 	ldrb	r0, [ip]
    940c:	e5d53000 	ldrb	r3, [r5]
    9410:	e35000ff 	cmp	r0, #255	; 0xff
    9414:	e083300e 	add	r3, r3, lr
    9418:	e5c53000 	strb	r3, [r5]
    941c:	03a03000 	moveq	r3, #0	; 0x0
    9420:	05cc3000 	streqb	r3, [ip]
    9424:	e5d71002 	ldrb	r1, [r7, #2]
    9428:	01a00003 	moveq	r0, r3
    942c:	e2802001 	add	r2, r0, #1	; 0x1
    9430:	e081300e 	add	r3, r1, lr
    9434:	e5cc2000 	strb	r2, [ip]
    9438:	e5c43000 	strb	r3, [r4]
    943c:	e7c61000 	strb	r1, [r6, r0]
    9440:	e5d4e000 	ldrb	lr, [r4]
    9444:	e5dc0000 	ldrb	r0, [ip]
    9448:	e5d53000 	ldrb	r3, [r5]
    944c:	e35000ff 	cmp	r0, #255	; 0xff
    9450:	e083300e 	add	r3, r3, lr
    9454:	e5c53000 	strb	r3, [r5]
    9458:	03a03000 	moveq	r3, #0	; 0x0
    945c:	05cc3000 	streqb	r3, [ip]
    9460:	e5d71003 	ldrb	r1, [r7, #3]
    9464:	01a00003 	moveq	r0, r3
    9468:	e2802001 	add	r2, r0, #1	; 0x1
    946c:	e081300e 	add	r3, r1, lr
    9470:	e5cc2000 	strb	r2, [ip]
    9474:	e5c43000 	strb	r3, [r4]
    9478:	e7c61000 	strb	r1, [r6, r0]
    947c:	e5d53000 	ldrb	r3, [r5]
    9480:	e5dc0000 	ldrb	r0, [ip]
    9484:	e5d41000 	ldrb	r1, [r4]
    9488:	e35000ff 	cmp	r0, #255	; 0xff
    948c:	e0833001 	add	r3, r3, r1
    9490:	e5c53000 	strb	r3, [r5]
    9494:	03a03000 	moveq	r3, #0	; 0x0
    9498:	01a00003 	moveq	r0, r3
    949c:	05cc3000 	streqb	r3, [ip]
    94a0:	e2803001 	add	r3, r0, #1	; 0x1
    94a4:	e5cc3000 	strb	r3, [ip]
    94a8:	e7c61000 	strb	r1, [r6, r0]
    94ac:	e5dc0000 	ldrb	r0, [ip]
    94b0:	e35000ff 	cmp	r0, #255	; 0xff
    94b4:	03a03000 	moveq	r3, #0	; 0x0
    94b8:	01a00003 	moveq	r0, r3
    94bc:	05cc3000 	streqb	r3, [ip]
    94c0:	e2803001 	add	r3, r0, #1	; 0x1
    94c4:	e5cc3000 	strb	r3, [ip]
    94c8:	e5dc2000 	ldrb	r2, [ip]
    94cc:	e5d53000 	ldrb	r3, [r5]
    94d0:	e35200ff 	cmp	r2, #255	; 0xff
    94d4:	e7c63000 	strb	r3, [r6, r0]
    94d8:	03a03000 	moveq	r3, #0	; 0x0
    94dc:	05cc3000 	streqb	r3, [ip]
    94e0:	e3a0c059 	mov	ip, #89	; 0x59
    94e4:	e5dc3000 	ldrb	r3, [ip]
    94e8:	e1a03223 	mov	r3, r3, lsr #4
    94ec:	e213e001 	ands	lr, r3, #1	; 0x1
    94f0:	18bd81f0 	ldmneia	sp!, {r4, r5, r6, r7, r8, pc}
    94f4:	e5d80000 	ldrb	r0, [r8]
    94f8:	e5d83000 	ldrb	r3, [r8]
    94fc:	e2833001 	add	r3, r3, #1	; 0x1
    9500:	e5c83000 	strb	r3, [r8]
    9504:	e5d82000 	ldrb	r2, [r8]
    9508:	e7d61000 	ldrb	r1, [r6, r0]
    950c:	e35200ff 	cmp	r2, #255	; 0xff
    9510:	e59f305c 	ldr	r3, [pc, #92]	; 9574 <.text+0x1574>
    9514:	e59f205c 	ldr	r2, [pc, #92]	; 9578 <.text+0x1578>
    9518:	e5c31000 	strb	r1, [r3]
    951c:	e5c2e000 	strb	lr, [r2]
    9520:	05c8e000 	streqb	lr, [r8]
    9524:	e3a03058 	mov	r3, #88	; 0x58
    9528:	e5d32000 	ldrb	r2, [r3]
    952c:	e3822001 	orr	r2, r2, #1	; 0x1
    9530:	e5c32000 	strb	r2, [r3]
    9534:	e5dc1000 	ldrb	r1, [ip]
    9538:	e3811010 	orr	r1, r1, #16	; 0x10
    953c:	e5cc1000 	strb	r1, [ip]
    9540:	e8bd81f0 	ldmia	sp!, {r4, r5, r6, r7, r8, pc}
    9544:	00013501 	andeq	r3, r1, r1, lsl #10
    9548:	000135b6 	streqh	r3, [r1], -r6
    954c:	cccccccd 	stcgtl	12, cr12, [ip], {205}
    9550:	000139f6 	streqd	r3, [r1], -r6
    9554:	000139f5 	streqd	r3, [r1], -r5
    9558:	000139f3 	streqd	r3, [r1], -r3
    955c:	000139f8 	streqd	r3, [r1], -r8
    9560:	00013bcc 	andeq	r3, r1, ip, asr #23
    9564:	00013af7 	streqd	r3, [r1], -r7
    9568:	000139f2 	streqd	r3, [r1], -r2
    956c:	00013bb0 	streqh	r3, [r1], -r0
    9570:	00013bc0 	andeq	r3, r1, r0, asr #23
    9574:	000139f4 	streqd	r3, [r1], -r4
    9578:	000139f7 	streqd	r3, [r1], -r7

0000957c <send_adc>:
    957c:	e92d41f0 	stmdb	sp!, {r4, r5, r6, r7, r8, lr}
    9580:	e59f3264 	ldr	r3, [pc, #612]	; 97ec <.text+0x17ec>
    9584:	e5d32000 	ldrb	r2, [r3]
    9588:	e3520000 	cmp	r2, #0	; 0x0
    958c:	18bd81f0 	ldmneia	sp!, {r4, r5, r6, r7, r8, pc}
    9590:	e59f3258 	ldr	r3, [pc, #600]	; 97f0 <.text+0x17f0>
    9594:	e59f1258 	ldr	r1, [pc, #600]	; 97f4 <.text+0x17f4>
    9598:	e5d32000 	ldrb	r2, [r3]
    959c:	e0830291 	umull	r0, r3, r1, r2
    95a0:	e1a03123 	mov	r3, r3, lsr #2
    95a4:	e0833103 	add	r3, r3, r3, lsl #2
    95a8:	e0632002 	rsb	r2, r3, r2
    95ac:	e20220ff 	and	r2, r2, #255	; 0xff
    95b0:	e3520001 	cmp	r2, #1	; 0x1
    95b4:	18bd81f0 	ldmneia	sp!, {r4, r5, r6, r7, r8, pc}
    95b8:	e59f7238 	ldr	r7, [pc, #568]	; 97f8 <.text+0x17f8>
    95bc:	e59f1238 	ldr	r1, [pc, #568]	; 97fc <.text+0x17fc>
    95c0:	e5d73000 	ldrb	r3, [r7]
    95c4:	e5d12000 	ldrb	r2, [r1]
    95c8:	e1520003 	cmp	r2, r3
    95cc:	25d73000 	ldrcsb	r3, [r7]
    95d0:	35d73000 	ldrccb	r3, [r7]
    95d4:	20633002 	rsbcs	r3, r3, r2
    95d8:	30623003 	rsbcc	r3, r2, r3
    95dc:	226330ff 	rsbcs	r3, r3, #255	; 0xff
    95e0:	e3530008 	cmp	r3, #8	; 0x8
    95e4:	d59f2214 	ldrle	r2, [pc, #532]	; 9800 <.text+0x1800>
    95e8:	d5d23000 	ldrleb	r3, [r2]
    95ec:	d2833001 	addle	r3, r3, #1	; 0x1
    95f0:	d5c23000 	strleb	r3, [r2]
    95f4:	d8bd81f0 	ldmleia	sp!, {r4, r5, r6, r7, r8, pc}
    95f8:	e5d13000 	ldrb	r3, [r1]
    95fc:	e2832001 	add	r2, r3, #1	; 0x1
    9600:	e5c12000 	strb	r2, [r1]
    9604:	e5d10000 	ldrb	r0, [r1]
    9608:	e59f61f4 	ldr	r6, [pc, #500]	; 9804 <.text+0x1804>
    960c:	e35000ff 	cmp	r0, #255	; 0xff
    9610:	e3a02005 	mov	r2, #5	; 0x5
    9614:	e7c62003 	strb	r2, [r6, r3]
    9618:	03a03000 	moveq	r3, #0	; 0x0
    961c:	e59fc1d8 	ldr	ip, [pc, #472]	; 97fc <.text+0x17fc>
    9620:	01a00003 	moveq	r0, r3
    9624:	05c13000 	streqb	r3, [r1]
    9628:	e2803001 	add	r3, r0, #1	; 0x1
    962c:	e5cc3000 	strb	r3, [ip]
    9630:	e3a02007 	mov	r2, #7	; 0x7
    9634:	e7c62000 	strb	r2, [r6, r0]
    9638:	e5dc0000 	ldrb	r0, [ip]
    963c:	e35000ff 	cmp	r0, #255	; 0xff
    9640:	03a03000 	moveq	r3, #0	; 0x0
    9644:	05cc3000 	streqb	r3, [ip]
    9648:	e59f81b8 	ldr	r8, [pc, #440]	; 9808 <.text+0x1808>
    964c:	e5d81000 	ldrb	r1, [r8]
    9650:	e59f41b4 	ldr	r4, [pc, #436]	; 980c <.text+0x180c>
    9654:	01a00003 	moveq	r0, r3
    9658:	e2802001 	add	r2, r0, #1	; 0x1
    965c:	e2813007 	add	r3, r1, #7	; 0x7
    9660:	e5cc2000 	strb	r2, [ip]
    9664:	e5c43000 	strb	r3, [r4]
    9668:	e7c61000 	strb	r1, [r6, r0]
    966c:	e5d4e000 	ldrb	lr, [r4]
    9670:	e5dc0000 	ldrb	r0, [ip]
    9674:	e59f5194 	ldr	r5, [pc, #404]	; 9810 <.text+0x1810>
    9678:	e28e3007 	add	r3, lr, #7	; 0x7
    967c:	e35000ff 	cmp	r0, #255	; 0xff
    9680:	e5c53000 	strb	r3, [r5]
    9684:	03a03000 	moveq	r3, #0	; 0x0
    9688:	05cc3000 	streqb	r3, [ip]
    968c:	e5d81001 	ldrb	r1, [r8, #1]
    9690:	01a00003 	moveq	r0, r3
    9694:	e2802001 	add	r2, r0, #1	; 0x1
    9698:	e081300e 	add	r3, r1, lr
    969c:	e5cc2000 	strb	r2, [ip]
    96a0:	e5c43000 	strb	r3, [r4]
    96a4:	e7c61000 	strb	r1, [r6, r0]
    96a8:	e5d4e000 	ldrb	lr, [r4]
    96ac:	e5dc0000 	ldrb	r0, [ip]
    96b0:	e5d53000 	ldrb	r3, [r5]
    96b4:	e35000ff 	cmp	r0, #255	; 0xff
    96b8:	e083300e 	add	r3, r3, lr
    96bc:	e5c53000 	strb	r3, [r5]
    96c0:	03a03000 	moveq	r3, #0	; 0x0
    96c4:	05cc3000 	streqb	r3, [ip]
    96c8:	e59f8144 	ldr	r8, [pc, #324]	; 9814 <.text+0x1814>
    96cc:	e5d81000 	ldrb	r1, [r8]
    96d0:	01a00003 	moveq	r0, r3
    96d4:	e2802001 	add	r2, r0, #1	; 0x1
    96d8:	e081300e 	add	r3, r1, lr
    96dc:	e5cc2000 	strb	r2, [ip]
    96e0:	e5c43000 	strb	r3, [r4]
    96e4:	e7c61000 	strb	r1, [r6, r0]
    96e8:	e5d4e000 	ldrb	lr, [r4]
    96ec:	e5dc0000 	ldrb	r0, [ip]
    96f0:	e5d53000 	ldrb	r3, [r5]
    96f4:	e35000ff 	cmp	r0, #255	; 0xff
    96f8:	e083300e 	add	r3, r3, lr
    96fc:	e5c53000 	strb	r3, [r5]
    9700:	03a03000 	moveq	r3, #0	; 0x0
    9704:	05cc3000 	streqb	r3, [ip]
    9708:	e5d81001 	ldrb	r1, [r8, #1]
    970c:	01a00003 	moveq	r0, r3
    9710:	e2802001 	add	r2, r0, #1	; 0x1
    9714:	e081300e 	add	r3, r1, lr
    9718:	e5cc2000 	strb	r2, [ip]
    971c:	e5c43000 	strb	r3, [r4]
    9720:	e7c61000 	strb	r1, [r6, r0]
    9724:	e5d53000 	ldrb	r3, [r5]
    9728:	e5dc0000 	ldrb	r0, [ip]
    972c:	e5d41000 	ldrb	r1, [r4]
    9730:	e35000ff 	cmp	r0, #255	; 0xff
    9734:	e0833001 	add	r3, r3, r1
    9738:	e5c53000 	strb	r3, [r5]
    973c:	03a03000 	moveq	r3, #0	; 0x0
    9740:	01a00003 	moveq	r0, r3
    9744:	05cc3000 	streqb	r3, [ip]
    9748:	e2803001 	add	r3, r0, #1	; 0x1
    974c:	e5cc3000 	strb	r3, [ip]
    9750:	e7c61000 	strb	r1, [r6, r0]
    9754:	e5dc0000 	ldrb	r0, [ip]
    9758:	e35000ff 	cmp	r0, #255	; 0xff
    975c:	03a03000 	moveq	r3, #0	; 0x0
    9760:	01a00003 	moveq	r0, r3
    9764:	05cc3000 	streqb	r3, [ip]
    9768:	e2803001 	add	r3, r0, #1	; 0x1
    976c:	e5cc3000 	strb	r3, [ip]
    9770:	e5dc2000 	ldrb	r2, [ip]
    9774:	e5d53000 	ldrb	r3, [r5]
    9778:	e35200ff 	cmp	r2, #255	; 0xff
    977c:	e7c63000 	strb	r3, [r6, r0]
    9780:	03a03000 	moveq	r3, #0	; 0x0
    9784:	05cc3000 	streqb	r3, [ip]
    9788:	e3a0c059 	mov	ip, #89	; 0x59
    978c:	e5dc3000 	ldrb	r3, [ip]
    9790:	e1a03223 	mov	r3, r3, lsr #4
    9794:	e213e001 	ands	lr, r3, #1	; 0x1
    9798:	18bd81f0 	ldmneia	sp!, {r4, r5, r6, r7, r8, pc}
    979c:	e5d70000 	ldrb	r0, [r7]
    97a0:	e5d73000 	ldrb	r3, [r7]
    97a4:	e2833001 	add	r3, r3, #1	; 0x1
    97a8:	e5c73000 	strb	r3, [r7]
    97ac:	e5d72000 	ldrb	r2, [r7]
    97b0:	e7d61000 	ldrb	r1, [r6, r0]
    97b4:	e35200ff 	cmp	r2, #255	; 0xff
    97b8:	e59f3058 	ldr	r3, [pc, #88]	; 9818 <.text+0x1818>
    97bc:	e59f2058 	ldr	r2, [pc, #88]	; 981c <.text+0x181c>
    97c0:	e5c31000 	strb	r1, [r3]
    97c4:	e5c2e000 	strb	lr, [r2]
    97c8:	05c7e000 	streqb	lr, [r7]
    97cc:	e3a03058 	mov	r3, #88	; 0x58
    97d0:	e5d32000 	ldrb	r2, [r3]
    97d4:	e3822001 	orr	r2, r2, #1	; 0x1
    97d8:	e5c32000 	strb	r2, [r3]
    97dc:	e5dc1000 	ldrb	r1, [ip]
    97e0:	e3811010 	orr	r1, r1, #16	; 0x10
    97e4:	e5cc1000 	strb	r1, [ip]
    97e8:	e8bd81f0 	ldmia	sp!, {r4, r5, r6, r7, r8, pc}
    97ec:	00013501 	andeq	r3, r1, r1, lsl #10
    97f0:	000135b6 	streqh	r3, [r1], -r6
    97f4:	cccccccd 	stcgtl	12, cr12, [ip], {205}
    97f8:	000139f6 	streqd	r3, [r1], -r6
    97fc:	000139f5 	streqd	r3, [r1], -r5
    9800:	000139f3 	streqd	r3, [r1], -r3
    9804:	000139f8 	streqd	r3, [r1], -r8
    9808:	00013b6e 	andeq	r3, r1, lr, ror #22
    980c:	00013af7 	streqd	r3, [r1], -r7
    9810:	000139f2 	streqd	r3, [r1], -r2
    9814:	00013b6c 	andeq	r3, r1, ip, ror #22
    9818:	000139f4 	streqd	r3, [r1], -r4
    981c:	000139f7 	streqd	r3, [r1], -r7

00009820 <send_settings>:
    9820:	e92d40f0 	stmdb	sp!, {r4, r5, r6, r7, lr}
    9824:	e59f33a0 	ldr	r3, [pc, #928]	; 9bcc <.text+0x1bcc>
    9828:	e5d32000 	ldrb	r2, [r3]
    982c:	e3520000 	cmp	r2, #0	; 0x0
    9830:	18bd80f0 	ldmneia	sp!, {r4, r5, r6, r7, pc}
    9834:	e59f3394 	ldr	r3, [pc, #916]	; 9bd0 <.text+0x1bd0>
    9838:	e59f1394 	ldr	r1, [pc, #916]	; 9bd4 <.text+0x1bd4>
    983c:	e5d32000 	ldrb	r2, [r3]
    9840:	e0830291 	umull	r0, r3, r1, r2
    9844:	e1a03123 	mov	r3, r3, lsr #2
    9848:	e0833103 	add	r3, r3, r3, lsl #2
    984c:	e0632002 	rsb	r2, r3, r2
    9850:	e20220ff 	and	r2, r2, #255	; 0xff
    9854:	e3520002 	cmp	r2, #2	; 0x2
    9858:	18bd80f0 	ldmneia	sp!, {r4, r5, r6, r7, pc}
    985c:	e59fe374 	ldr	lr, [pc, #884]	; 9bd8 <.text+0x1bd8>
    9860:	e5de3000 	ldrb	r3, [lr]
    9864:	e3530000 	cmp	r3, #0	; 0x0
    9868:	08bd80f0 	ldmeqia	sp!, {r4, r5, r6, r7, pc}
    986c:	e59f7368 	ldr	r7, [pc, #872]	; 9bdc <.text+0x1bdc>
    9870:	e59f1368 	ldr	r1, [pc, #872]	; 9be0 <.text+0x1be0>
    9874:	e5d73000 	ldrb	r3, [r7]
    9878:	e5d12000 	ldrb	r2, [r1]
    987c:	e1520003 	cmp	r2, r3
    9880:	25d73000 	ldrcsb	r3, [r7]
    9884:	35d73000 	ldrccb	r3, [r7]
    9888:	20633002 	rsbcs	r3, r3, r2
    988c:	30623003 	rsbcc	r3, r2, r3
    9890:	226330ff 	rsbcs	r3, r3, #255	; 0xff
    9894:	e353000d 	cmp	r3, #13	; 0xd
    9898:	d59f2344 	ldrle	r2, [pc, #836]	; 9be4 <.text+0x1be4>
    989c:	d5d23000 	ldrleb	r3, [r2]
    98a0:	d2833001 	addle	r3, r3, #1	; 0x1
    98a4:	d5c23000 	strleb	r3, [r2]
    98a8:	d8bd80f0 	ldmleia	sp!, {r4, r5, r6, r7, pc}
    98ac:	e5d13000 	ldrb	r3, [r1]
    98b0:	e2832001 	add	r2, r3, #1	; 0x1
    98b4:	e5c12000 	strb	r2, [r1]
    98b8:	e5d10000 	ldrb	r0, [r1]
    98bc:	e59f5324 	ldr	r5, [pc, #804]	; 9be8 <.text+0x1be8>
    98c0:	e35000ff 	cmp	r0, #255	; 0xff
    98c4:	e3a02005 	mov	r2, #5	; 0x5
    98c8:	e7c52003 	strb	r2, [r5, r3]
    98cc:	03a03000 	moveq	r3, #0	; 0x0
    98d0:	e59fc308 	ldr	ip, [pc, #776]	; 9be0 <.text+0x1be0>
    98d4:	01a00003 	moveq	r0, r3
    98d8:	05c13000 	streqb	r3, [r1]
    98dc:	e2803001 	add	r3, r0, #1	; 0x1
    98e0:	e5cc3000 	strb	r3, [ip]
    98e4:	e3a02011 	mov	r2, #17	; 0x11
    98e8:	e7c52000 	strb	r2, [r5, r0]
    98ec:	e5dc0000 	ldrb	r0, [ip]
    98f0:	e35000ff 	cmp	r0, #255	; 0xff
    98f4:	e5de1000 	ldrb	r1, [lr]
    98f8:	03a03000 	moveq	r3, #0	; 0x0
    98fc:	e59fe2e8 	ldr	lr, [pc, #744]	; 9bec <.text+0x1bec>
    9900:	01a00003 	moveq	r0, r3
    9904:	05cc3000 	streqb	r3, [ip]
    9908:	e2802001 	add	r2, r0, #1	; 0x1
    990c:	e2813011 	add	r3, r1, #17	; 0x11
    9910:	e5cc2000 	strb	r2, [ip]
    9914:	e5ce3000 	strb	r3, [lr]
    9918:	e7c51000 	strb	r1, [r5, r0]
    991c:	e5de2000 	ldrb	r2, [lr]
    9920:	e5dc0000 	ldrb	r0, [ip]
    9924:	e59f42c4 	ldr	r4, [pc, #708]	; 9bf0 <.text+0x1bf0>
    9928:	e2823011 	add	r3, r2, #17	; 0x11
    992c:	e35000ff 	cmp	r0, #255	; 0xff
    9930:	e5c43000 	strb	r3, [r4]
    9934:	03a03000 	moveq	r3, #0	; 0x0
    9938:	05cc3000 	streqb	r3, [ip]
    993c:	e59f62b0 	ldr	r6, [pc, #688]	; 9bf4 <.text+0x1bf4>
    9940:	e5d61000 	ldrb	r1, [r6]
    9944:	01a00003 	moveq	r0, r3
    9948:	e0813002 	add	r3, r1, r2
    994c:	e2802001 	add	r2, r0, #1	; 0x1
    9950:	e5cc2000 	strb	r2, [ip]
    9954:	e5ce3000 	strb	r3, [lr]
    9958:	e7c51000 	strb	r1, [r5, r0]
    995c:	e5de2000 	ldrb	r2, [lr]
    9960:	e5dc0000 	ldrb	r0, [ip]
    9964:	e5d43000 	ldrb	r3, [r4]
    9968:	e35000ff 	cmp	r0, #255	; 0xff
    996c:	e0833002 	add	r3, r3, r2
    9970:	e5c43000 	strb	r3, [r4]
    9974:	03a03000 	moveq	r3, #0	; 0x0
    9978:	05cc3000 	streqb	r3, [ip]
    997c:	e5d61001 	ldrb	r1, [r6, #1]
    9980:	01a00003 	moveq	r0, r3
    9984:	e0813002 	add	r3, r1, r2
    9988:	e2802001 	add	r2, r0, #1	; 0x1
    998c:	e5ce3000 	strb	r3, [lr]
    9990:	e5cc2000 	strb	r2, [ip]
    9994:	e7c51000 	strb	r1, [r5, r0]
    9998:	e5de2000 	ldrb	r2, [lr]
    999c:	e5dc0000 	ldrb	r0, [ip]
    99a0:	e5d43000 	ldrb	r3, [r4]
    99a4:	e35000ff 	cmp	r0, #255	; 0xff
    99a8:	e0833002 	add	r3, r3, r2
    99ac:	e5c43000 	strb	r3, [r4]
    99b0:	03a03000 	moveq	r3, #0	; 0x0
    99b4:	05cc3000 	streqb	r3, [ip]
    99b8:	e5d61002 	ldrb	r1, [r6, #2]
    99bc:	01a00003 	moveq	r0, r3
    99c0:	e0813002 	add	r3, r1, r2
    99c4:	e2802001 	add	r2, r0, #1	; 0x1
    99c8:	e5cc2000 	strb	r2, [ip]
    99cc:	e5ce3000 	strb	r3, [lr]
    99d0:	e7c51000 	strb	r1, [r5, r0]
    99d4:	e5de2000 	ldrb	r2, [lr]
    99d8:	e5dc0000 	ldrb	r0, [ip]
    99dc:	e5d43000 	ldrb	r3, [r4]
    99e0:	e35000ff 	cmp	r0, #255	; 0xff
    99e4:	e0833002 	add	r3, r3, r2
    99e8:	e5c43000 	strb	r3, [r4]
    99ec:	03a03000 	moveq	r3, #0	; 0x0
    99f0:	05cc3000 	streqb	r3, [ip]
    99f4:	e5d61003 	ldrb	r1, [r6, #3]
    99f8:	01a00003 	moveq	r0, r3
    99fc:	e0813002 	add	r3, r1, r2
    9a00:	e2802001 	add	r2, r0, #1	; 0x1
    9a04:	e5cc2000 	strb	r2, [ip]
    9a08:	e5ce3000 	strb	r3, [lr]
    9a0c:	e7c51000 	strb	r1, [r5, r0]
    9a10:	e5de2000 	ldrb	r2, [lr]
    9a14:	e5dc0000 	ldrb	r0, [ip]
    9a18:	e5d43000 	ldrb	r3, [r4]
    9a1c:	e35000ff 	cmp	r0, #255	; 0xff
    9a20:	e0833002 	add	r3, r3, r2
    9a24:	e5c43000 	strb	r3, [r4]
    9a28:	03a03000 	moveq	r3, #0	; 0x0
    9a2c:	05cc3000 	streqb	r3, [ip]
    9a30:	e59f61c0 	ldr	r6, [pc, #448]	; 9bf8 <.text+0x1bf8>
    9a34:	e5d61000 	ldrb	r1, [r6]
    9a38:	01a00003 	moveq	r0, r3
    9a3c:	e0813002 	add	r3, r1, r2
    9a40:	e2802001 	add	r2, r0, #1	; 0x1
    9a44:	e5cc2000 	strb	r2, [ip]
    9a48:	e5ce3000 	strb	r3, [lr]
    9a4c:	e7c51000 	strb	r1, [r5, r0]
    9a50:	e5de2000 	ldrb	r2, [lr]
    9a54:	e5dc0000 	ldrb	r0, [ip]
    9a58:	e5d43000 	ldrb	r3, [r4]
    9a5c:	e35000ff 	cmp	r0, #255	; 0xff
    9a60:	e0833002 	add	r3, r3, r2
    9a64:	e5c43000 	strb	r3, [r4]
    9a68:	03a03000 	moveq	r3, #0	; 0x0
    9a6c:	05cc3000 	streqb	r3, [ip]
    9a70:	e5d61001 	ldrb	r1, [r6, #1]
    9a74:	01a00003 	moveq	r0, r3
    9a78:	e0813002 	add	r3, r1, r2
    9a7c:	e2802001 	add	r2, r0, #1	; 0x1
    9a80:	e5ce3000 	strb	r3, [lr]
    9a84:	e5cc2000 	strb	r2, [ip]
    9a88:	e7c51000 	strb	r1, [r5, r0]
    9a8c:	e5de2000 	ldrb	r2, [lr]
    9a90:	e5dc0000 	ldrb	r0, [ip]
    9a94:	e5d43000 	ldrb	r3, [r4]
    9a98:	e35000ff 	cmp	r0, #255	; 0xff
    9a9c:	e0833002 	add	r3, r3, r2
    9aa0:	e5c43000 	strb	r3, [r4]
    9aa4:	03a03000 	moveq	r3, #0	; 0x0
    9aa8:	05cc3000 	streqb	r3, [ip]
    9aac:	e5d61002 	ldrb	r1, [r6, #2]
    9ab0:	01a00003 	moveq	r0, r3
    9ab4:	e0813002 	add	r3, r1, r2
    9ab8:	e2802001 	add	r2, r0, #1	; 0x1
    9abc:	e5cc2000 	strb	r2, [ip]
    9ac0:	e5ce3000 	strb	r3, [lr]
    9ac4:	e7c51000 	strb	r1, [r5, r0]
    9ac8:	e5de2000 	ldrb	r2, [lr]
    9acc:	e5dc0000 	ldrb	r0, [ip]
    9ad0:	e5d43000 	ldrb	r3, [r4]
    9ad4:	e35000ff 	cmp	r0, #255	; 0xff
    9ad8:	e0833002 	add	r3, r3, r2
    9adc:	e5c43000 	strb	r3, [r4]
    9ae0:	03a03000 	moveq	r3, #0	; 0x0
    9ae4:	05cc3000 	streqb	r3, [ip]
    9ae8:	e5d61003 	ldrb	r1, [r6, #3]
    9aec:	01a00003 	moveq	r0, r3
    9af0:	e0813002 	add	r3, r1, r2
    9af4:	e2802001 	add	r2, r0, #1	; 0x1
    9af8:	e5cc2000 	strb	r2, [ip]
    9afc:	e5ce3000 	strb	r3, [lr]
    9b00:	e7c51000 	strb	r1, [r5, r0]
    9b04:	e5d43000 	ldrb	r3, [r4]
    9b08:	e5dc0000 	ldrb	r0, [ip]
    9b0c:	e5de1000 	ldrb	r1, [lr]
    9b10:	e35000ff 	cmp	r0, #255	; 0xff
    9b14:	e0833001 	add	r3, r3, r1
    9b18:	e5c43000 	strb	r3, [r4]
    9b1c:	03a03000 	moveq	r3, #0	; 0x0
    9b20:	01a00003 	moveq	r0, r3
    9b24:	05cc3000 	streqb	r3, [ip]
    9b28:	e2803001 	add	r3, r0, #1	; 0x1
    9b2c:	e5cc3000 	strb	r3, [ip]
    9b30:	e7c51000 	strb	r1, [r5, r0]
    9b34:	e5dc0000 	ldrb	r0, [ip]
    9b38:	e35000ff 	cmp	r0, #255	; 0xff
    9b3c:	03a03000 	moveq	r3, #0	; 0x0
    9b40:	01a00003 	moveq	r0, r3
    9b44:	05cc3000 	streqb	r3, [ip]
    9b48:	e2803001 	add	r3, r0, #1	; 0x1
    9b4c:	e5cc3000 	strb	r3, [ip]
    9b50:	e5dc2000 	ldrb	r2, [ip]
    9b54:	e5d43000 	ldrb	r3, [r4]
    9b58:	e35200ff 	cmp	r2, #255	; 0xff
    9b5c:	e7c53000 	strb	r3, [r5, r0]
    9b60:	03a03000 	moveq	r3, #0	; 0x0
    9b64:	05cc3000 	streqb	r3, [ip]
    9b68:	e3a0c059 	mov	ip, #89	; 0x59
    9b6c:	e5dc3000 	ldrb	r3, [ip]
    9b70:	e1a03223 	mov	r3, r3, lsr #4
    9b74:	e213e001 	ands	lr, r3, #1	; 0x1
    9b78:	18bd80f0 	ldmneia	sp!, {r4, r5, r6, r7, pc}
    9b7c:	e5d70000 	ldrb	r0, [r7]
    9b80:	e5d73000 	ldrb	r3, [r7]
    9b84:	e2833001 	add	r3, r3, #1	; 0x1
    9b88:	e5c73000 	strb	r3, [r7]
    9b8c:	e5d72000 	ldrb	r2, [r7]
    9b90:	e7d51000 	ldrb	r1, [r5, r0]
    9b94:	e35200ff 	cmp	r2, #255	; 0xff
    9b98:	e59f305c 	ldr	r3, [pc, #92]	; 9bfc <.text+0x1bfc>
    9b9c:	e59f205c 	ldr	r2, [pc, #92]	; 9c00 <.text+0x1c00>
    9ba0:	e5c31000 	strb	r1, [r3]
    9ba4:	e5c2e000 	strb	lr, [r2]
    9ba8:	05c7e000 	streqb	lr, [r7]
    9bac:	e3a03058 	mov	r3, #88	; 0x58
    9bb0:	e5d32000 	ldrb	r2, [r3]
    9bb4:	e3822001 	orr	r2, r2, #1	; 0x1
    9bb8:	e5c32000 	strb	r2, [r3]
    9bbc:	e5dc1000 	ldrb	r1, [ip]
    9bc0:	e3811010 	orr	r1, r1, #16	; 0x10
    9bc4:	e5cc1000 	strb	r1, [ip]
    9bc8:	e8bd80f0 	ldmia	sp!, {r4, r5, r6, r7, pc}
    9bcc:	00013501 	andeq	r3, r1, r1, lsl #10
    9bd0:	000135b6 	streqh	r3, [r1], -r6
    9bd4:	cccccccd 	stcgtl	12, cr12, [ip], {205}
    9bd8:	000139d0 	ldreqd	r3, [r1], -r0
    9bdc:	000139f6 	streqd	r3, [r1], -r6
    9be0:	000139f5 	streqd	r3, [r1], -r5
    9be4:	000139f3 	streqd	r3, [r1], -r3
    9be8:	000139f8 	streqd	r3, [r1], -r8
    9bec:	00013af7 	streqd	r3, [r1], -r7
    9bf0:	000139f2 	streqd	r3, [r1], -r2
    9bf4:	000139ec 	andeq	r3, r1, ip, ror #19
    9bf8:	000139e8 	andeq	r3, r1, r8, ror #19
    9bfc:	000139f4 	streqd	r3, [r1], -r4
    9c00:	000139f7 	streqd	r3, [r1], -r7

00009c04 <send_desired>:
    9c04:	e92d40f0 	stmdb	sp!, {r4, r5, r6, r7, lr}
    9c08:	e59f3630 	ldr	r3, [pc, #1584]	; a240 <.text+0x2240>
    9c0c:	e5d32000 	ldrb	r2, [r3]
    9c10:	e3520000 	cmp	r2, #0	; 0x0
    9c14:	18bd80f0 	ldmneia	sp!, {r4, r5, r6, r7, pc}
    9c18:	e59f3624 	ldr	r3, [pc, #1572]	; a244 <.text+0x2244>
    9c1c:	e59f1624 	ldr	r1, [pc, #1572]	; a248 <.text+0x2248>
    9c20:	e5d32000 	ldrb	r2, [r3]
    9c24:	e0830291 	umull	r0, r3, r1, r2
    9c28:	e1a031a3 	mov	r3, r3, lsr #3
    9c2c:	e0833103 	add	r3, r3, r3, lsl #2
    9c30:	e0422083 	sub	r2, r2, r3, lsl #1
    9c34:	e20220ff 	and	r2, r2, #255	; 0xff
    9c38:	e3520003 	cmp	r2, #3	; 0x3
    9c3c:	18bd80f0 	ldmneia	sp!, {r4, r5, r6, r7, pc}
    9c40:	e59f7604 	ldr	r7, [pc, #1540]	; a24c <.text+0x224c>
    9c44:	e59f1604 	ldr	r1, [pc, #1540]	; a250 <.text+0x2250>
    9c48:	e5d73000 	ldrb	r3, [r7]
    9c4c:	e5d12000 	ldrb	r2, [r1]
    9c50:	e1520003 	cmp	r2, r3
    9c54:	25d73000 	ldrcsb	r3, [r7]
    9c58:	35d73000 	ldrccb	r3, [r7]
    9c5c:	20633002 	rsbcs	r3, r3, r2
    9c60:	30623003 	rsbcc	r3, r2, r3
    9c64:	226330ff 	rsbcs	r3, r3, #255	; 0xff
    9c68:	e3530018 	cmp	r3, #24	; 0x18
    9c6c:	d59f25e0 	ldrle	r2, [pc, #1504]	; a254 <.text+0x2254>
    9c70:	d5d23000 	ldrleb	r3, [r2]
    9c74:	d2833001 	addle	r3, r3, #1	; 0x1
    9c78:	d5c23000 	strleb	r3, [r2]
    9c7c:	d8bd80f0 	ldmleia	sp!, {r4, r5, r6, r7, pc}
    9c80:	e5d13000 	ldrb	r3, [r1]
    9c84:	e2832001 	add	r2, r3, #1	; 0x1
    9c88:	e5c12000 	strb	r2, [r1]
    9c8c:	e5d10000 	ldrb	r0, [r1]
    9c90:	e59f55c0 	ldr	r5, [pc, #1472]	; a258 <.text+0x2258>
    9c94:	e35000ff 	cmp	r0, #255	; 0xff
    9c98:	e3a02005 	mov	r2, #5	; 0x5
    9c9c:	e7c52003 	strb	r2, [r5, r3]
    9ca0:	03a03000 	moveq	r3, #0	; 0x0
    9ca4:	e59fc5a4 	ldr	ip, [pc, #1444]	; a250 <.text+0x2250>
    9ca8:	01a00003 	moveq	r0, r3
    9cac:	05c13000 	streqb	r3, [r1]
    9cb0:	e2803001 	add	r3, r0, #1	; 0x1
    9cb4:	e5cc3000 	strb	r3, [ip]
    9cb8:	e3a02012 	mov	r2, #18	; 0x12
    9cbc:	e7c52000 	strb	r2, [r5, r0]
    9cc0:	e5dc0000 	ldrb	r0, [ip]
    9cc4:	e35000ff 	cmp	r0, #255	; 0xff
    9cc8:	03a03000 	moveq	r3, #0	; 0x0
    9ccc:	05cc3000 	streqb	r3, [ip]
    9cd0:	e59f6584 	ldr	r6, [pc, #1412]	; a25c <.text+0x225c>
    9cd4:	e5d61000 	ldrb	r1, [r6]
    9cd8:	e59fe580 	ldr	lr, [pc, #1408]	; a260 <.text+0x2260>
    9cdc:	01a00003 	moveq	r0, r3
    9ce0:	e2802001 	add	r2, r0, #1	; 0x1
    9ce4:	e2813012 	add	r3, r1, #18	; 0x12
    9ce8:	e5cc2000 	strb	r2, [ip]
    9cec:	e5ce3000 	strb	r3, [lr]
    9cf0:	e7c51000 	strb	r1, [r5, r0]
    9cf4:	e5de2000 	ldrb	r2, [lr]
    9cf8:	e5dc0000 	ldrb	r0, [ip]
    9cfc:	e59f4560 	ldr	r4, [pc, #1376]	; a264 <.text+0x2264>
    9d00:	e2823012 	add	r3, r2, #18	; 0x12
    9d04:	e35000ff 	cmp	r0, #255	; 0xff
    9d08:	e5c43000 	strb	r3, [r4]
    9d0c:	03a03000 	moveq	r3, #0	; 0x0
    9d10:	05cc3000 	streqb	r3, [ip]
    9d14:	e5d61001 	ldrb	r1, [r6, #1]
    9d18:	01a00003 	moveq	r0, r3
    9d1c:	e0813002 	add	r3, r1, r2
    9d20:	e2802001 	add	r2, r0, #1	; 0x1
    9d24:	e5cc2000 	strb	r2, [ip]
    9d28:	e5ce3000 	strb	r3, [lr]
    9d2c:	e7c51000 	strb	r1, [r5, r0]
    9d30:	e5de2000 	ldrb	r2, [lr]
    9d34:	e5dc0000 	ldrb	r0, [ip]
    9d38:	e5d43000 	ldrb	r3, [r4]
    9d3c:	e35000ff 	cmp	r0, #255	; 0xff
    9d40:	e0833002 	add	r3, r3, r2
    9d44:	e5c43000 	strb	r3, [r4]
    9d48:	03a03000 	moveq	r3, #0	; 0x0
    9d4c:	05cc3000 	streqb	r3, [ip]
    9d50:	e5d61002 	ldrb	r1, [r6, #2]
    9d54:	01a00003 	moveq	r0, r3
    9d58:	e0813002 	add	r3, r1, r2
    9d5c:	e2802001 	add	r2, r0, #1	; 0x1
    9d60:	e5ce3000 	strb	r3, [lr]
    9d64:	e5cc2000 	strb	r2, [ip]
    9d68:	e7c51000 	strb	r1, [r5, r0]
    9d6c:	e5de2000 	ldrb	r2, [lr]
    9d70:	e5dc0000 	ldrb	r0, [ip]
    9d74:	e5d43000 	ldrb	r3, [r4]
    9d78:	e35000ff 	cmp	r0, #255	; 0xff
    9d7c:	e0833002 	add	r3, r3, r2
    9d80:	e5c43000 	strb	r3, [r4]
    9d84:	03a03000 	moveq	r3, #0	; 0x0
    9d88:	05cc3000 	streqb	r3, [ip]
    9d8c:	e5d61003 	ldrb	r1, [r6, #3]
    9d90:	01a00003 	moveq	r0, r3
    9d94:	e0813002 	add	r3, r1, r2
    9d98:	e2802001 	add	r2, r0, #1	; 0x1
    9d9c:	e5cc2000 	strb	r2, [ip]
    9da0:	e5ce3000 	strb	r3, [lr]
    9da4:	e7c51000 	strb	r1, [r5, r0]
    9da8:	e5de2000 	ldrb	r2, [lr]
    9dac:	e5dc0000 	ldrb	r0, [ip]
    9db0:	e5d43000 	ldrb	r3, [r4]
    9db4:	e35000ff 	cmp	r0, #255	; 0xff
    9db8:	e0833002 	add	r3, r3, r2
    9dbc:	e5c43000 	strb	r3, [r4]
    9dc0:	03a03000 	moveq	r3, #0	; 0x0
    9dc4:	05cc3000 	streqb	r3, [ip]
    9dc8:	e59f6498 	ldr	r6, [pc, #1176]	; a268 <.text+0x2268>
    9dcc:	e5d61000 	ldrb	r1, [r6]
    9dd0:	01a00003 	moveq	r0, r3
    9dd4:	e0813002 	add	r3, r1, r2
    9dd8:	e2802001 	add	r2, r0, #1	; 0x1
    9ddc:	e5cc2000 	strb	r2, [ip]
    9de0:	e5ce3000 	strb	r3, [lr]
    9de4:	e7c51000 	strb	r1, [r5, r0]
    9de8:	e5de2000 	ldrb	r2, [lr]
    9dec:	e5dc0000 	ldrb	r0, [ip]
    9df0:	e5d43000 	ldrb	r3, [r4]
    9df4:	e35000ff 	cmp	r0, #255	; 0xff
    9df8:	e0833002 	add	r3, r3, r2
    9dfc:	e5c43000 	strb	r3, [r4]
    9e00:	03a03000 	moveq	r3, #0	; 0x0
    9e04:	05cc3000 	streqb	r3, [ip]
    9e08:	e5d61001 	ldrb	r1, [r6, #1]
    9e0c:	01a00003 	moveq	r0, r3
    9e10:	e0813002 	add	r3, r1, r2
    9e14:	e2802001 	add	r2, r0, #1	; 0x1
    9e18:	e5cc2000 	strb	r2, [ip]
    9e1c:	e5ce3000 	strb	r3, [lr]
    9e20:	e7c51000 	strb	r1, [r5, r0]
    9e24:	e5de2000 	ldrb	r2, [lr]
    9e28:	e5dc0000 	ldrb	r0, [ip]
    9e2c:	e5d43000 	ldrb	r3, [r4]
    9e30:	e35000ff 	cmp	r0, #255	; 0xff
    9e34:	e0833002 	add	r3, r3, r2
    9e38:	e5c43000 	strb	r3, [r4]
    9e3c:	03a03000 	moveq	r3, #0	; 0x0
    9e40:	05cc3000 	streqb	r3, [ip]
    9e44:	e5d61002 	ldrb	r1, [r6, #2]
    9e48:	01a00003 	moveq	r0, r3
    9e4c:	e0813002 	add	r3, r1, r2
    9e50:	e2802001 	add	r2, r0, #1	; 0x1
    9e54:	e5ce3000 	strb	r3, [lr]
    9e58:	e5cc2000 	strb	r2, [ip]
    9e5c:	e7c51000 	strb	r1, [r5, r0]
    9e60:	e5de2000 	ldrb	r2, [lr]
    9e64:	e5dc0000 	ldrb	r0, [ip]
    9e68:	e5d43000 	ldrb	r3, [r4]
    9e6c:	e35000ff 	cmp	r0, #255	; 0xff
    9e70:	e0833002 	add	r3, r3, r2
    9e74:	e5c43000 	strb	r3, [r4]
    9e78:	03a03000 	moveq	r3, #0	; 0x0
    9e7c:	05cc3000 	streqb	r3, [ip]
    9e80:	e5d61003 	ldrb	r1, [r6, #3]
    9e84:	01a00003 	moveq	r0, r3
    9e88:	e0813002 	add	r3, r1, r2
    9e8c:	e2802001 	add	r2, r0, #1	; 0x1
    9e90:	e5cc2000 	strb	r2, [ip]
    9e94:	e5ce3000 	strb	r3, [lr]
    9e98:	e7c51000 	strb	r1, [r5, r0]
    9e9c:	e5de2000 	ldrb	r2, [lr]
    9ea0:	e5dc0000 	ldrb	r0, [ip]
    9ea4:	e5d43000 	ldrb	r3, [r4]
    9ea8:	e35000ff 	cmp	r0, #255	; 0xff
    9eac:	e0833002 	add	r3, r3, r2
    9eb0:	e5c43000 	strb	r3, [r4]
    9eb4:	03a03000 	moveq	r3, #0	; 0x0
    9eb8:	05cc3000 	streqb	r3, [ip]
    9ebc:	e59f63a8 	ldr	r6, [pc, #936]	; a26c <.text+0x226c>
    9ec0:	e5d61000 	ldrb	r1, [r6]
    9ec4:	01a00003 	moveq	r0, r3
    9ec8:	e0813002 	add	r3, r1, r2
    9ecc:	e2802001 	add	r2, r0, #1	; 0x1
    9ed0:	e5cc2000 	strb	r2, [ip]
    9ed4:	e5ce3000 	strb	r3, [lr]
    9ed8:	e7c51000 	strb	r1, [r5, r0]
    9edc:	e5de2000 	ldrb	r2, [lr]
    9ee0:	e5dc0000 	ldrb	r0, [ip]
    9ee4:	e5d43000 	ldrb	r3, [r4]
    9ee8:	e35000ff 	cmp	r0, #255	; 0xff
    9eec:	e0833002 	add	r3, r3, r2
    9ef0:	e5c43000 	strb	r3, [r4]
    9ef4:	03a03000 	moveq	r3, #0	; 0x0
    9ef8:	05cc3000 	streqb	r3, [ip]
    9efc:	e5d61001 	ldrb	r1, [r6, #1]
    9f00:	01a00003 	moveq	r0, r3
    9f04:	e0813002 	add	r3, r1, r2
    9f08:	e2802001 	add	r2, r0, #1	; 0x1
    9f0c:	e5cc2000 	strb	r2, [ip]
    9f10:	e5ce3000 	strb	r3, [lr]
    9f14:	e7c51000 	strb	r1, [r5, r0]
    9f18:	e5de2000 	ldrb	r2, [lr]
    9f1c:	e5dc0000 	ldrb	r0, [ip]
    9f20:	e5d43000 	ldrb	r3, [r4]
    9f24:	e35000ff 	cmp	r0, #255	; 0xff
    9f28:	e0833002 	add	r3, r3, r2
    9f2c:	e5c43000 	strb	r3, [r4]
    9f30:	03a03000 	moveq	r3, #0	; 0x0
    9f34:	05cc3000 	streqb	r3, [ip]
    9f38:	e5d61002 	ldrb	r1, [r6, #2]
    9f3c:	01a00003 	moveq	r0, r3
    9f40:	e0813002 	add	r3, r1, r2
    9f44:	e2802001 	add	r2, r0, #1	; 0x1
    9f48:	e5ce3000 	strb	r3, [lr]
    9f4c:	e5cc2000 	strb	r2, [ip]
    9f50:	e7c51000 	strb	r1, [r5, r0]
    9f54:	e5de2000 	ldrb	r2, [lr]
    9f58:	e5dc0000 	ldrb	r0, [ip]
    9f5c:	e5d43000 	ldrb	r3, [r4]
    9f60:	e35000ff 	cmp	r0, #255	; 0xff
    9f64:	e0833002 	add	r3, r3, r2
    9f68:	e5c43000 	strb	r3, [r4]
    9f6c:	03a03000 	moveq	r3, #0	; 0x0
    9f70:	05cc3000 	streqb	r3, [ip]
    9f74:	e5d61003 	ldrb	r1, [r6, #3]
    9f78:	01a00003 	moveq	r0, r3
    9f7c:	e0813002 	add	r3, r1, r2
    9f80:	e2802001 	add	r2, r0, #1	; 0x1
    9f84:	e5cc2000 	strb	r2, [ip]
    9f88:	e5ce3000 	strb	r3, [lr]
    9f8c:	e7c51000 	strb	r1, [r5, r0]
    9f90:	e5de2000 	ldrb	r2, [lr]
    9f94:	e5dc0000 	ldrb	r0, [ip]
    9f98:	e5d43000 	ldrb	r3, [r4]
    9f9c:	e35000ff 	cmp	r0, #255	; 0xff
    9fa0:	e0833002 	add	r3, r3, r2
    9fa4:	e5c43000 	strb	r3, [r4]
    9fa8:	03a03000 	moveq	r3, #0	; 0x0
    9fac:	05cc3000 	streqb	r3, [ip]
    9fb0:	e59f62b8 	ldr	r6, [pc, #696]	; a270 <.text+0x2270>
    9fb4:	e5d61000 	ldrb	r1, [r6]
    9fb8:	01a00003 	moveq	r0, r3
    9fbc:	e0813002 	add	r3, r1, r2
    9fc0:	e2802001 	add	r2, r0, #1	; 0x1
    9fc4:	e5cc2000 	strb	r2, [ip]
    9fc8:	e5ce3000 	strb	r3, [lr]
    9fcc:	e7c51000 	strb	r1, [r5, r0]
    9fd0:	e5de2000 	ldrb	r2, [lr]
    9fd4:	e5dc0000 	ldrb	r0, [ip]
    9fd8:	e5d43000 	ldrb	r3, [r4]
    9fdc:	e35000ff 	cmp	r0, #255	; 0xff
    9fe0:	e0833002 	add	r3, r3, r2
    9fe4:	e5c43000 	strb	r3, [r4]
    9fe8:	03a03000 	moveq	r3, #0	; 0x0
    9fec:	05cc3000 	streqb	r3, [ip]
    9ff0:	e5d61001 	ldrb	r1, [r6, #1]
    9ff4:	01a00003 	moveq	r0, r3
    9ff8:	e0813002 	add	r3, r1, r2
    9ffc:	e2802001 	add	r2, r0, #1	; 0x1
    a000:	e5cc2000 	strb	r2, [ip]
    a004:	e5ce3000 	strb	r3, [lr]
    a008:	e7c51000 	strb	r1, [r5, r0]
    a00c:	e5de2000 	ldrb	r2, [lr]
    a010:	e5dc0000 	ldrb	r0, [ip]
    a014:	e5d43000 	ldrb	r3, [r4]
    a018:	e35000ff 	cmp	r0, #255	; 0xff
    a01c:	e0833002 	add	r3, r3, r2
    a020:	e5c43000 	strb	r3, [r4]
    a024:	03a03000 	moveq	r3, #0	; 0x0
    a028:	05cc3000 	streqb	r3, [ip]
    a02c:	e5d61002 	ldrb	r1, [r6, #2]
    a030:	01a00003 	moveq	r0, r3
    a034:	e0813002 	add	r3, r1, r2
    a038:	e2802001 	add	r2, r0, #1	; 0x1
    a03c:	e5ce3000 	strb	r3, [lr]
    a040:	e5cc2000 	strb	r2, [ip]
    a044:	e7c51000 	strb	r1, [r5, r0]
    a048:	e5de2000 	ldrb	r2, [lr]
    a04c:	e5dc0000 	ldrb	r0, [ip]
    a050:	e5d43000 	ldrb	r3, [r4]
    a054:	e35000ff 	cmp	r0, #255	; 0xff
    a058:	e0833002 	add	r3, r3, r2
    a05c:	e5c43000 	strb	r3, [r4]
    a060:	03a03000 	moveq	r3, #0	; 0x0
    a064:	05cc3000 	streqb	r3, [ip]
    a068:	e5d61003 	ldrb	r1, [r6, #3]
    a06c:	01a00003 	moveq	r0, r3
    a070:	e0813002 	add	r3, r1, r2
    a074:	e2802001 	add	r2, r0, #1	; 0x1
    a078:	e5cc2000 	strb	r2, [ip]
    a07c:	e5ce3000 	strb	r3, [lr]
    a080:	e7c51000 	strb	r1, [r5, r0]
    a084:	e5de2000 	ldrb	r2, [lr]
    a088:	e5dc0000 	ldrb	r0, [ip]
    a08c:	e5d43000 	ldrb	r3, [r4]
    a090:	e35000ff 	cmp	r0, #255	; 0xff
    a094:	e0833002 	add	r3, r3, r2
    a098:	e5c43000 	strb	r3, [r4]
    a09c:	03a03000 	moveq	r3, #0	; 0x0
    a0a0:	05cc3000 	streqb	r3, [ip]
    a0a4:	e59f61c8 	ldr	r6, [pc, #456]	; a274 <.text+0x2274>
    a0a8:	e5d61000 	ldrb	r1, [r6]
    a0ac:	01a00003 	moveq	r0, r3
    a0b0:	e0813002 	add	r3, r1, r2
    a0b4:	e2802001 	add	r2, r0, #1	; 0x1
    a0b8:	e5cc2000 	strb	r2, [ip]
    a0bc:	e5ce3000 	strb	r3, [lr]
    a0c0:	e7c51000 	strb	r1, [r5, r0]
    a0c4:	e5de2000 	ldrb	r2, [lr]
    a0c8:	e5dc0000 	ldrb	r0, [ip]
    a0cc:	e5d43000 	ldrb	r3, [r4]
    a0d0:	e35000ff 	cmp	r0, #255	; 0xff
    a0d4:	e0833002 	add	r3, r3, r2
    a0d8:	e5c43000 	strb	r3, [r4]
    a0dc:	03a03000 	moveq	r3, #0	; 0x0
    a0e0:	05cc3000 	streqb	r3, [ip]
    a0e4:	e5d61001 	ldrb	r1, [r6, #1]
    a0e8:	01a00003 	moveq	r0, r3
    a0ec:	e0813002 	add	r3, r1, r2
    a0f0:	e2802001 	add	r2, r0, #1	; 0x1
    a0f4:	e5cc2000 	strb	r2, [ip]
    a0f8:	e5ce3000 	strb	r3, [lr]
    a0fc:	e7c51000 	strb	r1, [r5, r0]
    a100:	e5de2000 	ldrb	r2, [lr]
    a104:	e5dc0000 	ldrb	r0, [ip]
    a108:	e5d43000 	ldrb	r3, [r4]
    a10c:	e35000ff 	cmp	r0, #255	; 0xff
    a110:	e0833002 	add	r3, r3, r2
    a114:	e5c43000 	strb	r3, [r4]
    a118:	03a03000 	moveq	r3, #0	; 0x0
    a11c:	05cc3000 	streqb	r3, [ip]
    a120:	e5d61002 	ldrb	r1, [r6, #2]
    a124:	01a00003 	moveq	r0, r3
    a128:	e0813002 	add	r3, r1, r2
    a12c:	e2802001 	add	r2, r0, #1	; 0x1
    a130:	e5ce3000 	strb	r3, [lr]
    a134:	e5cc2000 	strb	r2, [ip]
    a138:	e7c51000 	strb	r1, [r5, r0]
    a13c:	e5de2000 	ldrb	r2, [lr]
    a140:	e5dc0000 	ldrb	r0, [ip]
    a144:	e5d43000 	ldrb	r3, [r4]
    a148:	e35000ff 	cmp	r0, #255	; 0xff
    a14c:	e0833002 	add	r3, r3, r2
    a150:	e5c43000 	strb	r3, [r4]
    a154:	03a03000 	moveq	r3, #0	; 0x0
    a158:	05cc3000 	streqb	r3, [ip]
    a15c:	e5d61003 	ldrb	r1, [r6, #3]
    a160:	01a00003 	moveq	r0, r3
    a164:	e0813002 	add	r3, r1, r2
    a168:	e2802001 	add	r2, r0, #1	; 0x1
    a16c:	e5cc2000 	strb	r2, [ip]
    a170:	e5ce3000 	strb	r3, [lr]
    a174:	e7c51000 	strb	r1, [r5, r0]
    a178:	e5d43000 	ldrb	r3, [r4]
    a17c:	e5dc0000 	ldrb	r0, [ip]
    a180:	e5de1000 	ldrb	r1, [lr]
    a184:	e35000ff 	cmp	r0, #255	; 0xff
    a188:	e0833001 	add	r3, r3, r1
    a18c:	e5c43000 	strb	r3, [r4]
    a190:	03a03000 	moveq	r3, #0	; 0x0
    a194:	01a00003 	moveq	r0, r3
    a198:	05cc3000 	streqb	r3, [ip]
    a19c:	e2803001 	add	r3, r0, #1	; 0x1
    a1a0:	e5cc3000 	strb	r3, [ip]
    a1a4:	e7c51000 	strb	r1, [r5, r0]
    a1a8:	e5dc0000 	ldrb	r0, [ip]
    a1ac:	e35000ff 	cmp	r0, #255	; 0xff
    a1b0:	03a03000 	moveq	r3, #0	; 0x0
    a1b4:	01a00003 	moveq	r0, r3
    a1b8:	05cc3000 	streqb	r3, [ip]
    a1bc:	e2803001 	add	r3, r0, #1	; 0x1
    a1c0:	e5cc3000 	strb	r3, [ip]
    a1c4:	e5dc2000 	ldrb	r2, [ip]
    a1c8:	e5d43000 	ldrb	r3, [r4]
    a1cc:	e35200ff 	cmp	r2, #255	; 0xff
    a1d0:	e7c53000 	strb	r3, [r5, r0]
    a1d4:	03a03000 	moveq	r3, #0	; 0x0
    a1d8:	05cc3000 	streqb	r3, [ip]
    a1dc:	e3a0c059 	mov	ip, #89	; 0x59
    a1e0:	e5dc3000 	ldrb	r3, [ip]
    a1e4:	e1a03223 	mov	r3, r3, lsr #4
    a1e8:	e213e001 	ands	lr, r3, #1	; 0x1
    a1ec:	18bd80f0 	ldmneia	sp!, {r4, r5, r6, r7, pc}
    a1f0:	e5d70000 	ldrb	r0, [r7]
    a1f4:	e5d73000 	ldrb	r3, [r7]
    a1f8:	e2833001 	add	r3, r3, #1	; 0x1
    a1fc:	e5c73000 	strb	r3, [r7]
    a200:	e5d72000 	ldrb	r2, [r7]
    a204:	e7d51000 	ldrb	r1, [r5, r0]
    a208:	e35200ff 	cmp	r2, #255	; 0xff
    a20c:	e59f3064 	ldr	r3, [pc, #100]	; a278 <.text+0x2278>
    a210:	e59f2064 	ldr	r2, [pc, #100]	; a27c <.text+0x227c>
    a214:	e5c31000 	strb	r1, [r3]
    a218:	e5c2e000 	strb	lr, [r2]
    a21c:	05c7e000 	streqb	lr, [r7]
    a220:	e3a03058 	mov	r3, #88	; 0x58
    a224:	e5d32000 	ldrb	r2, [r3]
    a228:	e3822001 	orr	r2, r2, #1	; 0x1
    a22c:	e5c32000 	strb	r2, [r3]
    a230:	e5dc1000 	ldrb	r1, [ip]
    a234:	e3811010 	orr	r1, r1, #16	; 0x10
    a238:	e5cc1000 	strb	r1, [ip]
    a23c:	e8bd80f0 	ldmia	sp!, {r4, r5, r6, r7, pc}
    a240:	00013501 	andeq	r3, r1, r1, lsl #10
    a244:	000135b6 	streqh	r3, [r1], -r6
    a248:	cccccccd 	stcgtl	12, cr12, [ip], {205}
    a24c:	000139f6 	streqd	r3, [r1], -r6
    a250:	000139f5 	streqd	r3, [r1], -r5
    a254:	000139f3 	streqd	r3, [r1], -r3
    a258:	000139f8 	streqd	r3, [r1], -r8
    a25c:	0001378c 	andeq	r3, r1, ip, lsl #15
    a260:	00013af7 	streqd	r3, [r1], -r7
    a264:	000139f2 	streqd	r3, [r1], -r2
    a268:	00013788 	andeq	r3, r1, r8, lsl #15
    a26c:	00013b7c 	andeq	r3, r1, ip, ror fp
    a270:	00013b84 	andeq	r3, r1, r4, lsl #23
    a274:	00013598 	muleq	r1, r8, r5
    a278:	000139f4 	streqd	r3, [r1], -r4
    a27c:	000139f7 	streqd	r3, [r1], -r7

0000a280 <send_bat>:
    a280:	e92d40f0 	stmdb	sp!, {r4, r5, r6, r7, lr}
    a284:	e59f3360 	ldr	r3, [pc, #864]	; a5ec <.text+0x25ec>
    a288:	e5d32000 	ldrb	r2, [r3]
    a28c:	e3520000 	cmp	r2, #0	; 0x0
    a290:	18bd80f0 	ldmneia	sp!, {r4, r5, r6, r7, pc}
    a294:	e59f3354 	ldr	r3, [pc, #852]	; a5f0 <.text+0x25f0>
    a298:	e59f1354 	ldr	r1, [pc, #852]	; a5f4 <.text+0x25f4>
    a29c:	e5d32000 	ldrb	r2, [r3]
    a2a0:	e0830291 	umull	r0, r3, r1, r2
    a2a4:	e1a03223 	mov	r3, r3, lsr #4
    a2a8:	e0833103 	add	r3, r3, r3, lsl #2
    a2ac:	e0422103 	sub	r2, r2, r3, lsl #2
    a2b0:	e20220ff 	and	r2, r2, #255	; 0xff
    a2b4:	e3520008 	cmp	r2, #8	; 0x8
    a2b8:	18bd80f0 	ldmneia	sp!, {r4, r5, r6, r7, pc}
    a2bc:	e59f7334 	ldr	r7, [pc, #820]	; a5f8 <.text+0x25f8>
    a2c0:	e59f1334 	ldr	r1, [pc, #820]	; a5fc <.text+0x25fc>
    a2c4:	e5d73000 	ldrb	r3, [r7]
    a2c8:	e5d12000 	ldrb	r2, [r1]
    a2cc:	e1520003 	cmp	r2, r3
    a2d0:	25d73000 	ldrcsb	r3, [r7]
    a2d4:	35d73000 	ldrccb	r3, [r7]
    a2d8:	20633002 	rsbcs	r3, r3, r2
    a2dc:	30623003 	rsbcc	r3, r2, r3
    a2e0:	226330ff 	rsbcs	r3, r3, #255	; 0xff
    a2e4:	e353000c 	cmp	r3, #12	; 0xc
    a2e8:	d59f2310 	ldrle	r2, [pc, #784]	; a600 <.text+0x2600>
    a2ec:	d5d23000 	ldrleb	r3, [r2]
    a2f0:	d2833001 	addle	r3, r3, #1	; 0x1
    a2f4:	d5c23000 	strleb	r3, [r2]
    a2f8:	d8bd80f0 	ldmleia	sp!, {r4, r5, r6, r7, pc}
    a2fc:	e5d13000 	ldrb	r3, [r1]
    a300:	e2832001 	add	r2, r3, #1	; 0x1
    a304:	e5c12000 	strb	r2, [r1]
    a308:	e5d10000 	ldrb	r0, [r1]
    a30c:	e59f52f0 	ldr	r5, [pc, #752]	; a604 <.text+0x2604>
    a310:	e35000ff 	cmp	r0, #255	; 0xff
    a314:	e3a02005 	mov	r2, #5	; 0x5
    a318:	e7c52003 	strb	r2, [r5, r3]
    a31c:	03a03000 	moveq	r3, #0	; 0x0
    a320:	e59fc2d4 	ldr	ip, [pc, #724]	; a5fc <.text+0x25fc>
    a324:	01a00003 	moveq	r0, r3
    a328:	05c13000 	streqb	r3, [r1]
    a32c:	e2803001 	add	r3, r0, #1	; 0x1
    a330:	e5cc3000 	strb	r3, [ip]
    a334:	e3a0200c 	mov	r2, #12	; 0xc
    a338:	e7c52000 	strb	r2, [r5, r0]
    a33c:	e5dc0000 	ldrb	r0, [ip]
    a340:	e35000ff 	cmp	r0, #255	; 0xff
    a344:	03a03000 	moveq	r3, #0	; 0x0
    a348:	05cc3000 	streqb	r3, [ip]
    a34c:	01a00003 	moveq	r0, r3
    a350:	e59f32b0 	ldr	r3, [pc, #688]	; a608 <.text+0x2608>
    a354:	e5d31000 	ldrb	r1, [r3]
    a358:	e59fe2ac 	ldr	lr, [pc, #684]	; a60c <.text+0x260c>
    a35c:	e2802001 	add	r2, r0, #1	; 0x1
    a360:	e281300c 	add	r3, r1, #12	; 0xc
    a364:	e5cc2000 	strb	r2, [ip]
    a368:	e5ce3000 	strb	r3, [lr]
    a36c:	e7c51000 	strb	r1, [r5, r0]
    a370:	e5de2000 	ldrb	r2, [lr]
    a374:	e5dc0000 	ldrb	r0, [ip]
    a378:	e59f4290 	ldr	r4, [pc, #656]	; a610 <.text+0x2610>
    a37c:	e282300c 	add	r3, r2, #12	; 0xc
    a380:	e35000ff 	cmp	r0, #255	; 0xff
    a384:	e5c43000 	strb	r3, [r4]
    a388:	03a03000 	moveq	r3, #0	; 0x0
    a38c:	05cc3000 	streqb	r3, [ip]
    a390:	e59f627c 	ldr	r6, [pc, #636]	; a614 <.text+0x2614>
    a394:	e5d61000 	ldrb	r1, [r6]
    a398:	01a00003 	moveq	r0, r3
    a39c:	e0813002 	add	r3, r1, r2
    a3a0:	e2802001 	add	r2, r0, #1	; 0x1
    a3a4:	e5cc2000 	strb	r2, [ip]
    a3a8:	e5ce3000 	strb	r3, [lr]
    a3ac:	e7c51000 	strb	r1, [r5, r0]
    a3b0:	e5de2000 	ldrb	r2, [lr]
    a3b4:	e5dc0000 	ldrb	r0, [ip]
    a3b8:	e5d43000 	ldrb	r3, [r4]
    a3bc:	e35000ff 	cmp	r0, #255	; 0xff
    a3c0:	e0833002 	add	r3, r3, r2
    a3c4:	e5c43000 	strb	r3, [r4]
    a3c8:	03a03000 	moveq	r3, #0	; 0x0
    a3cc:	05cc3000 	streqb	r3, [ip]
    a3d0:	e5d61001 	ldrb	r1, [r6, #1]
    a3d4:	01a00003 	moveq	r0, r3
    a3d8:	e0813002 	add	r3, r1, r2
    a3dc:	e2802001 	add	r2, r0, #1	; 0x1
    a3e0:	e5ce3000 	strb	r3, [lr]
    a3e4:	e5cc2000 	strb	r2, [ip]
    a3e8:	e7c51000 	strb	r1, [r5, r0]
    a3ec:	e5de2000 	ldrb	r2, [lr]
    a3f0:	e5dc0000 	ldrb	r0, [ip]
    a3f4:	e5d43000 	ldrb	r3, [r4]
    a3f8:	e35000ff 	cmp	r0, #255	; 0xff
    a3fc:	e0833002 	add	r3, r3, r2
    a400:	e5c43000 	strb	r3, [r4]
    a404:	03a03000 	moveq	r3, #0	; 0x0
    a408:	05cc3000 	streqb	r3, [ip]
    a40c:	01a00003 	moveq	r0, r3
    a410:	e59f3200 	ldr	r3, [pc, #512]	; a618 <.text+0x2618>
    a414:	e5d31000 	ldrb	r1, [r3]
    a418:	e2803001 	add	r3, r0, #1	; 0x1
    a41c:	e0812002 	add	r2, r1, r2
    a420:	e5cc3000 	strb	r3, [ip]
    a424:	e5ce2000 	strb	r2, [lr]
    a428:	e7c51000 	strb	r1, [r5, r0]
    a42c:	e5de2000 	ldrb	r2, [lr]
    a430:	e5dc0000 	ldrb	r0, [ip]
    a434:	e5d43000 	ldrb	r3, [r4]
    a438:	e35000ff 	cmp	r0, #255	; 0xff
    a43c:	e0833002 	add	r3, r3, r2
    a440:	e5c43000 	strb	r3, [r4]
    a444:	03a03000 	moveq	r3, #0	; 0x0
    a448:	05cc3000 	streqb	r3, [ip]
    a44c:	e59f61c8 	ldr	r6, [pc, #456]	; a61c <.text+0x261c>
    a450:	e5d61000 	ldrb	r1, [r6]
    a454:	01a00003 	moveq	r0, r3
    a458:	e0813002 	add	r3, r1, r2
    a45c:	e2802001 	add	r2, r0, #1	; 0x1
    a460:	e5cc2000 	strb	r2, [ip]
    a464:	e5ce3000 	strb	r3, [lr]
    a468:	e7c51000 	strb	r1, [r5, r0]
    a46c:	e5de2000 	ldrb	r2, [lr]
    a470:	e5dc0000 	ldrb	r0, [ip]
    a474:	e5d43000 	ldrb	r3, [r4]
    a478:	e35000ff 	cmp	r0, #255	; 0xff
    a47c:	e0833002 	add	r3, r3, r2
    a480:	e5c43000 	strb	r3, [r4]
    a484:	03a03000 	moveq	r3, #0	; 0x0
    a488:	05cc3000 	streqb	r3, [ip]
    a48c:	e5d61001 	ldrb	r1, [r6, #1]
    a490:	01a00003 	moveq	r0, r3
    a494:	e0813002 	add	r3, r1, r2
    a498:	e2802001 	add	r2, r0, #1	; 0x1
    a49c:	e5cc2000 	strb	r2, [ip]
    a4a0:	e5ce3000 	strb	r3, [lr]
    a4a4:	e7c51000 	strb	r1, [r5, r0]
    a4a8:	e5de2000 	ldrb	r2, [lr]
    a4ac:	e5dc0000 	ldrb	r0, [ip]
    a4b0:	e5d43000 	ldrb	r3, [r4]
    a4b4:	e35000ff 	cmp	r0, #255	; 0xff
    a4b8:	e0833002 	add	r3, r3, r2
    a4bc:	e5c43000 	strb	r3, [r4]
    a4c0:	03a03000 	moveq	r3, #0	; 0x0
    a4c4:	05cc3000 	streqb	r3, [ip]
    a4c8:	e59f6150 	ldr	r6, [pc, #336]	; a620 <.text+0x2620>
    a4cc:	e5d61000 	ldrb	r1, [r6]
    a4d0:	01a00003 	moveq	r0, r3
    a4d4:	e0813002 	add	r3, r1, r2
    a4d8:	e2802001 	add	r2, r0, #1	; 0x1
    a4dc:	e5ce3000 	strb	r3, [lr]
    a4e0:	e5cc2000 	strb	r2, [ip]
    a4e4:	e7c51000 	strb	r1, [r5, r0]
    a4e8:	e5de2000 	ldrb	r2, [lr]
    a4ec:	e5dc0000 	ldrb	r0, [ip]
    a4f0:	e5d43000 	ldrb	r3, [r4]
    a4f4:	e35000ff 	cmp	r0, #255	; 0xff
    a4f8:	e0833002 	add	r3, r3, r2
    a4fc:	e5c43000 	strb	r3, [r4]
    a500:	03a03000 	moveq	r3, #0	; 0x0
    a504:	05cc3000 	streqb	r3, [ip]
    a508:	e5d61001 	ldrb	r1, [r6, #1]
    a50c:	01a00003 	moveq	r0, r3
    a510:	e0813002 	add	r3, r1, r2
    a514:	e2802001 	add	r2, r0, #1	; 0x1
    a518:	e5cc2000 	strb	r2, [ip]
    a51c:	e5ce3000 	strb	r3, [lr]
    a520:	e7c51000 	strb	r1, [r5, r0]
    a524:	e5d43000 	ldrb	r3, [r4]
    a528:	e5dc0000 	ldrb	r0, [ip]
    a52c:	e5de1000 	ldrb	r1, [lr]
    a530:	e35000ff 	cmp	r0, #255	; 0xff
    a534:	e0833001 	add	r3, r3, r1
    a538:	e5c43000 	strb	r3, [r4]
    a53c:	03a03000 	moveq	r3, #0	; 0x0
    a540:	01a00003 	moveq	r0, r3
    a544:	05cc3000 	streqb	r3, [ip]
    a548:	e2803001 	add	r3, r0, #1	; 0x1
    a54c:	e5cc3000 	strb	r3, [ip]
    a550:	e7c51000 	strb	r1, [r5, r0]
    a554:	e5dc0000 	ldrb	r0, [ip]
    a558:	e35000ff 	cmp	r0, #255	; 0xff
    a55c:	03a03000 	moveq	r3, #0	; 0x0
    a560:	01a00003 	moveq	r0, r3
    a564:	05cc3000 	streqb	r3, [ip]
    a568:	e2803001 	add	r3, r0, #1	; 0x1
    a56c:	e5cc3000 	strb	r3, [ip]
    a570:	e5dc2000 	ldrb	r2, [ip]
    a574:	e5d43000 	ldrb	r3, [r4]
    a578:	e35200ff 	cmp	r2, #255	; 0xff
    a57c:	e7c53000 	strb	r3, [r5, r0]
    a580:	03a03000 	moveq	r3, #0	; 0x0
    a584:	05cc3000 	streqb	r3, [ip]
    a588:	e3a0c059 	mov	ip, #89	; 0x59
    a58c:	e5dc3000 	ldrb	r3, [ip]
    a590:	e1a03223 	mov	r3, r3, lsr #4
    a594:	e213e001 	ands	lr, r3, #1	; 0x1
    a598:	18bd80f0 	ldmneia	sp!, {r4, r5, r6, r7, pc}
    a59c:	e5d70000 	ldrb	r0, [r7]
    a5a0:	e5d73000 	ldrb	r3, [r7]
    a5a4:	e2833001 	add	r3, r3, #1	; 0x1
    a5a8:	e5c73000 	strb	r3, [r7]
    a5ac:	e5d72000 	ldrb	r2, [r7]
    a5b0:	e7d51000 	ldrb	r1, [r5, r0]
    a5b4:	e35200ff 	cmp	r2, #255	; 0xff
    a5b8:	e59f3064 	ldr	r3, [pc, #100]	; a624 <.text+0x2624>
    a5bc:	e59f2064 	ldr	r2, [pc, #100]	; a628 <.text+0x2628>
    a5c0:	e5c31000 	strb	r1, [r3]
    a5c4:	e5c2e000 	strb	lr, [r2]
    a5c8:	05c7e000 	streqb	lr, [r7]
    a5cc:	e3a03058 	mov	r3, #88	; 0x58
    a5d0:	e5d32000 	ldrb	r2, [r3]
    a5d4:	e3822001 	orr	r2, r2, #1	; 0x1
    a5d8:	e5c32000 	strb	r2, [r3]
    a5dc:	e5dc1000 	ldrb	r1, [ip]
    a5e0:	e3811010 	orr	r1, r1, #16	; 0x10
    a5e4:	e5cc1000 	strb	r1, [ip]
    a5e8:	e8bd80f0 	ldmia	sp!, {r4, r5, r6, r7, pc}
    a5ec:	00013501 	andeq	r3, r1, r1, lsl #10
    a5f0:	000135b6 	streqh	r3, [r1], -r6
    a5f4:	cccccccd 	stcgtl	12, cr12, [ip], {205}
    a5f8:	000139f6 	streqd	r3, [r1], -r6
    a5fc:	000139f5 	streqd	r3, [r1], -r5
    a600:	000139f3 	streqd	r3, [r1], -r3
    a604:	000139f8 	streqd	r3, [r1], -r8
    a608:	000139f1 	streqd	r3, [r1], -r1
    a60c:	00013af7 	streqd	r3, [r1], -r7
    a610:	000139f2 	streqd	r3, [r1], -r2
    a614:	00013ba8 	andeq	r3, r1, r8, lsr #23
    a618:	000135a8 	andeq	r3, r1, r8, lsr #11
    a61c:	00013ba0 	andeq	r3, r1, r0, lsr #23
    a620:	00013b9e 	muleq	r1, lr, fp
    a624:	000139f4 	streqd	r3, [r1], -r4
    a628:	000139f7 	streqd	r3, [r1], -r7

0000a62c <send_climb>:
    a62c:	e92d41f0 	stmdb	sp!, {r4, r5, r6, r7, r8, lr}
    a630:	e59f34c4 	ldr	r3, [pc, #1220]	; aafc <.text+0x2afc>
    a634:	e5d32000 	ldrb	r2, [r3]
    a638:	e3520000 	cmp	r2, #0	; 0x0
    a63c:	18bd81f0 	ldmneia	sp!, {r4, r5, r6, r7, r8, pc}
    a640:	e59f34b8 	ldr	r3, [pc, #1208]	; ab00 <.text+0x2b00>
    a644:	e59f14b8 	ldr	r1, [pc, #1208]	; ab04 <.text+0x2b04>
    a648:	e5d32000 	ldrb	r2, [r3]
    a64c:	e0830291 	umull	r0, r3, r1, r2
    a650:	e1a03223 	mov	r3, r3, lsr #4
    a654:	e0833103 	add	r3, r3, r3, lsl #2
    a658:	e0422103 	sub	r2, r2, r3, lsl #2
    a65c:	e20220ff 	and	r2, r2, #255	; 0xff
    a660:	e3520012 	cmp	r2, #18	; 0x12
    a664:	18bd81f0 	ldmneia	sp!, {r4, r5, r6, r7, r8, pc}
    a668:	e59f8498 	ldr	r8, [pc, #1176]	; ab08 <.text+0x2b08>
    a66c:	e59f1498 	ldr	r1, [pc, #1176]	; ab0c <.text+0x2b0c>
    a670:	e5d83000 	ldrb	r3, [r8]
    a674:	e5d12000 	ldrb	r2, [r1]
    a678:	e1520003 	cmp	r2, r3
    a67c:	25d83000 	ldrcsb	r3, [r8]
    a680:	35d83000 	ldrccb	r3, [r8]
    a684:	20633002 	rsbcs	r3, r3, r2
    a688:	30623003 	rsbcc	r3, r2, r3
    a68c:	226330ff 	rsbcs	r3, r3, #255	; 0xff
    a690:	e3530012 	cmp	r3, #18	; 0x12
    a694:	d59f2474 	ldrle	r2, [pc, #1140]	; ab10 <.text+0x2b10>
    a698:	d5d23000 	ldrleb	r3, [r2]
    a69c:	d2833001 	addle	r3, r3, #1	; 0x1
    a6a0:	d5c23000 	strleb	r3, [r2]
    a6a4:	d8bd81f0 	ldmleia	sp!, {r4, r5, r6, r7, r8, pc}
    a6a8:	e5d13000 	ldrb	r3, [r1]
    a6ac:	e2832001 	add	r2, r3, #1	; 0x1
    a6b0:	e5c12000 	strb	r2, [r1]
    a6b4:	e5d10000 	ldrb	r0, [r1]
    a6b8:	e59f6454 	ldr	r6, [pc, #1108]	; ab14 <.text+0x2b14>
    a6bc:	e35000ff 	cmp	r0, #255	; 0xff
    a6c0:	e3a02005 	mov	r2, #5	; 0x5
    a6c4:	e7c62003 	strb	r2, [r6, r3]
    a6c8:	03a03000 	moveq	r3, #0	; 0x0
    a6cc:	e59fc438 	ldr	ip, [pc, #1080]	; ab0c <.text+0x2b0c>
    a6d0:	01a00003 	moveq	r0, r3
    a6d4:	05c13000 	streqb	r3, [r1]
    a6d8:	e2803001 	add	r3, r0, #1	; 0x1
    a6dc:	e5cc3000 	strb	r3, [ip]
    a6e0:	e3a0200e 	mov	r2, #14	; 0xe
    a6e4:	e7c62000 	strb	r2, [r6, r0]
    a6e8:	e5dc0000 	ldrb	r0, [ip]
    a6ec:	e35000ff 	cmp	r0, #255	; 0xff
    a6f0:	03a03000 	moveq	r3, #0	; 0x0
    a6f4:	05cc3000 	streqb	r3, [ip]
    a6f8:	e59f7418 	ldr	r7, [pc, #1048]	; ab18 <.text+0x2b18>
    a6fc:	e5d71000 	ldrb	r1, [r7]
    a700:	e59f4414 	ldr	r4, [pc, #1044]	; ab1c <.text+0x2b1c>
    a704:	01a00003 	moveq	r0, r3
    a708:	e2802001 	add	r2, r0, #1	; 0x1
    a70c:	e281300e 	add	r3, r1, #14	; 0xe
    a710:	e5cc2000 	strb	r2, [ip]
    a714:	e5c43000 	strb	r3, [r4]
    a718:	e7c61000 	strb	r1, [r6, r0]
    a71c:	e5d4e000 	ldrb	lr, [r4]
    a720:	e5dc0000 	ldrb	r0, [ip]
    a724:	e59f53f4 	ldr	r5, [pc, #1012]	; ab20 <.text+0x2b20>
    a728:	e28e300e 	add	r3, lr, #14	; 0xe
    a72c:	e35000ff 	cmp	r0, #255	; 0xff
    a730:	e5c53000 	strb	r3, [r5]
    a734:	03a03000 	moveq	r3, #0	; 0x0
    a738:	05cc3000 	streqb	r3, [ip]
    a73c:	e5d71001 	ldrb	r1, [r7, #1]
    a740:	01a00003 	moveq	r0, r3
    a744:	e2802001 	add	r2, r0, #1	; 0x1
    a748:	e081300e 	add	r3, r1, lr
    a74c:	e5cc2000 	strb	r2, [ip]
    a750:	e5c43000 	strb	r3, [r4]
    a754:	e7c61000 	strb	r1, [r6, r0]
    a758:	e5d4e000 	ldrb	lr, [r4]
    a75c:	e5dc0000 	ldrb	r0, [ip]
    a760:	e5d53000 	ldrb	r3, [r5]
    a764:	e35000ff 	cmp	r0, #255	; 0xff
    a768:	e083300e 	add	r3, r3, lr
    a76c:	e5c53000 	strb	r3, [r5]
    a770:	03a03000 	moveq	r3, #0	; 0x0
    a774:	05cc3000 	streqb	r3, [ip]
    a778:	e59f73a4 	ldr	r7, [pc, #932]	; ab24 <.text+0x2b24>
    a77c:	e5d71000 	ldrb	r1, [r7]
    a780:	01a00003 	moveq	r0, r3
    a784:	e2802001 	add	r2, r0, #1	; 0x1
    a788:	e081300e 	add	r3, r1, lr
    a78c:	e5cc2000 	strb	r2, [ip]
    a790:	e5c43000 	strb	r3, [r4]
    a794:	e7c61000 	strb	r1, [r6, r0]
    a798:	e5d4e000 	ldrb	lr, [r4]
    a79c:	e5dc0000 	ldrb	r0, [ip]
    a7a0:	e5d53000 	ldrb	r3, [r5]
    a7a4:	e35000ff 	cmp	r0, #255	; 0xff
    a7a8:	e083300e 	add	r3, r3, lr
    a7ac:	e5c53000 	strb	r3, [r5]
    a7b0:	03a03000 	moveq	r3, #0	; 0x0
    a7b4:	05cc3000 	streqb	r3, [ip]
    a7b8:	e5d71001 	ldrb	r1, [r7, #1]
    a7bc:	01a00003 	moveq	r0, r3
    a7c0:	e2802001 	add	r2, r0, #1	; 0x1
    a7c4:	e081300e 	add	r3, r1, lr
    a7c8:	e5cc2000 	strb	r2, [ip]
    a7cc:	e5c43000 	strb	r3, [r4]
    a7d0:	e7c61000 	strb	r1, [r6, r0]
    a7d4:	e5d4e000 	ldrb	lr, [r4]
    a7d8:	e5dc0000 	ldrb	r0, [ip]
    a7dc:	e5d53000 	ldrb	r3, [r5]
    a7e0:	e35000ff 	cmp	r0, #255	; 0xff
    a7e4:	e083300e 	add	r3, r3, lr
    a7e8:	e5c53000 	strb	r3, [r5]
    a7ec:	03a03000 	moveq	r3, #0	; 0x0
    a7f0:	05cc3000 	streqb	r3, [ip]
    a7f4:	e5d71002 	ldrb	r1, [r7, #2]
    a7f8:	01a00003 	moveq	r0, r3
    a7fc:	e2802001 	add	r2, r0, #1	; 0x1
    a800:	e081300e 	add	r3, r1, lr
    a804:	e5cc2000 	strb	r2, [ip]
    a808:	e5c43000 	strb	r3, [r4]
    a80c:	e7c61000 	strb	r1, [r6, r0]
    a810:	e5d4e000 	ldrb	lr, [r4]
    a814:	e5dc0000 	ldrb	r0, [ip]
    a818:	e5d53000 	ldrb	r3, [r5]
    a81c:	e35000ff 	cmp	r0, #255	; 0xff
    a820:	e083300e 	add	r3, r3, lr
    a824:	e5c53000 	strb	r3, [r5]
    a828:	03a03000 	moveq	r3, #0	; 0x0
    a82c:	05cc3000 	streqb	r3, [ip]
    a830:	e5d71003 	ldrb	r1, [r7, #3]
    a834:	01a00003 	moveq	r0, r3
    a838:	e2802001 	add	r2, r0, #1	; 0x1
    a83c:	e081300e 	add	r3, r1, lr
    a840:	e5cc2000 	strb	r2, [ip]
    a844:	e5c43000 	strb	r3, [r4]
    a848:	e7c61000 	strb	r1, [r6, r0]
    a84c:	e5d4e000 	ldrb	lr, [r4]
    a850:	e5dc0000 	ldrb	r0, [ip]
    a854:	e5d53000 	ldrb	r3, [r5]
    a858:	e35000ff 	cmp	r0, #255	; 0xff
    a85c:	e083300e 	add	r3, r3, lr
    a860:	e5c53000 	strb	r3, [r5]
    a864:	03a03000 	moveq	r3, #0	; 0x0
    a868:	05cc3000 	streqb	r3, [ip]
    a86c:	e59f72b4 	ldr	r7, [pc, #692]	; ab28 <.text+0x2b28>
    a870:	e5d71000 	ldrb	r1, [r7]
    a874:	01a00003 	moveq	r0, r3
    a878:	e2802001 	add	r2, r0, #1	; 0x1
    a87c:	e081300e 	add	r3, r1, lr
    a880:	e5cc2000 	strb	r2, [ip]
    a884:	e5c43000 	strb	r3, [r4]
    a888:	e7c61000 	strb	r1, [r6, r0]
    a88c:	e5d4e000 	ldrb	lr, [r4]
    a890:	e5dc0000 	ldrb	r0, [ip]
    a894:	e5d53000 	ldrb	r3, [r5]
    a898:	e35000ff 	cmp	r0, #255	; 0xff
    a89c:	e083300e 	add	r3, r3, lr
    a8a0:	e5c53000 	strb	r3, [r5]
    a8a4:	03a03000 	moveq	r3, #0	; 0x0
    a8a8:	05cc3000 	streqb	r3, [ip]
    a8ac:	e5d71001 	ldrb	r1, [r7, #1]
    a8b0:	01a00003 	moveq	r0, r3
    a8b4:	e2802001 	add	r2, r0, #1	; 0x1
    a8b8:	e081300e 	add	r3, r1, lr
    a8bc:	e5cc2000 	strb	r2, [ip]
    a8c0:	e5c43000 	strb	r3, [r4]
    a8c4:	e7c61000 	strb	r1, [r6, r0]
    a8c8:	e5d4e000 	ldrb	lr, [r4]
    a8cc:	e5dc0000 	ldrb	r0, [ip]
    a8d0:	e5d53000 	ldrb	r3, [r5]
    a8d4:	e35000ff 	cmp	r0, #255	; 0xff
    a8d8:	e083300e 	add	r3, r3, lr
    a8dc:	e5c53000 	strb	r3, [r5]
    a8e0:	03a03000 	moveq	r3, #0	; 0x0
    a8e4:	05cc3000 	streqb	r3, [ip]
    a8e8:	e5d71002 	ldrb	r1, [r7, #2]
    a8ec:	01a00003 	moveq	r0, r3
    a8f0:	e2802001 	add	r2, r0, #1	; 0x1
    a8f4:	e081300e 	add	r3, r1, lr
    a8f8:	e5cc2000 	strb	r2, [ip]
    a8fc:	e5c43000 	strb	r3, [r4]
    a900:	e7c61000 	strb	r1, [r6, r0]
    a904:	e5d4e000 	ldrb	lr, [r4]
    a908:	e5dc0000 	ldrb	r0, [ip]
    a90c:	e5d53000 	ldrb	r3, [r5]
    a910:	e35000ff 	cmp	r0, #255	; 0xff
    a914:	e083300e 	add	r3, r3, lr
    a918:	e5c53000 	strb	r3, [r5]
    a91c:	03a03000 	moveq	r3, #0	; 0x0
    a920:	05cc3000 	streqb	r3, [ip]
    a924:	e5d71003 	ldrb	r1, [r7, #3]
    a928:	01a00003 	moveq	r0, r3
    a92c:	e2802001 	add	r2, r0, #1	; 0x1
    a930:	e081300e 	add	r3, r1, lr
    a934:	e5cc2000 	strb	r2, [ip]
    a938:	e5c43000 	strb	r3, [r4]
    a93c:	e7c61000 	strb	r1, [r6, r0]
    a940:	e5d4e000 	ldrb	lr, [r4]
    a944:	e5dc0000 	ldrb	r0, [ip]
    a948:	e5d53000 	ldrb	r3, [r5]
    a94c:	e35000ff 	cmp	r0, #255	; 0xff
    a950:	e083300e 	add	r3, r3, lr
    a954:	e5c53000 	strb	r3, [r5]
    a958:	03a03000 	moveq	r3, #0	; 0x0
    a95c:	05cc3000 	streqb	r3, [ip]
    a960:	e59f71c4 	ldr	r7, [pc, #452]	; ab2c <.text+0x2b2c>
    a964:	e5d71000 	ldrb	r1, [r7]
    a968:	01a00003 	moveq	r0, r3
    a96c:	e2802001 	add	r2, r0, #1	; 0x1
    a970:	e081300e 	add	r3, r1, lr
    a974:	e5cc2000 	strb	r2, [ip]
    a978:	e5c43000 	strb	r3, [r4]
    a97c:	e7c61000 	strb	r1, [r6, r0]
    a980:	e5d4e000 	ldrb	lr, [r4]
    a984:	e5dc0000 	ldrb	r0, [ip]
    a988:	e5d53000 	ldrb	r3, [r5]
    a98c:	e35000ff 	cmp	r0, #255	; 0xff
    a990:	e083300e 	add	r3, r3, lr
    a994:	e5c53000 	strb	r3, [r5]
    a998:	03a03000 	moveq	r3, #0	; 0x0
    a99c:	05cc3000 	streqb	r3, [ip]
    a9a0:	e5d71001 	ldrb	r1, [r7, #1]
    a9a4:	01a00003 	moveq	r0, r3
    a9a8:	e2802001 	add	r2, r0, #1	; 0x1
    a9ac:	e081300e 	add	r3, r1, lr
    a9b0:	e5cc2000 	strb	r2, [ip]
    a9b4:	e5c43000 	strb	r3, [r4]
    a9b8:	e7c61000 	strb	r1, [r6, r0]
    a9bc:	e5d4e000 	ldrb	lr, [r4]
    a9c0:	e5dc0000 	ldrb	r0, [ip]
    a9c4:	e5d53000 	ldrb	r3, [r5]
    a9c8:	e35000ff 	cmp	r0, #255	; 0xff
    a9cc:	e083300e 	add	r3, r3, lr
    a9d0:	e5c53000 	strb	r3, [r5]
    a9d4:	03a03000 	moveq	r3, #0	; 0x0
    a9d8:	05cc3000 	streqb	r3, [ip]
    a9dc:	e5d71002 	ldrb	r1, [r7, #2]
    a9e0:	01a00003 	moveq	r0, r3
    a9e4:	e2802001 	add	r2, r0, #1	; 0x1
    a9e8:	e081300e 	add	r3, r1, lr
    a9ec:	e5cc2000 	strb	r2, [ip]
    a9f0:	e5c43000 	strb	r3, [r4]
    a9f4:	e7c61000 	strb	r1, [r6, r0]
    a9f8:	e5d4e000 	ldrb	lr, [r4]
    a9fc:	e5dc0000 	ldrb	r0, [ip]
    aa00:	e5d53000 	ldrb	r3, [r5]
    aa04:	e35000ff 	cmp	r0, #255	; 0xff
    aa08:	e083300e 	add	r3, r3, lr
    aa0c:	e5c53000 	strb	r3, [r5]
    aa10:	03a03000 	moveq	r3, #0	; 0x0
    aa14:	05cc3000 	streqb	r3, [ip]
    aa18:	e5d71003 	ldrb	r1, [r7, #3]
    aa1c:	01a00003 	moveq	r0, r3
    aa20:	e2802001 	add	r2, r0, #1	; 0x1
    aa24:	e081300e 	add	r3, r1, lr
    aa28:	e5cc2000 	strb	r2, [ip]
    aa2c:	e5c43000 	strb	r3, [r4]
    aa30:	e7c61000 	strb	r1, [r6, r0]
    aa34:	e5d53000 	ldrb	r3, [r5]
    aa38:	e5dc0000 	ldrb	r0, [ip]
    aa3c:	e5d41000 	ldrb	r1, [r4]
    aa40:	e35000ff 	cmp	r0, #255	; 0xff
    aa44:	e0833001 	add	r3, r3, r1
    aa48:	e5c53000 	strb	r3, [r5]
    aa4c:	03a03000 	moveq	r3, #0	; 0x0
    aa50:	01a00003 	moveq	r0, r3
    aa54:	05cc3000 	streqb	r3, [ip]
    aa58:	e2803001 	add	r3, r0, #1	; 0x1
    aa5c:	e5cc3000 	strb	r3, [ip]
    aa60:	e7c61000 	strb	r1, [r6, r0]
    aa64:	e5dc0000 	ldrb	r0, [ip]
    aa68:	e35000ff 	cmp	r0, #255	; 0xff
    aa6c:	03a03000 	moveq	r3, #0	; 0x0
    aa70:	01a00003 	moveq	r0, r3
    aa74:	05cc3000 	streqb	r3, [ip]
    aa78:	e2803001 	add	r3, r0, #1	; 0x1
    aa7c:	e5cc3000 	strb	r3, [ip]
    aa80:	e5dc2000 	ldrb	r2, [ip]
    aa84:	e5d53000 	ldrb	r3, [r5]
    aa88:	e35200ff 	cmp	r2, #255	; 0xff
    aa8c:	e7c63000 	strb	r3, [r6, r0]
    aa90:	03a03000 	moveq	r3, #0	; 0x0
    aa94:	05cc3000 	streqb	r3, [ip]
    aa98:	e3a0c059 	mov	ip, #89	; 0x59
    aa9c:	e5dc3000 	ldrb	r3, [ip]
    aaa0:	e1a03223 	mov	r3, r3, lsr #4
    aaa4:	e213e001 	ands	lr, r3, #1	; 0x1
    aaa8:	18bd81f0 	ldmneia	sp!, {r4, r5, r6, r7, r8, pc}
    aaac:	e5d80000 	ldrb	r0, [r8]
    aab0:	e5d83000 	ldrb	r3, [r8]
    aab4:	e2833001 	add	r3, r3, #1	; 0x1
    aab8:	e5c83000 	strb	r3, [r8]
    aabc:	e5d82000 	ldrb	r2, [r8]
    aac0:	e7d61000 	ldrb	r1, [r6, r0]
    aac4:	e35200ff 	cmp	r2, #255	; 0xff
    aac8:	e59f3060 	ldr	r3, [pc, #96]	; ab30 <.text+0x2b30>
    aacc:	e59f2060 	ldr	r2, [pc, #96]	; ab34 <.text+0x2b34>
    aad0:	e5c31000 	strb	r1, [r3]
    aad4:	e5c2e000 	strb	lr, [r2]
    aad8:	05c8e000 	streqb	lr, [r8]
    aadc:	e3a03058 	mov	r3, #88	; 0x58
    aae0:	e5d32000 	ldrb	r2, [r3]
    aae4:	e3822001 	orr	r2, r2, #1	; 0x1
    aae8:	e5c32000 	strb	r2, [r3]
    aaec:	e5dc1000 	ldrb	r1, [ip]
    aaf0:	e3811010 	orr	r1, r1, #16	; 0x10
    aaf4:	e5cc1000 	strb	r1, [ip]
    aaf8:	e8bd81f0 	ldmia	sp!, {r4, r5, r6, r7, r8, pc}
    aafc:	00013501 	andeq	r3, r1, r1, lsl #10
    ab00:	000135b6 	streqh	r3, [r1], -r6
    ab04:	cccccccd 	stcgtl	12, cr12, [ip], {205}
    ab08:	000139f6 	streqd	r3, [r1], -r6
    ab0c:	000139f5 	streqd	r3, [r1], -r5
    ab10:	000139f3 	streqd	r3, [r1], -r3
    ab14:	000139f8 	streqd	r3, [r1], -r8
    ab18:	00013b70 	andeq	r3, r1, r0, ror fp
    ab1c:	00013af7 	streqd	r3, [r1], -r7
    ab20:	000139f2 	streqd	r3, [r1], -r2
    ab24:	00013778 	andeq	r3, r1, r8, ror r7
    ab28:	00013770 	andeq	r3, r1, r0, ror r7
    ab2c:	000133d8 	ldreqd	r3, [r1], -r8
    ab30:	000139f4 	streqd	r3, [r1], -r4
    ab34:	000139f7 	streqd	r3, [r1], -r7

0000ab38 <send_mode>:
    ab38:	e92d4070 	stmdb	sp!, {r4, r5, r6, lr}
    ab3c:	e59f32b0 	ldr	r3, [pc, #688]	; adf4 <.text+0x2df4>
    ab40:	e5d32000 	ldrb	r2, [r3]
    ab44:	e3520000 	cmp	r2, #0	; 0x0
    ab48:	18bd8070 	ldmneia	sp!, {r4, r5, r6, pc}
    ab4c:	e59f32a4 	ldr	r3, [pc, #676]	; adf8 <.text+0x2df8>
    ab50:	e59f22a4 	ldr	r2, [pc, #676]	; adfc <.text+0x2dfc>
    ab54:	e5d31000 	ldrb	r1, [r3]
    ab58:	e0830192 	umull	r0, r3, r2, r1
    ab5c:	e1a03223 	mov	r3, r3, lsr #4
    ab60:	e0833103 	add	r3, r3, r3, lsl #2
    ab64:	e0833103 	add	r3, r3, r3, lsl #2
    ab68:	e0411083 	sub	r1, r1, r3, lsl #1
    ab6c:	e20110ff 	and	r1, r1, #255	; 0xff
    ab70:	e3510009 	cmp	r1, #9	; 0x9
    ab74:	18bd8070 	ldmneia	sp!, {r4, r5, r6, pc}
    ab78:	e59f6280 	ldr	r6, [pc, #640]	; ae00 <.text+0x2e00>
    ab7c:	e59f1280 	ldr	r1, [pc, #640]	; ae04 <.text+0x2e04>
    ab80:	e5d63000 	ldrb	r3, [r6]
    ab84:	e5d12000 	ldrb	r2, [r1]
    ab88:	e1520003 	cmp	r2, r3
    ab8c:	25d63000 	ldrcsb	r3, [r6]
    ab90:	35d63000 	ldrccb	r3, [r6]
    ab94:	20633002 	rsbcs	r3, r3, r2
    ab98:	30623003 	rsbcc	r3, r2, r3
    ab9c:	226330ff 	rsbcs	r3, r3, #255	; 0xff
    aba0:	e3530009 	cmp	r3, #9	; 0x9
    aba4:	d59f225c 	ldrle	r2, [pc, #604]	; ae08 <.text+0x2e08>
    aba8:	d5d23000 	ldrleb	r3, [r2]
    abac:	d2833001 	addle	r3, r3, #1	; 0x1
    abb0:	d5c23000 	strleb	r3, [r2]
    abb4:	d8bd8070 	ldmleia	sp!, {r4, r5, r6, pc}
    abb8:	e5d13000 	ldrb	r3, [r1]
    abbc:	e2832001 	add	r2, r3, #1	; 0x1
    abc0:	e5c12000 	strb	r2, [r1]
    abc4:	e5d10000 	ldrb	r0, [r1]
    abc8:	e59f523c 	ldr	r5, [pc, #572]	; ae0c <.text+0x2e0c>
    abcc:	e35000ff 	cmp	r0, #255	; 0xff
    abd0:	e3a02005 	mov	r2, #5	; 0x5
    abd4:	e7c52003 	strb	r2, [r5, r3]
    abd8:	03a03000 	moveq	r3, #0	; 0x0
    abdc:	e59fc220 	ldr	ip, [pc, #544]	; ae04 <.text+0x2e04>
    abe0:	01a00003 	moveq	r0, r3
    abe4:	05c13000 	streqb	r3, [r1]
    abe8:	e2803001 	add	r3, r0, #1	; 0x1
    abec:	e5cc3000 	strb	r3, [ip]
    abf0:	e3a0200b 	mov	r2, #11	; 0xb
    abf4:	e7c52000 	strb	r2, [r5, r0]
    abf8:	e5dc0000 	ldrb	r0, [ip]
    abfc:	e35000ff 	cmp	r0, #255	; 0xff
    ac00:	03a03000 	moveq	r3, #0	; 0x0
    ac04:	05cc3000 	streqb	r3, [ip]
    ac08:	01a00003 	moveq	r0, r3
    ac0c:	e59f31fc 	ldr	r3, [pc, #508]	; ae10 <.text+0x2e10>
    ac10:	e5d31000 	ldrb	r1, [r3]
    ac14:	e59fe1f8 	ldr	lr, [pc, #504]	; ae14 <.text+0x2e14>
    ac18:	e2802001 	add	r2, r0, #1	; 0x1
    ac1c:	e281300b 	add	r3, r1, #11	; 0xb
    ac20:	e5cc2000 	strb	r2, [ip]
    ac24:	e5ce3000 	strb	r3, [lr]
    ac28:	e7c51000 	strb	r1, [r5, r0]
    ac2c:	e5de2000 	ldrb	r2, [lr]
    ac30:	e5dc0000 	ldrb	r0, [ip]
    ac34:	e59f41dc 	ldr	r4, [pc, #476]	; ae18 <.text+0x2e18>
    ac38:	e282300b 	add	r3, r2, #11	; 0xb
    ac3c:	e35000ff 	cmp	r0, #255	; 0xff
    ac40:	e5c43000 	strb	r3, [r4]
    ac44:	03a03000 	moveq	r3, #0	; 0x0
    ac48:	05cc3000 	streqb	r3, [ip]
    ac4c:	01a00003 	moveq	r0, r3
    ac50:	e59f31c4 	ldr	r3, [pc, #452]	; ae1c <.text+0x2e1c>
    ac54:	e5d31000 	ldrb	r1, [r3]
    ac58:	e2803001 	add	r3, r0, #1	; 0x1
    ac5c:	e0822001 	add	r2, r2, r1
    ac60:	e5cc3000 	strb	r3, [ip]
    ac64:	e5ce2000 	strb	r2, [lr]
    ac68:	e7c51000 	strb	r1, [r5, r0]
    ac6c:	e5de2000 	ldrb	r2, [lr]
    ac70:	e5dc0000 	ldrb	r0, [ip]
    ac74:	e5d43000 	ldrb	r3, [r4]
    ac78:	e35000ff 	cmp	r0, #255	; 0xff
    ac7c:	e0833002 	add	r3, r3, r2
    ac80:	e5c43000 	strb	r3, [r4]
    ac84:	03a03000 	moveq	r3, #0	; 0x0
    ac88:	05cc3000 	streqb	r3, [ip]
    ac8c:	01a00003 	moveq	r0, r3
    ac90:	e59f3188 	ldr	r3, [pc, #392]	; ae20 <.text+0x2e20>
    ac94:	e5d31000 	ldrb	r1, [r3]
    ac98:	e2803001 	add	r3, r0, #1	; 0x1
    ac9c:	e0822001 	add	r2, r2, r1
    aca0:	e5cc3000 	strb	r3, [ip]
    aca4:	e5ce2000 	strb	r2, [lr]
    aca8:	e7c51000 	strb	r1, [r5, r0]
    acac:	e5de2000 	ldrb	r2, [lr]
    acb0:	e5dc0000 	ldrb	r0, [ip]
    acb4:	e5d43000 	ldrb	r3, [r4]
    acb8:	e35000ff 	cmp	r0, #255	; 0xff
    acbc:	e0833002 	add	r3, r3, r2
    acc0:	e5c43000 	strb	r3, [r4]
    acc4:	03a03000 	moveq	r3, #0	; 0x0
    acc8:	05cc3000 	streqb	r3, [ip]
    accc:	01a00003 	moveq	r0, r3
    acd0:	e59f314c 	ldr	r3, [pc, #332]	; ae24 <.text+0x2e24>
    acd4:	e5d31000 	ldrb	r1, [r3]
    acd8:	e2803001 	add	r3, r0, #1	; 0x1
    acdc:	e0822001 	add	r2, r2, r1
    ace0:	e5cc3000 	strb	r3, [ip]
    ace4:	e5ce2000 	strb	r2, [lr]
    ace8:	e7c51000 	strb	r1, [r5, r0]
    acec:	e5de2000 	ldrb	r2, [lr]
    acf0:	e5dc0000 	ldrb	r0, [ip]
    acf4:	e5d43000 	ldrb	r3, [r4]
    acf8:	e35000ff 	cmp	r0, #255	; 0xff
    acfc:	e0833002 	add	r3, r3, r2
    ad00:	e5c43000 	strb	r3, [r4]
    ad04:	03a03000 	moveq	r3, #0	; 0x0
    ad08:	05cc3000 	streqb	r3, [ip]
    ad0c:	01a00003 	moveq	r0, r3
    ad10:	e59f3110 	ldr	r3, [pc, #272]	; ae28 <.text+0x2e28>
    ad14:	e5d31000 	ldrb	r1, [r3]
    ad18:	e2803001 	add	r3, r0, #1	; 0x1
    ad1c:	e0822001 	add	r2, r2, r1
    ad20:	e5cc3000 	strb	r3, [ip]
    ad24:	e5ce2000 	strb	r2, [lr]
    ad28:	e7c51000 	strb	r1, [r5, r0]
    ad2c:	e5d43000 	ldrb	r3, [r4]
    ad30:	e5dc0000 	ldrb	r0, [ip]
    ad34:	e5de1000 	ldrb	r1, [lr]
    ad38:	e35000ff 	cmp	r0, #255	; 0xff
    ad3c:	e0833001 	add	r3, r3, r1
    ad40:	e5c43000 	strb	r3, [r4]
    ad44:	03a03000 	moveq	r3, #0	; 0x0
    ad48:	01a00003 	moveq	r0, r3
    ad4c:	05cc3000 	streqb	r3, [ip]
    ad50:	e2803001 	add	r3, r0, #1	; 0x1
    ad54:	e5cc3000 	strb	r3, [ip]
    ad58:	e7c51000 	strb	r1, [r5, r0]
    ad5c:	e5dc0000 	ldrb	r0, [ip]
    ad60:	e35000ff 	cmp	r0, #255	; 0xff
    ad64:	03a03000 	moveq	r3, #0	; 0x0
    ad68:	01a00003 	moveq	r0, r3
    ad6c:	05cc3000 	streqb	r3, [ip]
    ad70:	e2803001 	add	r3, r0, #1	; 0x1
    ad74:	e5cc3000 	strb	r3, [ip]
    ad78:	e5dc2000 	ldrb	r2, [ip]
    ad7c:	e5d43000 	ldrb	r3, [r4]
    ad80:	e35200ff 	cmp	r2, #255	; 0xff
    ad84:	e7c53000 	strb	r3, [r5, r0]
    ad88:	03a03000 	moveq	r3, #0	; 0x0
    ad8c:	05cc3000 	streqb	r3, [ip]
    ad90:	e3a0c059 	mov	ip, #89	; 0x59
    ad94:	e5dc3000 	ldrb	r3, [ip]
    ad98:	e1a03223 	mov	r3, r3, lsr #4
    ad9c:	e213e001 	ands	lr, r3, #1	; 0x1
    ada0:	18bd8070 	ldmneia	sp!, {r4, r5, r6, pc}
    ada4:	e5d60000 	ldrb	r0, [r6]
    ada8:	e5d63000 	ldrb	r3, [r6]
    adac:	e2833001 	add	r3, r3, #1	; 0x1
    adb0:	e5c63000 	strb	r3, [r6]
    adb4:	e5d62000 	ldrb	r2, [r6]
    adb8:	e7d51000 	ldrb	r1, [r5, r0]
    adbc:	e35200ff 	cmp	r2, #255	; 0xff
    adc0:	e59f3064 	ldr	r3, [pc, #100]	; ae2c <.text+0x2e2c>
    adc4:	e59f2064 	ldr	r2, [pc, #100]	; ae30 <.text+0x2e30>
    adc8:	e5c31000 	strb	r1, [r3]
    adcc:	e5c2e000 	strb	lr, [r2]
    add0:	05c6e000 	streqb	lr, [r6]
    add4:	e3a03058 	mov	r3, #88	; 0x58
    add8:	e5d32000 	ldrb	r2, [r3]
    addc:	e3822001 	orr	r2, r2, #1	; 0x1
    ade0:	e5c32000 	strb	r2, [r3]
    ade4:	e5dc1000 	ldrb	r1, [ip]
    ade8:	e3811010 	orr	r1, r1, #16	; 0x10
    adec:	e5cc1000 	strb	r1, [ip]
    adf0:	e8bd8070 	ldmia	sp!, {r4, r5, r6, pc}
    adf4:	00013501 	andeq	r3, r1, r1, lsl #10
    adf8:	000135b6 	streqh	r3, [r1], -r6
    adfc:	51eb851f 	mvnpl	r8, pc, lsl r5
    ae00:	000139f6 	streqd	r3, [r1], -r6
    ae04:	000139f5 	streqd	r3, [r1], -r5
    ae08:	000139f3 	streqd	r3, [r1], -r3
    ae0c:	000139f8 	streqd	r3, [r1], -r8
    ae10:	000135a4 	andeq	r3, r1, r4, lsr #11
    ae14:	00013af7 	streqd	r3, [r1], -r7
    ae18:	000139f2 	streqd	r3, [r1], -r2
    ae1c:	000135a3 	andeq	r3, r1, r3, lsr #11
    ae20:	000139d0 	ldreqd	r3, [r1], -r0
    ae24:	000135b4 	streqh	r3, [r1], -r4
    ae28:	00013500 	andeq	r3, r1, r0, lsl #10
    ae2c:	000139f4 	streqd	r3, [r1], -r4
    ae30:	000139f7 	streqd	r3, [r1], -r7

0000ae34 <send_debug>:
    ae34:	e92d4070 	stmdb	sp!, {r4, r5, r6, lr}
    ae38:	e59f32b0 	ldr	r3, [pc, #688]	; b0f0 <.text+0x30f0>
    ae3c:	e5d32000 	ldrb	r2, [r3]
    ae40:	e3520000 	cmp	r2, #0	; 0x0
    ae44:	18bd8070 	ldmneia	sp!, {r4, r5, r6, pc}
    ae48:	e59f32a4 	ldr	r3, [pc, #676]	; b0f4 <.text+0x30f4>
    ae4c:	e59f22a4 	ldr	r2, [pc, #676]	; b0f8 <.text+0x30f8>
    ae50:	e5d31000 	ldrb	r1, [r3]
    ae54:	e0830192 	umull	r0, r3, r2, r1
    ae58:	e1a03223 	mov	r3, r3, lsr #4
    ae5c:	e0833103 	add	r3, r3, r3, lsl #2
    ae60:	e0833103 	add	r3, r3, r3, lsl #2
    ae64:	e0411083 	sub	r1, r1, r3, lsl #1
    ae68:	e20110ff 	and	r1, r1, #255	; 0xff
    ae6c:	e351001d 	cmp	r1, #29	; 0x1d
    ae70:	18bd8070 	ldmneia	sp!, {r4, r5, r6, pc}
    ae74:	e59f6280 	ldr	r6, [pc, #640]	; b0fc <.text+0x30fc>
    ae78:	e59f1280 	ldr	r1, [pc, #640]	; b100 <.text+0x3100>
    ae7c:	e5d63000 	ldrb	r3, [r6]
    ae80:	e5d12000 	ldrb	r2, [r1]
    ae84:	e1520003 	cmp	r2, r3
    ae88:	25d63000 	ldrcsb	r3, [r6]
    ae8c:	35d63000 	ldrccb	r3, [r6]
    ae90:	20633002 	rsbcs	r3, r3, r2
    ae94:	30623003 	rsbcc	r3, r2, r3
    ae98:	226330ff 	rsbcs	r3, r3, #255	; 0xff
    ae9c:	e3530009 	cmp	r3, #9	; 0x9
    aea0:	d59f225c 	ldrle	r2, [pc, #604]	; b104 <.text+0x3104>
    aea4:	d5d23000 	ldrleb	r3, [r2]
    aea8:	d2833001 	addle	r3, r3, #1	; 0x1
    aeac:	d5c23000 	strleb	r3, [r2]
    aeb0:	d8bd8070 	ldmleia	sp!, {r4, r5, r6, pc}
    aeb4:	e5d13000 	ldrb	r3, [r1]
    aeb8:	e2832001 	add	r2, r3, #1	; 0x1
    aebc:	e5c12000 	strb	r2, [r1]
    aec0:	e5d10000 	ldrb	r0, [r1]
    aec4:	e59f523c 	ldr	r5, [pc, #572]	; b108 <.text+0x3108>
    aec8:	e35000ff 	cmp	r0, #255	; 0xff
    aecc:	e3a02005 	mov	r2, #5	; 0x5
    aed0:	e7c52003 	strb	r2, [r5, r3]
    aed4:	03a03000 	moveq	r3, #0	; 0x0
    aed8:	e59fc220 	ldr	ip, [pc, #544]	; b100 <.text+0x3100>
    aedc:	01a00003 	moveq	r0, r3
    aee0:	05c13000 	streqb	r3, [r1]
    aee4:	e2803001 	add	r3, r0, #1	; 0x1
    aee8:	e5cc3000 	strb	r3, [ip]
    aeec:	e3a0200d 	mov	r2, #13	; 0xd
    aef0:	e7c52000 	strb	r2, [r5, r0]
    aef4:	e5dc0000 	ldrb	r0, [ip]
    aef8:	e35000ff 	cmp	r0, #255	; 0xff
    aefc:	03a03000 	moveq	r3, #0	; 0x0
    af00:	05cc3000 	streqb	r3, [ip]
    af04:	01a00003 	moveq	r0, r3
    af08:	e59f31fc 	ldr	r3, [pc, #508]	; b10c <.text+0x310c>
    af0c:	e5d31000 	ldrb	r1, [r3]
    af10:	e59fe1f8 	ldr	lr, [pc, #504]	; b110 <.text+0x3110>
    af14:	e2802001 	add	r2, r0, #1	; 0x1
    af18:	e281300d 	add	r3, r1, #13	; 0xd
    af1c:	e5cc2000 	strb	r2, [ip]
    af20:	e5ce3000 	strb	r3, [lr]
    af24:	e7c51000 	strb	r1, [r5, r0]
    af28:	e5de2000 	ldrb	r2, [lr]
    af2c:	e5dc0000 	ldrb	r0, [ip]
    af30:	e59f41dc 	ldr	r4, [pc, #476]	; b114 <.text+0x3114>
    af34:	e282300d 	add	r3, r2, #13	; 0xd
    af38:	e35000ff 	cmp	r0, #255	; 0xff
    af3c:	e5c43000 	strb	r3, [r4]
    af40:	03a03000 	moveq	r3, #0	; 0x0
    af44:	05cc3000 	streqb	r3, [ip]
    af48:	01a00003 	moveq	r0, r3
    af4c:	e59f31c4 	ldr	r3, [pc, #452]	; b118 <.text+0x3118>
    af50:	e5d31000 	ldrb	r1, [r3]
    af54:	e2803001 	add	r3, r0, #1	; 0x1
    af58:	e0822001 	add	r2, r2, r1
    af5c:	e5cc3000 	strb	r3, [ip]
    af60:	e5ce2000 	strb	r2, [lr]
    af64:	e7c51000 	strb	r1, [r5, r0]
    af68:	e5de2000 	ldrb	r2, [lr]
    af6c:	e5dc0000 	ldrb	r0, [ip]
    af70:	e5d43000 	ldrb	r3, [r4]
    af74:	e35000ff 	cmp	r0, #255	; 0xff
    af78:	e0833002 	add	r3, r3, r2
    af7c:	e5c43000 	strb	r3, [r4]
    af80:	03a03000 	moveq	r3, #0	; 0x0
    af84:	05cc3000 	streqb	r3, [ip]
    af88:	01a00003 	moveq	r0, r3
    af8c:	e59f3170 	ldr	r3, [pc, #368]	; b104 <.text+0x3104>
    af90:	e5d31000 	ldrb	r1, [r3]
    af94:	e2803001 	add	r3, r0, #1	; 0x1
    af98:	e0822001 	add	r2, r2, r1
    af9c:	e5cc3000 	strb	r3, [ip]
    afa0:	e5ce2000 	strb	r2, [lr]
    afa4:	e7c51000 	strb	r1, [r5, r0]
    afa8:	e5de2000 	ldrb	r2, [lr]
    afac:	e5dc0000 	ldrb	r0, [ip]
    afb0:	e5d43000 	ldrb	r3, [r4]
    afb4:	e35000ff 	cmp	r0, #255	; 0xff
    afb8:	e0833002 	add	r3, r3, r2
    afbc:	e5c43000 	strb	r3, [r4]
    afc0:	03a03000 	moveq	r3, #0	; 0x0
    afc4:	05cc3000 	streqb	r3, [ip]
    afc8:	01a00003 	moveq	r0, r3
    afcc:	e59f3148 	ldr	r3, [pc, #328]	; b11c <.text+0x311c>
    afd0:	e5d31000 	ldrb	r1, [r3]
    afd4:	e2803001 	add	r3, r0, #1	; 0x1
    afd8:	e0822001 	add	r2, r2, r1
    afdc:	e5cc3000 	strb	r3, [ip]
    afe0:	e5ce2000 	strb	r2, [lr]
    afe4:	e7c51000 	strb	r1, [r5, r0]
    afe8:	e5de2000 	ldrb	r2, [lr]
    afec:	e5dc0000 	ldrb	r0, [ip]
    aff0:	e5d43000 	ldrb	r3, [r4]
    aff4:	e35000ff 	cmp	r0, #255	; 0xff
    aff8:	e0833002 	add	r3, r3, r2
    affc:	e5c43000 	strb	r3, [r4]
    b000:	03a03000 	moveq	r3, #0	; 0x0
    b004:	05cc3000 	streqb	r3, [ip]
    b008:	01a00003 	moveq	r0, r3
    b00c:	e59f310c 	ldr	r3, [pc, #268]	; b120 <.text+0x3120>
    b010:	e5d31000 	ldrb	r1, [r3]
    b014:	e2803001 	add	r3, r0, #1	; 0x1
    b018:	e0822001 	add	r2, r2, r1
    b01c:	e5cc3000 	strb	r3, [ip]
    b020:	e5ce2000 	strb	r2, [lr]
    b024:	e7c51000 	strb	r1, [r5, r0]
    b028:	e5d43000 	ldrb	r3, [r4]
    b02c:	e5dc0000 	ldrb	r0, [ip]
    b030:	e5de1000 	ldrb	r1, [lr]
    b034:	e35000ff 	cmp	r0, #255	; 0xff
    b038:	e0833001 	add	r3, r3, r1
    b03c:	e5c43000 	strb	r3, [r4]
    b040:	03a03000 	moveq	r3, #0	; 0x0
    b044:	01a00003 	moveq	r0, r3
    b048:	05cc3000 	streqb	r3, [ip]
    b04c:	e2803001 	add	r3, r0, #1	; 0x1
    b050:	e5cc3000 	strb	r3, [ip]
    b054:	e7c51000 	strb	r1, [r5, r0]
    b058:	e5dc0000 	ldrb	r0, [ip]
    b05c:	e35000ff 	cmp	r0, #255	; 0xff
    b060:	03a03000 	moveq	r3, #0	; 0x0
    b064:	01a00003 	moveq	r0, r3
    b068:	05cc3000 	streqb	r3, [ip]
    b06c:	e2803001 	add	r3, r0, #1	; 0x1
    b070:	e5cc3000 	strb	r3, [ip]
    b074:	e5dc2000 	ldrb	r2, [ip]
    b078:	e5d43000 	ldrb	r3, [r4]
    b07c:	e35200ff 	cmp	r2, #255	; 0xff
    b080:	e7c53000 	strb	r3, [r5, r0]
    b084:	03a03000 	moveq	r3, #0	; 0x0
    b088:	05cc3000 	streqb	r3, [ip]
    b08c:	e3a0c059 	mov	ip, #89	; 0x59
    b090:	e5dc3000 	ldrb	r3, [ip]
    b094:	e1a03223 	mov	r3, r3, lsr #4
    b098:	e213e001 	ands	lr, r3, #1	; 0x1
    b09c:	18bd8070 	ldmneia	sp!, {r4, r5, r6, pc}
    b0a0:	e5d60000 	ldrb	r0, [r6]
    b0a4:	e5d63000 	ldrb	r3, [r6]
    b0a8:	e2833001 	add	r3, r3, #1	; 0x1
    b0ac:	e5c63000 	strb	r3, [r6]
    b0b0:	e5d62000 	ldrb	r2, [r6]
    b0b4:	e7d51000 	ldrb	r1, [r5, r0]
    b0b8:	e35200ff 	cmp	r2, #255	; 0xff
    b0bc:	e59f3060 	ldr	r3, [pc, #96]	; b124 <.text+0x3124>
    b0c0:	e59f2060 	ldr	r2, [pc, #96]	; b128 <.text+0x3128>
    b0c4:	e5c31000 	strb	r1, [r3]
    b0c8:	e5c2e000 	strb	lr, [r2]
    b0cc:	05c6e000 	streqb	lr, [r6]
    b0d0:	e3a03058 	mov	r3, #88	; 0x58
    b0d4:	e5d32000 	ldrb	r2, [r3]
    b0d8:	e3822001 	orr	r2, r2, #1	; 0x1
    b0dc:	e5c32000 	strb	r2, [r3]
    b0e0:	e5dc1000 	ldrb	r1, [ip]
    b0e4:	e3811010 	orr	r1, r1, #16	; 0x10
    b0e8:	e5cc1000 	strb	r1, [ip]
    b0ec:	e8bd8070 	ldmia	sp!, {r4, r5, r6, pc}
    b0f0:	00013501 	andeq	r3, r1, r1, lsl #10
    b0f4:	000135b6 	streqh	r3, [r1], -r6
    b0f8:	51eb851f 	mvnpl	r8, pc, lsl r5
    b0fc:	000139f6 	streqd	r3, [r1], -r6
    b100:	000139f5 	streqd	r3, [r1], -r5
    b104:	000139f3 	streqd	r3, [r1], -r3
    b108:	000139f8 	streqd	r3, [r1], -r8
    b10c:	00013b29 	andeq	r3, r1, r9, lsr #22
    b110:	00013af7 	streqd	r3, [r1], -r7
    b114:	000139f2 	streqd	r3, [r1], -r2
    b118:	00013b28 	andeq	r3, r1, r8, lsr #22
    b11c:	00013b5c 	andeq	r3, r1, ip, asr fp
    b120:	000135b5 	streqh	r3, [r1], -r5
    b124:	000139f4 	streqd	r3, [r1], -r4
    b128:	000139f7 	streqd	r3, [r1], -r7

0000b12c <send_nav_ref>:
    b12c:	e92d40f0 	stmdb	sp!, {r4, r5, r6, r7, lr}
    b130:	e59f3358 	ldr	r3, [pc, #856]	; b490 <.text+0x3490>
    b134:	e5d32000 	ldrb	r2, [r3]
    b138:	e3520000 	cmp	r2, #0	; 0x0
    b13c:	18bd80f0 	ldmneia	sp!, {r4, r5, r6, r7, pc}
    b140:	e59f334c 	ldr	r3, [pc, #844]	; b494 <.text+0x3494>
    b144:	e59f234c 	ldr	r2, [pc, #844]	; b498 <.text+0x3498>
    b148:	e5d31000 	ldrb	r1, [r3]
    b14c:	e0830192 	umull	r0, r3, r2, r1
    b150:	e1a032a3 	mov	r3, r3, lsr #5
    b154:	e0833103 	add	r3, r3, r3, lsl #2
    b158:	e0833103 	add	r3, r3, r3, lsl #2
    b15c:	e0411103 	sub	r1, r1, r3, lsl #2
    b160:	e20110ff 	and	r1, r1, #255	; 0xff
    b164:	e3510031 	cmp	r1, #49	; 0x31
    b168:	18bd80f0 	ldmneia	sp!, {r4, r5, r6, r7, pc}
    b16c:	e59f7328 	ldr	r7, [pc, #808]	; b49c <.text+0x349c>
    b170:	e59f1328 	ldr	r1, [pc, #808]	; b4a0 <.text+0x34a0>
    b174:	e5d73000 	ldrb	r3, [r7]
    b178:	e5d12000 	ldrb	r2, [r1]
    b17c:	e1520003 	cmp	r2, r3
    b180:	25d73000 	ldrcsb	r3, [r7]
    b184:	35d73000 	ldrccb	r3, [r7]
    b188:	20633002 	rsbcs	r3, r3, r2
    b18c:	30623003 	rsbcc	r3, r2, r3
    b190:	226330ff 	rsbcs	r3, r3, #255	; 0xff
    b194:	e353000c 	cmp	r3, #12	; 0xc
    b198:	d59f2304 	ldrle	r2, [pc, #772]	; b4a4 <.text+0x34a4>
    b19c:	d5d23000 	ldrleb	r3, [r2]
    b1a0:	d2833001 	addle	r3, r3, #1	; 0x1
    b1a4:	d5c23000 	strleb	r3, [r2]
    b1a8:	d8bd80f0 	ldmleia	sp!, {r4, r5, r6, r7, pc}
    b1ac:	e5d13000 	ldrb	r3, [r1]
    b1b0:	e2832001 	add	r2, r3, #1	; 0x1
    b1b4:	e5c12000 	strb	r2, [r1]
    b1b8:	e5d10000 	ldrb	r0, [r1]
    b1bc:	e59f52e4 	ldr	r5, [pc, #740]	; b4a8 <.text+0x34a8>
    b1c0:	e35000ff 	cmp	r0, #255	; 0xff
    b1c4:	e3a02005 	mov	r2, #5	; 0x5
    b1c8:	e7c52003 	strb	r2, [r5, r3]
    b1cc:	03a03000 	moveq	r3, #0	; 0x0
    b1d0:	e59fc2c8 	ldr	ip, [pc, #712]	; b4a0 <.text+0x34a0>
    b1d4:	01a00003 	moveq	r0, r3
    b1d8:	05c13000 	streqb	r3, [r1]
    b1dc:	e2803001 	add	r3, r0, #1	; 0x1
    b1e0:	e5cc3000 	strb	r3, [ip]
    b1e4:	e3a02009 	mov	r2, #9	; 0x9
    b1e8:	e7c52000 	strb	r2, [r5, r0]
    b1ec:	e5dc0000 	ldrb	r0, [ip]
    b1f0:	e35000ff 	cmp	r0, #255	; 0xff
    b1f4:	03a03000 	moveq	r3, #0	; 0x0
    b1f8:	05cc3000 	streqb	r3, [ip]
    b1fc:	e59f62a8 	ldr	r6, [pc, #680]	; b4ac <.text+0x34ac>
    b200:	e5d61000 	ldrb	r1, [r6]
    b204:	e59fe2a4 	ldr	lr, [pc, #676]	; b4b0 <.text+0x34b0>
    b208:	01a00003 	moveq	r0, r3
    b20c:	e2802001 	add	r2, r0, #1	; 0x1
    b210:	e2813009 	add	r3, r1, #9	; 0x9
    b214:	e5cc2000 	strb	r2, [ip]
    b218:	e5ce3000 	strb	r3, [lr]
    b21c:	e7c51000 	strb	r1, [r5, r0]
    b220:	e5de2000 	ldrb	r2, [lr]
    b224:	e5dc0000 	ldrb	r0, [ip]
    b228:	e59f4284 	ldr	r4, [pc, #644]	; b4b4 <.text+0x34b4>
    b22c:	e2823009 	add	r3, r2, #9	; 0x9
    b230:	e35000ff 	cmp	r0, #255	; 0xff
    b234:	e5c43000 	strb	r3, [r4]
    b238:	03a03000 	moveq	r3, #0	; 0x0
    b23c:	05cc3000 	streqb	r3, [ip]
    b240:	e5d61001 	ldrb	r1, [r6, #1]
    b244:	01a00003 	moveq	r0, r3
    b248:	e0813002 	add	r3, r1, r2
    b24c:	e2802001 	add	r2, r0, #1	; 0x1
    b250:	e5cc2000 	strb	r2, [ip]
    b254:	e5ce3000 	strb	r3, [lr]
    b258:	e7c51000 	strb	r1, [r5, r0]
    b25c:	e5de2000 	ldrb	r2, [lr]
    b260:	e5dc0000 	ldrb	r0, [ip]
    b264:	e5d43000 	ldrb	r3, [r4]
    b268:	e35000ff 	cmp	r0, #255	; 0xff
    b26c:	e0833002 	add	r3, r3, r2
    b270:	e5c43000 	strb	r3, [r4]
    b274:	03a03000 	moveq	r3, #0	; 0x0
    b278:	05cc3000 	streqb	r3, [ip]
    b27c:	e5d61002 	ldrb	r1, [r6, #2]
    b280:	01a00003 	moveq	r0, r3
    b284:	e0813002 	add	r3, r1, r2
    b288:	e2802001 	add	r2, r0, #1	; 0x1
    b28c:	e5ce3000 	strb	r3, [lr]
    b290:	e5cc2000 	strb	r2, [ip]
    b294:	e7c51000 	strb	r1, [r5, r0]
    b298:	e5de2000 	ldrb	r2, [lr]
    b29c:	e5dc0000 	ldrb	r0, [ip]
    b2a0:	e5d43000 	ldrb	r3, [r4]
    b2a4:	e35000ff 	cmp	r0, #255	; 0xff
    b2a8:	e0833002 	add	r3, r3, r2
    b2ac:	e5c43000 	strb	r3, [r4]
    b2b0:	03a03000 	moveq	r3, #0	; 0x0
    b2b4:	05cc3000 	streqb	r3, [ip]
    b2b8:	e5d61003 	ldrb	r1, [r6, #3]
    b2bc:	01a00003 	moveq	r0, r3
    b2c0:	e0813002 	add	r3, r1, r2
    b2c4:	e2802001 	add	r2, r0, #1	; 0x1
    b2c8:	e5cc2000 	strb	r2, [ip]
    b2cc:	e5ce3000 	strb	r3, [lr]
    b2d0:	e7c51000 	strb	r1, [r5, r0]
    b2d4:	e5de2000 	ldrb	r2, [lr]
    b2d8:	e5dc0000 	ldrb	r0, [ip]
    b2dc:	e5d43000 	ldrb	r3, [r4]
    b2e0:	e35000ff 	cmp	r0, #255	; 0xff
    b2e4:	e0833002 	add	r3, r3, r2
    b2e8:	e5c43000 	strb	r3, [r4]
    b2ec:	03a03000 	moveq	r3, #0	; 0x0
    b2f0:	05cc3000 	streqb	r3, [ip]
    b2f4:	e59f61bc 	ldr	r6, [pc, #444]	; b4b8 <.text+0x34b8>
    b2f8:	e5d61000 	ldrb	r1, [r6]
    b2fc:	01a00003 	moveq	r0, r3
    b300:	e0813002 	add	r3, r1, r2
    b304:	e2802001 	add	r2, r0, #1	; 0x1
    b308:	e5cc2000 	strb	r2, [ip]
    b30c:	e5ce3000 	strb	r3, [lr]
    b310:	e7c51000 	strb	r1, [r5, r0]
    b314:	e5de2000 	ldrb	r2, [lr]
    b318:	e5dc0000 	ldrb	r0, [ip]
    b31c:	e5d43000 	ldrb	r3, [r4]
    b320:	e35000ff 	cmp	r0, #255	; 0xff
    b324:	e0833002 	add	r3, r3, r2
    b328:	e5c43000 	strb	r3, [r4]
    b32c:	03a03000 	moveq	r3, #0	; 0x0
    b330:	05cc3000 	streqb	r3, [ip]
    b334:	e5d61001 	ldrb	r1, [r6, #1]
    b338:	01a00003 	moveq	r0, r3
    b33c:	e0813002 	add	r3, r1, r2
    b340:	e2802001 	add	r2, r0, #1	; 0x1
    b344:	e5cc2000 	strb	r2, [ip]
    b348:	e5ce3000 	strb	r3, [lr]
    b34c:	e7c51000 	strb	r1, [r5, r0]
    b350:	e5de2000 	ldrb	r2, [lr]
    b354:	e5dc0000 	ldrb	r0, [ip]
    b358:	e5d43000 	ldrb	r3, [r4]
    b35c:	e35000ff 	cmp	r0, #255	; 0xff
    b360:	e0833002 	add	r3, r3, r2
    b364:	e5c43000 	strb	r3, [r4]
    b368:	03a03000 	moveq	r3, #0	; 0x0
    b36c:	05cc3000 	streqb	r3, [ip]
    b370:	e5d61002 	ldrb	r1, [r6, #2]
    b374:	01a00003 	moveq	r0, r3
    b378:	e0813002 	add	r3, r1, r2
    b37c:	e2802001 	add	r2, r0, #1	; 0x1
    b380:	e5ce3000 	strb	r3, [lr]
    b384:	e5cc2000 	strb	r2, [ip]
    b388:	e7c51000 	strb	r1, [r5, r0]
    b38c:	e5de2000 	ldrb	r2, [lr]
    b390:	e5dc0000 	ldrb	r0, [ip]
    b394:	e5d43000 	ldrb	r3, [r4]
    b398:	e35000ff 	cmp	r0, #255	; 0xff
    b39c:	e0833002 	add	r3, r3, r2
    b3a0:	e5c43000 	strb	r3, [r4]
    b3a4:	03a03000 	moveq	r3, #0	; 0x0
    b3a8:	05cc3000 	streqb	r3, [ip]
    b3ac:	e5d61003 	ldrb	r1, [r6, #3]
    b3b0:	01a00003 	moveq	r0, r3
    b3b4:	e0813002 	add	r3, r1, r2
    b3b8:	e2802001 	add	r2, r0, #1	; 0x1
    b3bc:	e5cc2000 	strb	r2, [ip]
    b3c0:	e5ce3000 	strb	r3, [lr]
    b3c4:	e7c51000 	strb	r1, [r5, r0]
    b3c8:	e5d43000 	ldrb	r3, [r4]
    b3cc:	e5dc0000 	ldrb	r0, [ip]
    b3d0:	e5de1000 	ldrb	r1, [lr]
    b3d4:	e35000ff 	cmp	r0, #255	; 0xff
    b3d8:	e0833001 	add	r3, r3, r1
    b3dc:	e5c43000 	strb	r3, [r4]
    b3e0:	03a03000 	moveq	r3, #0	; 0x0
    b3e4:	01a00003 	moveq	r0, r3
    b3e8:	05cc3000 	streqb	r3, [ip]
    b3ec:	e2803001 	add	r3, r0, #1	; 0x1
    b3f0:	e5cc3000 	strb	r3, [ip]
    b3f4:	e7c51000 	strb	r1, [r5, r0]
    b3f8:	e5dc0000 	ldrb	r0, [ip]
    b3fc:	e35000ff 	cmp	r0, #255	; 0xff
    b400:	03a03000 	moveq	r3, #0	; 0x0
    b404:	01a00003 	moveq	r0, r3
    b408:	05cc3000 	streqb	r3, [ip]
    b40c:	e2803001 	add	r3, r0, #1	; 0x1
    b410:	e5cc3000 	strb	r3, [ip]
    b414:	e5dc2000 	ldrb	r2, [ip]
    b418:	e5d43000 	ldrb	r3, [r4]
    b41c:	e35200ff 	cmp	r2, #255	; 0xff
    b420:	e7c53000 	strb	r3, [r5, r0]
    b424:	03a03000 	moveq	r3, #0	; 0x0
    b428:	05cc3000 	streqb	r3, [ip]
    b42c:	e3a0c059 	mov	ip, #89	; 0x59
    b430:	e5dc3000 	ldrb	r3, [ip]
    b434:	e1a03223 	mov	r3, r3, lsr #4
    b438:	e213e001 	ands	lr, r3, #1	; 0x1
    b43c:	18bd80f0 	ldmneia	sp!, {r4, r5, r6, r7, pc}
    b440:	e5d70000 	ldrb	r0, [r7]
    b444:	e5d73000 	ldrb	r3, [r7]
    b448:	e2833001 	add	r3, r3, #1	; 0x1
    b44c:	e5c73000 	strb	r3, [r7]
    b450:	e5d72000 	ldrb	r2, [r7]
    b454:	e7d51000 	ldrb	r1, [r5, r0]
    b458:	e35200ff 	cmp	r2, #255	; 0xff
    b45c:	e59f3058 	ldr	r3, [pc, #88]	; b4bc <.text+0x34bc>
    b460:	e59f2058 	ldr	r2, [pc, #88]	; b4c0 <.text+0x34c0>
    b464:	e5c31000 	strb	r1, [r3]
    b468:	e5c2e000 	strb	lr, [r2]
    b46c:	05c7e000 	streqb	lr, [r7]
    b470:	e3a03058 	mov	r3, #88	; 0x58
    b474:	e5d32000 	ldrb	r2, [r3]
    b478:	e3822001 	orr	r2, r2, #1	; 0x1
    b47c:	e5c32000 	strb	r2, [r3]
    b480:	e5dc1000 	ldrb	r1, [ip]
    b484:	e3811010 	orr	r1, r1, #16	; 0x10
    b488:	e5cc1000 	strb	r1, [ip]
    b48c:	e8bd80f0 	ldmia	sp!, {r4, r5, r6, r7, pc}
    b490:	00013501 	andeq	r3, r1, r1, lsl #10
    b494:	000135b6 	streqh	r3, [r1], -r6
    b498:	51eb851f 	mvnpl	r8, pc, lsl r5
    b49c:	000139f6 	streqd	r3, [r1], -r6
    b4a0:	000139f5 	streqd	r3, [r1], -r5
    b4a4:	000139f3 	streqd	r3, [r1], -r3
    b4a8:	000139f8 	streqd	r3, [r1], -r8
    b4ac:	000133d0 	ldreqd	r3, [r1], -r0
    b4b0:	00013af7 	streqd	r3, [r1], -r7
    b4b4:	000139f2 	streqd	r3, [r1], -r2
    b4b8:	000133cc 	andeq	r3, r1, ip, asr #7
    b4bc:	000139f4 	streqd	r3, [r1], -r4
    b4c0:	000139f7 	streqd	r3, [r1], -r7

0000b4c4 <inflight_calib_mode_update>:
    b4c4:	e59f3034 	ldr	r3, [pc, #52]	; b500 <.text+0x3500>
    b4c8:	e1d331f0 	ldrsh	r3, [r3, #16]
    b4cc:	e3730d4b 	cmn	r3, #4800	; 0x12c0
    b4d0:	b3a02002 	movlt	r2, #2	; 0x2
    b4d4:	ba000002 	blt	b4e4 <inflight_calib_mode_update+0x20>
    b4d8:	e3530d32 	cmp	r3, #3200	; 0xc80
    b4dc:	b3a02000 	movlt	r2, #0	; 0x0
    b4e0:	a3a02001 	movge	r2, #1	; 0x1
    b4e4:	e59f1018 	ldr	r1, [pc, #24]	; b504 <.text+0x3504>
    b4e8:	e5d13000 	ldrb	r3, [r1]
    b4ec:	e1530002 	cmp	r3, r2
    b4f0:	e3a00001 	mov	r0, #1	; 0x1
    b4f4:	03a00000 	moveq	r0, #0	; 0x0
    b4f8:	15c12000 	strneb	r2, [r1]
    b4fc:	e1a0f00e 	mov	pc, lr
    b500:	00013b10 	andeq	r3, r1, r0, lsl fp
    b504:	000139d0 	ldreqd	r3, [r1], -r0

0000b508 <radio_control_task>:
    b508:	e1a0c00d 	mov	ip, sp
    b50c:	e92ddff0 	stmdb	sp!, {r4, r5, r6, r7, r8, r9, sl, fp, ip, lr, pc}
    b510:	e59f35fc 	ldr	r3, [pc, #1532]	; bb14 <.text+0x3b14>
    b514:	e5d32000 	ldrb	r2, [r3]
    b518:	e3520000 	cmp	r2, #0	; 0x0
    b51c:	e24cb004 	sub	fp, ip, #4	; 0x4
    b520:	089daff0 	ldmeqia	sp, {r4, r5, r6, r7, r8, r9, sl, fp, sp, pc}
    b524:	e59f85ec 	ldr	r8, [pc, #1516]	; bb18 <.text+0x3b18>
    b528:	e59f35ec 	ldr	r3, [pc, #1516]	; bb1c <.text+0x3b1c>
    b52c:	e1d800b6 	ldrh	r0, [r8, #6]
    b530:	e3a05000 	mov	r5, #0	; 0x0
    b534:	e2881013 	add	r1, r8, #19	; 0x13
    b538:	e5c35013 	strb	r5, [r3, #19]
    b53c:	e1a02801 	mov	r2, r1, lsl #16
    b540:	e1c300b6 	strh	r0, [r3, #6]
    b544:	e1a02822 	mov	r2, r2, lsr #16
    b548:	e5d23000 	ldrb	r3, [r2]
    b54c:	e3130002 	tst	r3, #2	; 0x2
    b550:	059f95c8 	ldreq	r9, [pc, #1480]	; bb20 <.text+0x3b20>
    b554:	0a000003 	beq	b568 <radio_control_task+0x60>
    b558:	e59f95c0 	ldr	r9, [pc, #1472]	; bb20 <.text+0x3b20>
    b55c:	e5d93000 	ldrb	r3, [r9]
    b560:	e3530001 	cmp	r3, #1	; 0x1
    b564:	9a000131 	bls	ba30 <radio_control_task+0x528>
    b568:	e59f35b4 	ldr	r3, [pc, #1460]	; bb24 <.text+0x3b24>
    b56c:	e5d32000 	ldrb	r2, [r3]
    b570:	e3520000 	cmp	r2, #0	; 0x0
    b574:	1a00012d 	bne	ba30 <radio_control_task+0x528>
    b578:	e1a03801 	mov	r3, r1, lsl #16
    b57c:	e1a03823 	mov	r3, r3, lsr #16
    b580:	e5d32000 	ldrb	r2, [r3]
    b584:	e3120004 	tst	r2, #4	; 0x4
    b588:	059fa598 	ldreq	sl, [pc, #1432]	; bb28 <.text+0x3b28>
    b58c:	0a00002e 	beq	b64c <radio_control_task+0x144>
    b590:	e5d93000 	ldrb	r3, [r9]
    b594:	e3530003 	cmp	r3, #3	; 0x3
    b598:	0a000349 	beq	c2c4 <.text+0x42c4>
    b59c:	e1d830f8 	ldrsh	r3, [r8, #8]
    b5a0:	e3530d32 	cmp	r3, #3200	; 0xc80
    b5a4:	c3a02002 	movgt	r2, #2	; 0x2
    b5a8:	ca000002 	bgt	b5b8 <radio_control_task+0xb0>
    b5ac:	e3730d4b 	cmn	r3, #4800	; 0x12c0
    b5b0:	d3a02000 	movle	r2, #0	; 0x0
    b5b4:	c3a02001 	movgt	r2, #1	; 0x1
    b5b8:	e5d93000 	ldrb	r3, [r9]
    b5bc:	e1530002 	cmp	r3, r2
    b5c0:	15c92000 	strneb	r2, [r9]
    b5c4:	13a01001 	movne	r1, #1	; 0x1
    b5c8:	03a01000 	moveq	r1, #0	; 0x0
    b5cc:	e59f0558 	ldr	r0, [pc, #1368]	; bb2c <.text+0x3b2c>
    b5d0:	e1d830fe 	ldrsh	r3, [r8, #14]
    b5d4:	e5d02000 	ldrb	r2, [r0]
    b5d8:	e3530d32 	cmp	r3, #3200	; 0xc80
    b5dc:	b3a03000 	movlt	r3, #0	; 0x0
    b5e0:	a3a03001 	movge	r3, #1	; 0x1
    b5e4:	e1520003 	cmp	r2, r3
    b5e8:	15c03000 	strneb	r3, [r0]
    b5ec:	e1d831f0 	ldrsh	r3, [r8, #16]
    b5f0:	e20110ff 	and	r1, r1, #255	; 0xff
    b5f4:	13a02001 	movne	r2, #1	; 0x1
    b5f8:	03a02000 	moveq	r2, #0	; 0x0
    b5fc:	e1855001 	orr	r5, r5, r1
    b600:	e3730d4b 	cmn	r3, #4800	; 0x12c0
    b604:	e1855002 	orr	r5, r5, r2
    b608:	b3a02002 	movlt	r2, #2	; 0x2
    b60c:	ba000002 	blt	b61c <radio_control_task+0x114>
    b610:	e3530d32 	cmp	r3, #3200	; 0xc80
    b614:	b3a02000 	movlt	r2, #0	; 0x0
    b618:	a3a02001 	movge	r2, #1	; 0x1
    b61c:	e59fa504 	ldr	sl, [pc, #1284]	; bb28 <.text+0x3b28>
    b620:	e5da3000 	ldrb	r3, [sl]
    b624:	e1530002 	cmp	r3, r2
    b628:	13a04001 	movne	r4, #1	; 0x1
    b62c:	03a04000 	moveq	r4, #0	; 0x0
    b630:	e20440ff 	and	r4, r4, #255	; 0xff
    b634:	15ca2000 	strneb	r2, [sl]
    b638:	e1941001 	orrs	r1, r4, r1
    b63c:	03a00000 	moveq	r0, #0	; 0x0
    b640:	13a00001 	movne	r0, #1	; 0x1
    b644:	eb00191f 	bl	11ac8 <inflight_calib>
    b648:	e1855004 	orr	r5, r5, r4
    b64c:	e59f74dc 	ldr	r7, [pc, #1244]	; bb30 <.text+0x3b30>
    b650:	e5d83013 	ldrb	r3, [r8, #19]
    b654:	e5d72000 	ldrb	r2, [r7]
    b658:	e20310ff 	and	r1, r3, #255	; 0xff
    b65c:	e1520001 	cmp	r2, r1
    b660:	03a02000 	moveq	r2, #0	; 0x0
    b664:	0a000004 	beq	b67c <radio_control_task+0x174>
    b668:	e2022003 	and	r2, r2, #3	; 0x3
    b66c:	e2033003 	and	r3, r3, #3	; 0x3
    b670:	e5c71000 	strb	r1, [r7]
    b674:	e0522003 	subs	r2, r2, r3
    b678:	13a02001 	movne	r2, #1	; 0x1
    b67c:	e1955002 	orrs	r5, r5, r2
    b680:	0a00009f 	beq	b904 <radio_control_task+0x3fc>
    b684:	e59f14fc 	ldr	r1, [pc, #1276]	; bb88 <.text+0x3b88>
    b688:	e59f0510 	ldr	r0, [pc, #1296]	; bba0 <.text+0x3ba0>
    b68c:	e5d12000 	ldrb	r2, [r1]
    b690:	e5d03000 	ldrb	r3, [r0]
    b694:	e1520003 	cmp	r2, r3
    b698:	359f1500 	ldrcc	r1, [pc, #1280]	; bba0 <.text+0x3ba0>
    b69c:	25d03000 	ldrcsb	r3, [r0]
    b6a0:	35d13000 	ldrccb	r3, [r1]
    b6a4:	20633002 	rsbcs	r3, r3, r2
    b6a8:	30623003 	rsbcc	r3, r2, r3
    b6ac:	226330ff 	rsbcs	r3, r3, #255	; 0xff
    b6b0:	e3530009 	cmp	r3, #9	; 0x9
    b6b4:	d59f24e8 	ldrle	r2, [pc, #1256]	; bba4 <.text+0x3ba4>
    b6b8:	d5d23000 	ldrleb	r3, [r2]
    b6bc:	d2833001 	addle	r3, r3, #1	; 0x1
    b6c0:	d5c23000 	strleb	r3, [r2]
    b6c4:	da00008e 	ble	b904 <radio_control_task+0x3fc>
    b6c8:	e59f24b8 	ldr	r2, [pc, #1208]	; bb88 <.text+0x3b88>
    b6cc:	e5d23000 	ldrb	r3, [r2]
    b6d0:	e59f04b0 	ldr	r0, [pc, #1200]	; bb88 <.text+0x3b88>
    b6d4:	e2832001 	add	r2, r3, #1	; 0x1
    b6d8:	e5c02000 	strb	r2, [r0]
    b6dc:	e5d00000 	ldrb	r0, [r0]
    b6e0:	e59f64a4 	ldr	r6, [pc, #1188]	; bb8c <.text+0x3b8c>
    b6e4:	e35000ff 	cmp	r0, #255	; 0xff
    b6e8:	e3a02005 	mov	r2, #5	; 0x5
    b6ec:	e59fc494 	ldr	ip, [pc, #1172]	; bb88 <.text+0x3b88>
    b6f0:	e7c62003 	strb	r2, [r6, r3]
    b6f4:	03a03000 	moveq	r3, #0	; 0x0
    b6f8:	01a00003 	moveq	r0, r3
    b6fc:	05cc3000 	streqb	r3, [ip]
    b700:	e2803001 	add	r3, r0, #1	; 0x1
    b704:	e5cc3000 	strb	r3, [ip]
    b708:	e3a0200b 	mov	r2, #11	; 0xb
    b70c:	e7c62000 	strb	r2, [r6, r0]
    b710:	e5dc0000 	ldrb	r0, [ip]
    b714:	e35000ff 	cmp	r0, #255	; 0xff
    b718:	03a03000 	moveq	r3, #0	; 0x0
    b71c:	e5d91000 	ldrb	r1, [r9]
    b720:	e59f4468 	ldr	r4, [pc, #1128]	; bb90 <.text+0x3b90>
    b724:	01a00003 	moveq	r0, r3
    b728:	05cc3000 	streqb	r3, [ip]
    b72c:	e2802001 	add	r2, r0, #1	; 0x1
    b730:	e281300b 	add	r3, r1, #11	; 0xb
    b734:	e5cc2000 	strb	r2, [ip]
    b738:	e5c43000 	strb	r3, [r4]
    b73c:	e7c61000 	strb	r1, [r6, r0]
    b740:	e5d42000 	ldrb	r2, [r4]
    b744:	e5dc0000 	ldrb	r0, [ip]
    b748:	e59f5444 	ldr	r5, [pc, #1092]	; bb94 <.text+0x3b94>
    b74c:	e282300b 	add	r3, r2, #11	; 0xb
    b750:	e35000ff 	cmp	r0, #255	; 0xff
    b754:	e5c53000 	strb	r3, [r5]
    b758:	03a03000 	moveq	r3, #0	; 0x0
    b75c:	05cc3000 	streqb	r3, [ip]
    b760:	01a00003 	moveq	r0, r3
    b764:	e59f33c8 	ldr	r3, [pc, #968]	; bb34 <.text+0x3b34>
    b768:	e5d31000 	ldrb	r1, [r3]
    b76c:	e2803001 	add	r3, r0, #1	; 0x1
    b770:	e0822001 	add	r2, r2, r1
    b774:	e5cc3000 	strb	r3, [ip]
    b778:	e5c42000 	strb	r2, [r4]
    b77c:	e7c61000 	strb	r1, [r6, r0]
    b780:	e5d4e000 	ldrb	lr, [r4]
    b784:	e5dc0000 	ldrb	r0, [ip]
    b788:	e5d53000 	ldrb	r3, [r5]
    b78c:	e35000ff 	cmp	r0, #255	; 0xff
    b790:	e083300e 	add	r3, r3, lr
    b794:	e5c53000 	strb	r3, [r5]
    b798:	e5da1000 	ldrb	r1, [sl]
    b79c:	03a03000 	moveq	r3, #0	; 0x0
    b7a0:	01a00003 	moveq	r0, r3
    b7a4:	05cc3000 	streqb	r3, [ip]
    b7a8:	e2802001 	add	r2, r0, #1	; 0x1
    b7ac:	e08e3001 	add	r3, lr, r1
    b7b0:	e5cc2000 	strb	r2, [ip]
    b7b4:	e5c43000 	strb	r3, [r4]
    b7b8:	e7c61000 	strb	r1, [r6, r0]
    b7bc:	e5d4e000 	ldrb	lr, [r4]
    b7c0:	e5dc0000 	ldrb	r0, [ip]
    b7c4:	e5d53000 	ldrb	r3, [r5]
    b7c8:	e35000ff 	cmp	r0, #255	; 0xff
    b7cc:	e083300e 	add	r3, r3, lr
    b7d0:	e5c53000 	strb	r3, [r5]
    b7d4:	03a03000 	moveq	r3, #0	; 0x0
    b7d8:	e5d71000 	ldrb	r1, [r7]
    b7dc:	01a00003 	moveq	r0, r3
    b7e0:	05cc3000 	streqb	r3, [ip]
    b7e4:	e2802001 	add	r2, r0, #1	; 0x1
    b7e8:	e08e3001 	add	r3, lr, r1
    b7ec:	e5cc2000 	strb	r2, [ip]
    b7f0:	e5c43000 	strb	r3, [r4]
    b7f4:	e7c61000 	strb	r1, [r6, r0]
    b7f8:	e5d53000 	ldrb	r3, [r5]
    b7fc:	e5dc0000 	ldrb	r0, [ip]
    b800:	e5d42000 	ldrb	r2, [r4]
    b804:	e35000ff 	cmp	r0, #255	; 0xff
    b808:	e0833002 	add	r3, r3, r2
    b80c:	e5c53000 	strb	r3, [r5]
    b810:	03a03000 	moveq	r3, #0	; 0x0
    b814:	05cc3000 	streqb	r3, [ip]
    b818:	01a00003 	moveq	r0, r3
    b81c:	e59f3308 	ldr	r3, [pc, #776]	; bb2c <.text+0x3b2c>
    b820:	e5d31000 	ldrb	r1, [r3]
    b824:	e2803001 	add	r3, r0, #1	; 0x1
    b828:	e0822001 	add	r2, r2, r1
    b82c:	e5cc3000 	strb	r3, [ip]
    b830:	e5c42000 	strb	r2, [r4]
    b834:	e7c61000 	strb	r1, [r6, r0]
    b838:	e5d53000 	ldrb	r3, [r5]
    b83c:	e5dc0000 	ldrb	r0, [ip]
    b840:	e5d41000 	ldrb	r1, [r4]
    b844:	e35000ff 	cmp	r0, #255	; 0xff
    b848:	e0833001 	add	r3, r3, r1
    b84c:	e5c53000 	strb	r3, [r5]
    b850:	03a03000 	moveq	r3, #0	; 0x0
    b854:	01a00003 	moveq	r0, r3
    b858:	05cc3000 	streqb	r3, [ip]
    b85c:	e2803001 	add	r3, r0, #1	; 0x1
    b860:	e5cc3000 	strb	r3, [ip]
    b864:	e7c61000 	strb	r1, [r6, r0]
    b868:	e5dc0000 	ldrb	r0, [ip]
    b86c:	e35000ff 	cmp	r0, #255	; 0xff
    b870:	03a03000 	moveq	r3, #0	; 0x0
    b874:	01a00003 	moveq	r0, r3
    b878:	05cc3000 	streqb	r3, [ip]
    b87c:	e2803001 	add	r3, r0, #1	; 0x1
    b880:	e5cc3000 	strb	r3, [ip]
    b884:	e5dc2000 	ldrb	r2, [ip]
    b888:	e5d53000 	ldrb	r3, [r5]
    b88c:	e35200ff 	cmp	r2, #255	; 0xff
    b890:	e7c63000 	strb	r3, [r6, r0]
    b894:	03a03000 	moveq	r3, #0	; 0x0
    b898:	05cc3000 	streqb	r3, [ip]
    b89c:	e3a0c059 	mov	ip, #89	; 0x59
    b8a0:	e5dc3000 	ldrb	r3, [ip]
    b8a4:	e1a03223 	mov	r3, r3, lsr #4
    b8a8:	e213e001 	ands	lr, r3, #1	; 0x1
    b8ac:	1a000014 	bne	b904 <radio_control_task+0x3fc>
    b8b0:	e59f12e8 	ldr	r1, [pc, #744]	; bba0 <.text+0x3ba0>
    b8b4:	e5d10000 	ldrb	r0, [r1]
    b8b8:	e5d13000 	ldrb	r3, [r1]
    b8bc:	e2833001 	add	r3, r3, #1	; 0x1
    b8c0:	e5c13000 	strb	r3, [r1]
    b8c4:	e5d12000 	ldrb	r2, [r1]
    b8c8:	e35200ff 	cmp	r2, #255	; 0xff
    b8cc:	e59f22c4 	ldr	r2, [pc, #708]	; bb98 <.text+0x3b98>
    b8d0:	e7d61000 	ldrb	r1, [r6, r0]
    b8d4:	e5c2e000 	strb	lr, [r2]
    b8d8:	e59f32bc 	ldr	r3, [pc, #700]	; bb9c <.text+0x3b9c>
    b8dc:	059f22bc 	ldreq	r2, [pc, #700]	; bba0 <.text+0x3ba0>
    b8e0:	e5c31000 	strb	r1, [r3]
    b8e4:	05c2e000 	streqb	lr, [r2]
    b8e8:	e3a03058 	mov	r3, #88	; 0x58
    b8ec:	e5d32000 	ldrb	r2, [r3]
    b8f0:	e3822001 	orr	r2, r2, #1	; 0x1
    b8f4:	e5c32000 	strb	r2, [r3]
    b8f8:	e5dc1000 	ldrb	r1, [ip]
    b8fc:	e3811010 	orr	r1, r1, #16	; 0x10
    b900:	e5cc1000 	strb	r1, [ip]
    b904:	e5d94000 	ldrb	r4, [r9]
    b908:	e3540001 	cmp	r4, #1	; 0x1
    b90c:	0a00005b 	beq	ba80 <radio_control_task+0x578>
    b910:	e3540001 	cmp	r4, #1	; 0x1
    b914:	959f321c 	ldrls	r3, [pc, #540]	; bb38 <.text+0x3b38>
    b918:	91d800b0 	ldrlsh	r0, [r8]
    b91c:	e5da2000 	ldrb	r2, [sl]
    b920:	91c300b0 	strlsh	r0, [r3]
    b924:	e5d81012 	ldrb	r1, [r8, #18]
    b928:	e5d80015 	ldrb	r0, [r8, #21]
    b92c:	e3520000 	cmp	r2, #0	; 0x0
    b930:	e59f3204 	ldr	r3, [pc, #516]	; bb3c <.text+0x3b3c>
    b934:	e59f2204 	ldr	r2, [pc, #516]	; bb40 <.text+0x3b40>
    b938:	e5c31000 	strb	r1, [r3]
    b93c:	e5c20000 	strb	r0, [r2]
    b940:	1a000048 	bne	ba68 <radio_control_task+0x560>
    b944:	e3a03b07 	mov	r3, #7168	; 0x1c00
    b948:	e1d820fa 	ldrsh	r2, [r8, #10]
    b94c:	e2833020 	add	r3, r3, #32	; 0x20
    b950:	e1520003 	cmp	r2, r3
    b954:	da000043 	ble	ba68 <radio_control_task+0x560>
    b958:	e59f21e4 	ldr	r2, [pc, #484]	; bb44 <.text+0x3b44>
    b95c:	e1d230b0 	ldrh	r3, [r2]
    b960:	e3530013 	cmp	r3, #19	; 0x13
    b964:	8a000006 	bhi	b984 <radio_control_task+0x47c>
    b968:	e2833001 	add	r3, r3, #1	; 0x1
    b96c:	e1c230b0 	strh	r3, [r2]
    b970:	e1d220b0 	ldrh	r2, [r2]
    b974:	e3520014 	cmp	r2, #20	; 0x14
    b978:	059f3204 	ldreq	r3, [pc, #516]	; bb84 <.text+0x3b84>
    b97c:	02422013 	subeq	r2, r2, #19	; 0x13
    b980:	05c32000 	streqb	r2, [r3]
    b984:	e5da3000 	ldrb	r3, [sl]
    b988:	e3530000 	cmp	r3, #0	; 0x0
    b98c:	1a00002b 	bne	ba40 <radio_control_task+0x538>
    b990:	e3e03b07 	mvn	r3, #7168	; 0x1c00
    b994:	e1d820fa 	ldrsh	r2, [r8, #10]
    b998:	e243301f 	sub	r3, r3, #31	; 0x1f
    b99c:	e1520003 	cmp	r2, r3
    b9a0:	aa000026 	bge	ba40 <radio_control_task+0x538>
    b9a4:	e59f219c 	ldr	r2, [pc, #412]	; bb48 <.text+0x3b48>
    b9a8:	e1d230b0 	ldrh	r3, [r2]
    b9ac:	e3530013 	cmp	r3, #19	; 0x13
    b9b0:	8a000006 	bhi	b9d0 <radio_control_task+0x4c8>
    b9b4:	e2833001 	add	r3, r3, #1	; 0x1
    b9b8:	e1c230b0 	strh	r3, [r2]
    b9bc:	e1d220b0 	ldrh	r2, [r2]
    b9c0:	e3520014 	cmp	r2, #20	; 0x14
    b9c4:	059f3180 	ldreq	r3, [pc, #384]	; bb4c <.text+0x3b4c>
    b9c8:	02422013 	subeq	r2, r2, #19	; 0x13
    b9cc:	05c32000 	streqb	r2, [r3]
    b9d0:	e59f3178 	ldr	r3, [pc, #376]	; bb50 <.text+0x3b50>
    b9d4:	e1d320b0 	ldrh	r2, [r3]
    b9d8:	e3520000 	cmp	r2, #0	; 0x0
    b9dc:	189daff0 	ldmneia	sp, {r4, r5, r6, r7, r8, r9, sl, fp, sp, pc}
    b9e0:	e59f616c 	ldr	r6, [pc, #364]	; bb54 <.text+0x3b54>
    b9e4:	e5d63000 	ldrb	r3, [r6]
    b9e8:	e3530000 	cmp	r3, #0	; 0x0
    b9ec:	1a00006d 	bne	bba8 <.text+0x3ba8>
    b9f0:	e59f3160 	ldr	r3, [pc, #352]	; bb58 <.text+0x3b58>
    b9f4:	e1d320b0 	ldrh	r2, [r3]
    b9f8:	e3520009 	cmp	r2, #9	; 0x9
    b9fc:	8a000002 	bhi	ba0c <radio_control_task+0x504>
    ba00:	e5d92000 	ldrb	r2, [r9]
    ba04:	e3520001 	cmp	r2, #1	; 0x1
    ba08:	0a000235 	beq	c2e4 <.text+0x42e4>
    ba0c:	e5d93000 	ldrb	r3, [r9]
    ba10:	e3530002 	cmp	r3, #2	; 0x2
    ba14:	189daff0 	ldmneia	sp, {r4, r5, r6, r7, r8, r9, sl, fp, sp, pc}
    ba18:	e1d830f0 	ldrsh	r3, [r8]
    ba1c:	e3530d87 	cmp	r3, #8640	; 0x21c0
    ba20:	c59f3134 	ldrgt	r3, [pc, #308]	; bb5c <.text+0x3b5c>
    ba24:	c3a02001 	movgt	r2, #1	; 0x1
    ba28:	c5c32000 	strgtb	r2, [r3]
    ba2c:	e89daff0 	ldmia	sp, {r4, r5, r6, r7, r8, r9, sl, fp, sp, pc}
    ba30:	e3a03003 	mov	r3, #3	; 0x3
    ba34:	e3a05001 	mov	r5, #1	; 0x1
    ba38:	e5c93000 	strb	r3, [r9]
    ba3c:	eafffecd 	b	b578 <radio_control_task+0x70>
    ba40:	e59f2104 	ldr	r2, [pc, #260]	; bb4c <.text+0x3b4c>
    ba44:	e59f10fc 	ldr	r1, [pc, #252]	; bb48 <.text+0x3b48>
    ba48:	e3a03000 	mov	r3, #0	; 0x0
    ba4c:	e5c23000 	strb	r3, [r2]
    ba50:	e1c130b0 	strh	r3, [r1]
    ba54:	e59f30f4 	ldr	r3, [pc, #244]	; bb50 <.text+0x3b50>
    ba58:	e1d320b0 	ldrh	r2, [r3]
    ba5c:	e3520000 	cmp	r2, #0	; 0x0
    ba60:	189daff0 	ldmneia	sp, {r4, r5, r6, r7, r8, r9, sl, fp, sp, pc}
    ba64:	eaffffdd 	b	b9e0 <radio_control_task+0x4d8>
    ba68:	e59f2114 	ldr	r2, [pc, #276]	; bb84 <.text+0x3b84>
    ba6c:	e59f10d0 	ldr	r1, [pc, #208]	; bb44 <.text+0x3b44>
    ba70:	e3a03000 	mov	r3, #0	; 0x0
    ba74:	e5c23000 	strb	r3, [r2]
    ba78:	e1c130b0 	strh	r3, [r1]
    ba7c:	eaffffc0 	b	b984 <radio_control_task+0x47c>
    ba80:	e1d800f2 	ldrsh	r0, [r8, #2]
    ba84:	eb001d0b 	bl	12eb8 <__floatsisf>
    ba88:	e3a01446 	mov	r1, #1174405120	; 0x46000000
    ba8c:	e2811816 	add	r1, r1, #1441792	; 0x160000
    ba90:	eb001d7f 	bl	13094 <__divsf3>
    ba94:	eb001ac9 	bl	125c0 <__extendsfdf2>
    ba98:	e28f205c 	add	r2, pc, #92	; 0x5c
    ba9c:	e892000c 	ldmia	r2, {r2, r3}
    baa0:	eb001ad9 	bl	1260c <__muldf3>
    baa4:	e28f2058 	add	r2, pc, #88	; 0x58
    baa8:	e892000c 	ldmia	r2, {r2, r3}
    baac:	eb0019f5 	bl	12288 <__adddf3>
    bab0:	eb001c4f 	bl	12bf4 <__truncdfsf2>
    bab4:	e59f30a4 	ldr	r3, [pc, #164]	; bb60 <.text+0x3b60>
    bab8:	e5830000 	str	r0, [r3]
    babc:	e1d800f4 	ldrsh	r0, [r8, #4]
    bac0:	eb001cfc 	bl	12eb8 <__floatsisf>
    bac4:	e3a01446 	mov	r1, #1174405120	; 0x46000000
    bac8:	e2811816 	add	r1, r1, #1441792	; 0x160000
    bacc:	eb001d70 	bl	13094 <__divsf3>
    bad0:	eb001aba 	bl	125c0 <__extendsfdf2>
    bad4:	e28f2030 	add	r2, pc, #48	; 0x30
    bad8:	e892000c 	ldmia	r2, {r2, r3}
    badc:	eb001aca 	bl	1260c <__muldf3>
    bae0:	e28f201c 	add	r2, pc, #28	; 0x1c
    bae4:	e892000c 	ldmia	r2, {r2, r3}
    bae8:	eb0019e6 	bl	12288 <__adddf3>
    baec:	eb001c40 	bl	12bf4 <__truncdfsf2>
    baf0:	e59f306c 	ldr	r3, [pc, #108]	; bb64 <.text+0x3b64>
    baf4:	e5830000 	str	r0, [r3]
    baf8:	eaffff84 	b	b910 <radio_control_task+0x408>
    bafc:	bfe33333 	swilt	0x00e33333
    bb00:	33333333 	teqcc	r3, #-872415232	; 0xcc000000
	...
    bb0c:	3fe00000 	swicc	0x00e00000
    bb10:	00000000 	andeq	r0, r0, r0
    bb14:	000135b8 	streqh	r3, [r1], -r8
    bb18:	00013b10 	andeq	r3, r1, r0, lsl fp
    bb1c:	00013af8 	streqd	r3, [r1], -r8
    bb20:	000135a4 	andeq	r3, r1, r4, lsr #11
    bb24:	00013b91 	muleq	r1, r1, fp
    bb28:	000139d0 	ldreqd	r3, [r1], -r0
    bb2c:	00013500 	andeq	r3, r1, r0, lsl #10
    bb30:	000135b4 	streqh	r3, [r1], -r4
    bb34:	000135a3 	andeq	r3, r1, r3, lsr #11
    bb38:	00013b70 	andeq	r3, r1, r0, ror fp
    bb3c:	000135b5 	streqh	r3, [r1], -r5
    bb40:	000139f1 	streqd	r3, [r1], -r1
    bb44:	000135ac 	andeq	r3, r1, ip, lsr #11
    bb48:	000135ae 	andeq	r3, r1, lr, lsr #11
    bb4c:	000139f0 	streqd	r3, [r1], -r0
    bb50:	00013ba8 	andeq	r3, r1, r8, lsr #23
    bb54:	000135ab 	andeq	r3, r1, fp, lsr #11
    bb58:	000135a6 	andeq	r3, r1, r6, lsr #11
    bb5c:	000135a0 	andeq	r3, r1, r0, lsr #11
    bb60:	0001378c 	andeq	r3, r1, ip, lsl #15
    bb64:	00013788 	andeq	r3, r1, r8, lsl #15
    bb68:	00013504 	andeq	r3, r1, r4, lsl #10
    bb6c:	00013bc4 	andeq	r3, r1, r4, asr #23
    bb70:	00013bdc 	ldreqd	r3, [r1], -ip
    bb74:	00013bbc 	streqh	r3, [r1], -ip
    bb78:	0001350a 	andeq	r3, r1, sl, lsl #10
    bb7c:	00013508 	andeq	r3, r1, r8, lsl #10
    bb80:	0001350c 	andeq	r3, r1, ip, lsl #10
    bb84:	000139e4 	andeq	r3, r1, r4, ror #19
    bb88:	000139f5 	streqd	r3, [r1], -r5
    bb8c:	000139f8 	streqd	r3, [r1], -r8
    bb90:	00013af7 	streqd	r3, [r1], -r7
    bb94:	000139f2 	streqd	r3, [r1], -r2
    bb98:	000139f7 	streqd	r3, [r1], -r7
    bb9c:	000139f4 	streqd	r3, [r1], -r4
    bba0:	000139f6 	streqd	r3, [r1], -r6
    bba4:	000139f3 	streqd	r3, [r1], -r3
    bba8:	e3530001 	cmp	r3, #1	; 0x1
    bbac:	1affff96 	bne	ba0c <radio_control_task+0x504>
    bbb0:	e1d830b2 	ldrh	r3, [r8, #2]
    bbb4:	e2833d4b 	add	r3, r3, #4800	; 0x12c0
    bbb8:	e1a03803 	mov	r3, r3, lsl #16
    bbbc:	e353057d 	cmp	r3, #524288000	; 0x1f400000
    bbc0:	9affff91 	bls	ba0c <radio_control_task+0x504>
    bbc4:	eb000bf1 	bl	eb90 <ir_gain_calib>
    bbc8:	e51f0030 	ldr	r0, [pc, #-48]	; bba0 <.text+0x3ba0>
    bbcc:	e51f104c 	ldr	r1, [pc, #-76]	; bb88 <.text+0x3b88>
    bbd0:	e51f2070 	ldr	r2, [pc, #-112]	; bb68 <.text+0x3b68>
    bbd4:	e5d03000 	ldrb	r3, [r0]
    bbd8:	e5d10000 	ldrb	r0, [r1]
    bbdc:	e5921000 	ldr	r1, [r2]
    bbe0:	e51f2074 	ldr	r2, [pc, #-116]	; bb74 <.text+0x3b74>
    bbe4:	e1500003 	cmp	r0, r3
    bbe8:	e5821000 	str	r1, [r2]
    bbec:	251f1054 	ldrcs	r1, [pc, #-84]	; bba0 <.text+0x3ba0>
    bbf0:	351f2058 	ldrcc	r2, [pc, #-88]	; bba0 <.text+0x3ba0>
    bbf4:	25d13000 	ldrcsb	r3, [r1]
    bbf8:	35d23000 	ldrccb	r3, [r2]
    bbfc:	20633000 	rsbcs	r3, r3, r0
    bc00:	226330ff 	rsbcs	r3, r3, #255	; 0xff
    bc04:	30603003 	rsbcc	r3, r0, r3
    bc08:	e3530014 	cmp	r3, #20	; 0x14
    bc0c:	d51f2070 	ldrle	r2, [pc, #-112]	; bba4 <.text+0x3ba4>
    bc10:	d5d23000 	ldrleb	r3, [r2]
    bc14:	d2833001 	addle	r3, r3, #1	; 0x1
    bc18:	d5c23000 	strleb	r3, [r2]
    bc1c:	da000137 	ble	c100 <.text+0x4100>
    bc20:	e51f30a0 	ldr	r3, [pc, #-160]	; bb88 <.text+0x3b88>
    bc24:	e5d32000 	ldrb	r2, [r3]
    bc28:	e51f00a8 	ldr	r0, [pc, #-168]	; bb88 <.text+0x3b88>
    bc2c:	e2823001 	add	r3, r2, #1	; 0x1
    bc30:	e5c03000 	strb	r3, [r0]
    bc34:	e5d00000 	ldrb	r0, [r0]
    bc38:	e35000ff 	cmp	r0, #255	; 0xff
    bc3c:	e51fc0bc 	ldr	ip, [pc, #-188]	; bb88 <.text+0x3b88>
    bc40:	03a03000 	moveq	r3, #0	; 0x0
    bc44:	01a00003 	moveq	r0, r3
    bc48:	05cc3000 	streqb	r3, [ip]
    bc4c:	e2803001 	add	r3, r0, #1	; 0x1
    bc50:	e51f70cc 	ldr	r7, [pc, #-204]	; bb8c <.text+0x3b8c>
    bc54:	e5cc3000 	strb	r3, [ip]
    bc58:	e3a01005 	mov	r1, #5	; 0x5
    bc5c:	e7c71002 	strb	r1, [r7, r2]
    bc60:	e7c71000 	strb	r1, [r7, r0]
    bc64:	e5dc0000 	ldrb	r0, [ip]
    bc68:	e35000ff 	cmp	r0, #255	; 0xff
    bc6c:	03a03000 	moveq	r3, #0	; 0x0
    bc70:	05cc3000 	streqb	r3, [ip]
    bc74:	e51fa110 	ldr	sl, [pc, #-272]	; bb6c <.text+0x3b6c>
    bc78:	e5da1000 	ldrb	r1, [sl]
    bc7c:	e51fe0f4 	ldr	lr, [pc, #-244]	; bb90 <.text+0x3b90>
    bc80:	01a00003 	moveq	r0, r3
    bc84:	e2802001 	add	r2, r0, #1	; 0x1
    bc88:	e2813005 	add	r3, r1, #5	; 0x5
    bc8c:	e5cc2000 	strb	r2, [ip]
    bc90:	e5ce3000 	strb	r3, [lr]
    bc94:	e7c71000 	strb	r1, [r7, r0]
    bc98:	e5de5000 	ldrb	r5, [lr]
    bc9c:	e5dc0000 	ldrb	r0, [ip]
    bca0:	e51f4114 	ldr	r4, [pc, #-276]	; bb94 <.text+0x3b94>
    bca4:	e2853005 	add	r3, r5, #5	; 0x5
    bca8:	e35000ff 	cmp	r0, #255	; 0xff
    bcac:	e5c43000 	strb	r3, [r4]
    bcb0:	03a03000 	moveq	r3, #0	; 0x0
    bcb4:	05cc3000 	streqb	r3, [ip]
    bcb8:	e5da1001 	ldrb	r1, [sl, #1]
    bcbc:	01a00003 	moveq	r0, r3
    bcc0:	e2802001 	add	r2, r0, #1	; 0x1
    bcc4:	e0813005 	add	r3, r1, r5
    bcc8:	e5cc2000 	strb	r2, [ip]
    bccc:	e5ce3000 	strb	r3, [lr]
    bcd0:	e7c71000 	strb	r1, [r7, r0]
    bcd4:	e5de5000 	ldrb	r5, [lr]
    bcd8:	e5dc0000 	ldrb	r0, [ip]
    bcdc:	e5d43000 	ldrb	r3, [r4]
    bce0:	e35000ff 	cmp	r0, #255	; 0xff
    bce4:	e0833005 	add	r3, r3, r5
    bce8:	e5c43000 	strb	r3, [r4]
    bcec:	03a03000 	moveq	r3, #0	; 0x0
    bcf0:	05cc3000 	streqb	r3, [ip]
    bcf4:	e5da1002 	ldrb	r1, [sl, #2]
    bcf8:	01a00003 	moveq	r0, r3
    bcfc:	e2802001 	add	r2, r0, #1	; 0x1
    bd00:	e0813005 	add	r3, r1, r5
    bd04:	e5ce3000 	strb	r3, [lr]
    bd08:	e5cc2000 	strb	r2, [ip]
    bd0c:	e5de5000 	ldrb	r5, [lr]
    bd10:	e7c71000 	strb	r1, [r7, r0]
    bd14:	e5d43000 	ldrb	r3, [r4]
    bd18:	e5dc0000 	ldrb	r0, [ip]
    bd1c:	e0833005 	add	r3, r3, r5
    bd20:	e35000ff 	cmp	r0, #255	; 0xff
    bd24:	e5c43000 	strb	r3, [r4]
    bd28:	03a03000 	moveq	r3, #0	; 0x0
    bd2c:	05cc3000 	streqb	r3, [ip]
    bd30:	e5da1003 	ldrb	r1, [sl, #3]
    bd34:	01a00003 	moveq	r0, r3
    bd38:	e2802001 	add	r2, r0, #1	; 0x1
    bd3c:	e0813005 	add	r3, r1, r5
    bd40:	e5cc2000 	strb	r2, [ip]
    bd44:	e5ce3000 	strb	r3, [lr]
    bd48:	e7c71000 	strb	r1, [r7, r0]
    bd4c:	e5de5000 	ldrb	r5, [lr]
    bd50:	e5dc0000 	ldrb	r0, [ip]
    bd54:	e5d43000 	ldrb	r3, [r4]
    bd58:	e35000ff 	cmp	r0, #255	; 0xff
    bd5c:	e0833005 	add	r3, r3, r5
    bd60:	e5c43000 	strb	r3, [r4]
    bd64:	03a03000 	moveq	r3, #0	; 0x0
    bd68:	05cc3000 	streqb	r3, [ip]
    bd6c:	e51fa204 	ldr	sl, [pc, #-516]	; bb70 <.text+0x3b70>
    bd70:	e5da1000 	ldrb	r1, [sl]
    bd74:	01a00003 	moveq	r0, r3
    bd78:	e2802001 	add	r2, r0, #1	; 0x1
    bd7c:	e0813005 	add	r3, r1, r5
    bd80:	e5cc2000 	strb	r2, [ip]
    bd84:	e5ce3000 	strb	r3, [lr]
    bd88:	e7c71000 	strb	r1, [r7, r0]
    bd8c:	e5de5000 	ldrb	r5, [lr]
    bd90:	e5dc0000 	ldrb	r0, [ip]
    bd94:	e5d43000 	ldrb	r3, [r4]
    bd98:	e35000ff 	cmp	r0, #255	; 0xff
    bd9c:	e0833005 	add	r3, r3, r5
    bda0:	e5c43000 	strb	r3, [r4]
    bda4:	03a03000 	moveq	r3, #0	; 0x0
    bda8:	05cc3000 	streqb	r3, [ip]
    bdac:	e5da1001 	ldrb	r1, [sl, #1]
    bdb0:	01a00003 	moveq	r0, r3
    bdb4:	e2802001 	add	r2, r0, #1	; 0x1
    bdb8:	e0813005 	add	r3, r1, r5
    bdbc:	e5cc2000 	strb	r2, [ip]
    bdc0:	e5ce3000 	strb	r3, [lr]
    bdc4:	e7c71000 	strb	r1, [r7, r0]
    bdc8:	e5de5000 	ldrb	r5, [lr]
    bdcc:	e5dc0000 	ldrb	r0, [ip]
    bdd0:	e5d43000 	ldrb	r3, [r4]
    bdd4:	e35000ff 	cmp	r0, #255	; 0xff
    bdd8:	e0833005 	add	r3, r3, r5
    bddc:	e5c43000 	strb	r3, [r4]
    bde0:	03a03000 	moveq	r3, #0	; 0x0
    bde4:	05cc3000 	streqb	r3, [ip]
    bde8:	e5da1002 	ldrb	r1, [sl, #2]
    bdec:	01a00003 	moveq	r0, r3
    bdf0:	e2802001 	add	r2, r0, #1	; 0x1
    bdf4:	e0813005 	add	r3, r1, r5
    bdf8:	e5ce3000 	strb	r3, [lr]
    bdfc:	e5cc2000 	strb	r2, [ip]
    be00:	e5de5000 	ldrb	r5, [lr]
    be04:	e7c71000 	strb	r1, [r7, r0]
    be08:	e5d43000 	ldrb	r3, [r4]
    be0c:	e5dc0000 	ldrb	r0, [ip]
    be10:	e0833005 	add	r3, r3, r5
    be14:	e35000ff 	cmp	r0, #255	; 0xff
    be18:	e5c43000 	strb	r3, [r4]
    be1c:	03a03000 	moveq	r3, #0	; 0x0
    be20:	05cc3000 	streqb	r3, [ip]
    be24:	e5da1003 	ldrb	r1, [sl, #3]
    be28:	01a00003 	moveq	r0, r3
    be2c:	e2802001 	add	r2, r0, #1	; 0x1
    be30:	e0813005 	add	r3, r1, r5
    be34:	e5cc2000 	strb	r2, [ip]
    be38:	e5ce3000 	strb	r3, [lr]
    be3c:	e7c71000 	strb	r1, [r7, r0]
    be40:	e5de5000 	ldrb	r5, [lr]
    be44:	e5dc0000 	ldrb	r0, [ip]
    be48:	e5d43000 	ldrb	r3, [r4]
    be4c:	e35000ff 	cmp	r0, #255	; 0xff
    be50:	e0833005 	add	r3, r3, r5
    be54:	e5c43000 	strb	r3, [r4]
    be58:	03a03000 	moveq	r3, #0	; 0x0
    be5c:	05cc3000 	streqb	r3, [ip]
    be60:	e51f22f4 	ldr	r2, [pc, #-756]	; bb74 <.text+0x3b74>
    be64:	e5d21000 	ldrb	r1, [r2]
    be68:	01a00003 	moveq	r0, r3
    be6c:	e2802001 	add	r2, r0, #1	; 0x1
    be70:	e0813005 	add	r3, r1, r5
    be74:	e5cc2000 	strb	r2, [ip]
    be78:	e5ce3000 	strb	r3, [lr]
    be7c:	e7c71000 	strb	r1, [r7, r0]
    be80:	e5de5000 	ldrb	r5, [lr]
    be84:	e5dc0000 	ldrb	r0, [ip]
    be88:	e5d43000 	ldrb	r3, [r4]
    be8c:	e35000ff 	cmp	r0, #255	; 0xff
    be90:	e0833005 	add	r3, r3, r5
    be94:	e5c43000 	strb	r3, [r4]
    be98:	03a03000 	moveq	r3, #0	; 0x0
    be9c:	05cc3000 	streqb	r3, [ip]
    bea0:	e51fa334 	ldr	sl, [pc, #-820]	; bb74 <.text+0x3b74>
    bea4:	e5da1001 	ldrb	r1, [sl, #1]
    bea8:	01a00003 	moveq	r0, r3
    beac:	e2802001 	add	r2, r0, #1	; 0x1
    beb0:	e0813005 	add	r3, r1, r5
    beb4:	e5cc2000 	strb	r2, [ip]
    beb8:	e5ce3000 	strb	r3, [lr]
    bebc:	e7c71000 	strb	r1, [r7, r0]
    bec0:	e5de5000 	ldrb	r5, [lr]
    bec4:	e5dc0000 	ldrb	r0, [ip]
    bec8:	e5d43000 	ldrb	r3, [r4]
    becc:	e35000ff 	cmp	r0, #255	; 0xff
    bed0:	e0833005 	add	r3, r3, r5
    bed4:	e5c43000 	strb	r3, [r4]
    bed8:	03a03000 	moveq	r3, #0	; 0x0
    bedc:	05cc3000 	streqb	r3, [ip]
    bee0:	e5da1002 	ldrb	r1, [sl, #2]
    bee4:	01a00003 	moveq	r0, r3
    bee8:	e2802001 	add	r2, r0, #1	; 0x1
    beec:	e0813005 	add	r3, r1, r5
    bef0:	e5ce3000 	strb	r3, [lr]
    bef4:	e5cc2000 	strb	r2, [ip]
    bef8:	e5de5000 	ldrb	r5, [lr]
    befc:	e7c71000 	strb	r1, [r7, r0]
    bf00:	e5d43000 	ldrb	r3, [r4]
    bf04:	e5dc0000 	ldrb	r0, [ip]
    bf08:	e0833005 	add	r3, r3, r5
    bf0c:	e35000ff 	cmp	r0, #255	; 0xff
    bf10:	e5c43000 	strb	r3, [r4]
    bf14:	03a03000 	moveq	r3, #0	; 0x0
    bf18:	05cc3000 	streqb	r3, [ip]
    bf1c:	e5da1003 	ldrb	r1, [sl, #3]
    bf20:	01a00003 	moveq	r0, r3
    bf24:	e2802001 	add	r2, r0, #1	; 0x1
    bf28:	e0813005 	add	r3, r1, r5
    bf2c:	e5cc2000 	strb	r2, [ip]
    bf30:	e5ce3000 	strb	r3, [lr]
    bf34:	e7c71000 	strb	r1, [r7, r0]
    bf38:	e5de5000 	ldrb	r5, [lr]
    bf3c:	e5dc0000 	ldrb	r0, [ip]
    bf40:	e5d43000 	ldrb	r3, [r4]
    bf44:	e35000ff 	cmp	r0, #255	; 0xff
    bf48:	e0833005 	add	r3, r3, r5
    bf4c:	e5c43000 	strb	r3, [r4]
    bf50:	03a03000 	moveq	r3, #0	; 0x0
    bf54:	05cc3000 	streqb	r3, [ip]
    bf58:	e51fa3e8 	ldr	sl, [pc, #-1000]	; bb78 <.text+0x3b78>
    bf5c:	e5da1000 	ldrb	r1, [sl]
    bf60:	01a00003 	moveq	r0, r3
    bf64:	e2802001 	add	r2, r0, #1	; 0x1
    bf68:	e0813005 	add	r3, r1, r5
    bf6c:	e5cc2000 	strb	r2, [ip]
    bf70:	e5ce3000 	strb	r3, [lr]
    bf74:	e7c71000 	strb	r1, [r7, r0]
    bf78:	e5de5000 	ldrb	r5, [lr]
    bf7c:	e5dc0000 	ldrb	r0, [ip]
    bf80:	e5d43000 	ldrb	r3, [r4]
    bf84:	e35000ff 	cmp	r0, #255	; 0xff
    bf88:	e0833005 	add	r3, r3, r5
    bf8c:	e5c43000 	strb	r3, [r4]
    bf90:	03a03000 	moveq	r3, #0	; 0x0
    bf94:	05cc3000 	streqb	r3, [ip]
    bf98:	e5da1001 	ldrb	r1, [sl, #1]
    bf9c:	01a00003 	moveq	r0, r3
    bfa0:	e2802001 	add	r2, r0, #1	; 0x1
    bfa4:	e0813005 	add	r3, r1, r5
    bfa8:	e5cc2000 	strb	r2, [ip]
    bfac:	e5ce3000 	strb	r3, [lr]
    bfb0:	e7c71000 	strb	r1, [r7, r0]
    bfb4:	e5de5000 	ldrb	r5, [lr]
    bfb8:	e5dc0000 	ldrb	r0, [ip]
    bfbc:	e5d43000 	ldrb	r3, [r4]
    bfc0:	e35000ff 	cmp	r0, #255	; 0xff
    bfc4:	e0833005 	add	r3, r3, r5
    bfc8:	e5c43000 	strb	r3, [r4]
    bfcc:	03a03000 	moveq	r3, #0	; 0x0
    bfd0:	05cc3000 	streqb	r3, [ip]
    bfd4:	e51fa460 	ldr	sl, [pc, #-1120]	; bb7c <.text+0x3b7c>
    bfd8:	e5da1000 	ldrb	r1, [sl]
    bfdc:	01a00003 	moveq	r0, r3
    bfe0:	e2802001 	add	r2, r0, #1	; 0x1
    bfe4:	e0813005 	add	r3, r1, r5
    bfe8:	e5ce3000 	strb	r3, [lr]
    bfec:	e5cc2000 	strb	r2, [ip]
    bff0:	e5de5000 	ldrb	r5, [lr]
    bff4:	e7c71000 	strb	r1, [r7, r0]
    bff8:	e5d43000 	ldrb	r3, [r4]
    bffc:	e5dc0000 	ldrb	r0, [ip]
    c000:	e0833005 	add	r3, r3, r5
    c004:	e35000ff 	cmp	r0, #255	; 0xff
    c008:	e5c43000 	strb	r3, [r4]
    c00c:	03a03000 	moveq	r3, #0	; 0x0
    c010:	05cc3000 	streqb	r3, [ip]
    c014:	e5da1001 	ldrb	r1, [sl, #1]
    c018:	01a00003 	moveq	r0, r3
    c01c:	e2802001 	add	r2, r0, #1	; 0x1
    c020:	e0813005 	add	r3, r1, r5
    c024:	e5cc2000 	strb	r2, [ip]
    c028:	e5ce3000 	strb	r3, [lr]
    c02c:	e7c71000 	strb	r1, [r7, r0]
    c030:	e5d43000 	ldrb	r3, [r4]
    c034:	e5dc0000 	ldrb	r0, [ip]
    c038:	e5de1000 	ldrb	r1, [lr]
    c03c:	e35000ff 	cmp	r0, #255	; 0xff
    c040:	e0833001 	add	r3, r3, r1
    c044:	e5c43000 	strb	r3, [r4]
    c048:	03a03000 	moveq	r3, #0	; 0x0
    c04c:	01a00003 	moveq	r0, r3
    c050:	05cc3000 	streqb	r3, [ip]
    c054:	e2803001 	add	r3, r0, #1	; 0x1
    c058:	e5cc3000 	strb	r3, [ip]
    c05c:	e7c71000 	strb	r1, [r7, r0]
    c060:	e5dc0000 	ldrb	r0, [ip]
    c064:	e35000ff 	cmp	r0, #255	; 0xff
    c068:	03a03000 	moveq	r3, #0	; 0x0
    c06c:	01a00003 	moveq	r0, r3
    c070:	05cc3000 	streqb	r3, [ip]
    c074:	e2803001 	add	r3, r0, #1	; 0x1
    c078:	e5cc3000 	strb	r3, [ip]
    c07c:	e5dc2000 	ldrb	r2, [ip]
    c080:	e5d43000 	ldrb	r3, [r4]
    c084:	e35200ff 	cmp	r2, #255	; 0xff
    c088:	e7c73000 	strb	r3, [r7, r0]
    c08c:	03a03000 	moveq	r3, #0	; 0x0
    c090:	05cc3000 	streqb	r3, [ip]
    c094:	e3a0c059 	mov	ip, #89	; 0x59
    c098:	e5dc3000 	ldrb	r3, [ip]
    c09c:	e1a03223 	mov	r3, r3, lsr #4
    c0a0:	e213e001 	ands	lr, r3, #1	; 0x1
    c0a4:	1a000015 	bne	c100 <.text+0x4100>
    c0a8:	e51f3510 	ldr	r3, [pc, #-1296]	; bba0 <.text+0x3ba0>
    c0ac:	e5d30000 	ldrb	r0, [r3]
    c0b0:	e5d33000 	ldrb	r3, [r3]
    c0b4:	e51f151c 	ldr	r1, [pc, #-1308]	; bba0 <.text+0x3ba0>
    c0b8:	e2833001 	add	r3, r3, #1	; 0x1
    c0bc:	e5c13000 	strb	r3, [r1]
    c0c0:	e5d12000 	ldrb	r2, [r1]
    c0c4:	e35200ff 	cmp	r2, #255	; 0xff
    c0c8:	e51f2538 	ldr	r2, [pc, #-1336]	; bb98 <.text+0x3b98>
    c0cc:	e7d71000 	ldrb	r1, [r7, r0]
    c0d0:	e5c2e000 	strb	lr, [r2]
    c0d4:	e51f3540 	ldr	r3, [pc, #-1344]	; bb9c <.text+0x3b9c>
    c0d8:	051f2540 	ldreq	r2, [pc, #-1344]	; bba0 <.text+0x3ba0>
    c0dc:	e5c31000 	strb	r1, [r3]
    c0e0:	05c2e000 	streqb	lr, [r2]
    c0e4:	e3a03058 	mov	r3, #88	; 0x58
    c0e8:	e5d32000 	ldrb	r2, [r3]
    c0ec:	e3822001 	orr	r2, r2, #1	; 0x1
    c0f0:	e5c32000 	strb	r2, [r3]
    c0f4:	e5dc1000 	ldrb	r1, [ip]
    c0f8:	e3811010 	orr	r1, r1, #16	; 0x10
    c0fc:	e5cc1000 	strb	r1, [ip]
    c100:	e51f3568 	ldr	r3, [pc, #-1384]	; bba0 <.text+0x3ba0>
    c104:	e51f0584 	ldr	r0, [pc, #-1412]	; bb88 <.text+0x3b88>
    c108:	e5d32000 	ldrb	r2, [r3]
    c10c:	e5d01000 	ldrb	r1, [r0]
    c110:	e1510002 	cmp	r1, r2
    c114:	251f257c 	ldrcs	r2, [pc, #-1404]	; bba0 <.text+0x3ba0>
    c118:	e3a03002 	mov	r3, #2	; 0x2
    c11c:	351f2584 	ldrcc	r2, [pc, #-1412]	; bba0 <.text+0x3ba0>
    c120:	e5c63000 	strb	r3, [r6]
    c124:	25d23000 	ldrcsb	r3, [r2]
    c128:	35d23000 	ldrccb	r3, [r2]
    c12c:	20633001 	rsbcs	r3, r3, r1
    c130:	226330ff 	rsbcs	r3, r3, #255	; 0xff
    c134:	30613003 	rsbcc	r3, r1, r3
    c138:	e3530006 	cmp	r3, #6	; 0x6
    c13c:	da0000b2 	ble	c40c <.text+0x440c>
    c140:	e51f05c0 	ldr	r0, [pc, #-1472]	; bb88 <.text+0x3b88>
    c144:	e5d03000 	ldrb	r3, [r0]
    c148:	e2832001 	add	r2, r3, #1	; 0x1
    c14c:	e5c02000 	strb	r2, [r0]
    c150:	e5d00000 	ldrb	r0, [r0]
    c154:	e51f55d0 	ldr	r5, [pc, #-1488]	; bb8c <.text+0x3b8c>
    c158:	e35000ff 	cmp	r0, #255	; 0xff
    c15c:	e3a02005 	mov	r2, #5	; 0x5
    c160:	e51fc5e0 	ldr	ip, [pc, #-1504]	; bb88 <.text+0x3b88>
    c164:	e7c52003 	strb	r2, [r5, r3]
    c168:	03a03000 	moveq	r3, #0	; 0x0
    c16c:	01a00003 	moveq	r0, r3
    c170:	05cc3000 	streqb	r3, [ip]
    c174:	e2803001 	add	r3, r0, #1	; 0x1
    c178:	e5cc3000 	strb	r3, [ip]
    c17c:	e3a02003 	mov	r2, #3	; 0x3
    c180:	e7c52000 	strb	r2, [r5, r0]
    c184:	e5dc0000 	ldrb	r0, [ip]
    c188:	e35000ff 	cmp	r0, #255	; 0xff
    c18c:	03a03000 	moveq	r3, #0	; 0x0
    c190:	05cc3000 	streqb	r3, [ip]
    c194:	e51f761c 	ldr	r7, [pc, #-1564]	; bb80 <.text+0x3b80>
    c198:	e5d71000 	ldrb	r1, [r7]
    c19c:	01a00003 	moveq	r0, r3
    c1a0:	e51f4618 	ldr	r4, [pc, #-1560]	; bb90 <.text+0x3b90>
    c1a4:	e2802001 	add	r2, r0, #1	; 0x1
    c1a8:	e2813003 	add	r3, r1, #3	; 0x3
    c1ac:	e5cc2000 	strb	r2, [ip]
    c1b0:	e5c43000 	strb	r3, [r4]
    c1b4:	e7c51000 	strb	r1, [r5, r0]
    c1b8:	e5d4e000 	ldrb	lr, [r4]
    c1bc:	e5dc0000 	ldrb	r0, [ip]
    c1c0:	e51f6634 	ldr	r6, [pc, #-1588]	; bb94 <.text+0x3b94>
    c1c4:	e28e3003 	add	r3, lr, #3	; 0x3
    c1c8:	e35000ff 	cmp	r0, #255	; 0xff
    c1cc:	e5c63000 	strb	r3, [r6]
    c1d0:	03a03000 	moveq	r3, #0	; 0x0
    c1d4:	05cc3000 	streqb	r3, [ip]
    c1d8:	e5d71001 	ldrb	r1, [r7, #1]
    c1dc:	01a00003 	moveq	r0, r3
    c1e0:	e2802001 	add	r2, r0, #1	; 0x1
    c1e4:	e081300e 	add	r3, r1, lr
    c1e8:	e5cc2000 	strb	r2, [ip]
    c1ec:	e5c43000 	strb	r3, [r4]
    c1f0:	e7c51000 	strb	r1, [r5, r0]
    c1f4:	e5d63000 	ldrb	r3, [r6]
    c1f8:	e5dc0000 	ldrb	r0, [ip]
    c1fc:	e5d41000 	ldrb	r1, [r4]
    c200:	e35000ff 	cmp	r0, #255	; 0xff
    c204:	e0833001 	add	r3, r3, r1
    c208:	e5c63000 	strb	r3, [r6]
    c20c:	03a03000 	moveq	r3, #0	; 0x0
    c210:	01a00003 	moveq	r0, r3
    c214:	05cc3000 	streqb	r3, [ip]
    c218:	e2803001 	add	r3, r0, #1	; 0x1
    c21c:	e5cc3000 	strb	r3, [ip]
    c220:	e7c51000 	strb	r1, [r5, r0]
    c224:	e5dc0000 	ldrb	r0, [ip]
    c228:	e35000ff 	cmp	r0, #255	; 0xff
    c22c:	03a03000 	moveq	r3, #0	; 0x0
    c230:	01a00003 	moveq	r0, r3
    c234:	05cc3000 	streqb	r3, [ip]
    c238:	e2803001 	add	r3, r0, #1	; 0x1
    c23c:	e5cc3000 	strb	r3, [ip]
    c240:	e5dc2000 	ldrb	r2, [ip]
    c244:	e5d63000 	ldrb	r3, [r6]
    c248:	e35200ff 	cmp	r2, #255	; 0xff
    c24c:	e7c53000 	strb	r3, [r5, r0]
    c250:	03a03000 	moveq	r3, #0	; 0x0
    c254:	05cc3000 	streqb	r3, [ip]
    c258:	e3a0c059 	mov	ip, #89	; 0x59
    c25c:	e5dc3000 	ldrb	r3, [ip]
    c260:	e1a03223 	mov	r3, r3, lsr #4
    c264:	e213e001 	ands	lr, r3, #1	; 0x1
    c268:	1afffde7 	bne	ba0c <radio_control_task+0x504>
    c26c:	e51f16d4 	ldr	r1, [pc, #-1748]	; bba0 <.text+0x3ba0>
    c270:	e5d10000 	ldrb	r0, [r1]
    c274:	e5d13000 	ldrb	r3, [r1]
    c278:	e2833001 	add	r3, r3, #1	; 0x1
    c27c:	e5c13000 	strb	r3, [r1]
    c280:	e5d12000 	ldrb	r2, [r1]
    c284:	e35200ff 	cmp	r2, #255	; 0xff
    c288:	e51f26f8 	ldr	r2, [pc, #-1784]	; bb98 <.text+0x3b98>
    c28c:	e7d51000 	ldrb	r1, [r5, r0]
    c290:	e51f36fc 	ldr	r3, [pc, #-1788]	; bb9c <.text+0x3b9c>
    c294:	e5c2e000 	strb	lr, [r2]
    c298:	051f2700 	ldreq	r2, [pc, #-1792]	; bba0 <.text+0x3ba0>
    c29c:	e5c31000 	strb	r1, [r3]
    c2a0:	05c2e000 	streqb	lr, [r2]
    c2a4:	e3a03058 	mov	r3, #88	; 0x58
    c2a8:	e5d32000 	ldrb	r2, [r3]
    c2ac:	e3822001 	orr	r2, r2, #1	; 0x1
    c2b0:	e5c32000 	strb	r2, [r3]
    c2b4:	e5dc1000 	ldrb	r1, [ip]
    c2b8:	e3811010 	orr	r1, r1, #16	; 0x10
    c2bc:	e5cc1000 	strb	r1, [ip]
    c2c0:	eafffdd1 	b	ba0c <radio_control_task+0x504>
    c2c4:	e51f2748 	ldr	r2, [pc, #-1864]	; bb84 <.text+0x3b84>
    c2c8:	e5d23000 	ldrb	r3, [r2]
    c2cc:	e3530000 	cmp	r3, #0	; 0x0
    c2d0:	01a01003 	moveq	r1, r3
    c2d4:	0afffcbc 	beq	b5cc <radio_control_task+0xc4>
    c2d8:	e3a03000 	mov	r3, #0	; 0x0
    c2dc:	e5c23000 	strb	r3, [r2]
    c2e0:	eafffcad 	b	b59c <radio_control_task+0x94>
    c2e4:	e51f3764 	ldr	r3, [pc, #-1892]	; bb88 <.text+0x3b88>
    c2e8:	e51f0750 	ldr	r0, [pc, #-1872]	; bba0 <.text+0x3ba0>
    c2ec:	e5d31000 	ldrb	r1, [r3]
    c2f0:	e5d03000 	ldrb	r3, [r0]
    c2f4:	e1510003 	cmp	r1, r3
    c2f8:	e5c62000 	strb	r2, [r6]
    c2fc:	351f2764 	ldrcc	r2, [pc, #-1892]	; bba0 <.text+0x3ba0>
    c300:	25d03000 	ldrcsb	r3, [r0]
    c304:	35d23000 	ldrccb	r3, [r2]
    c308:	20633001 	rsbcs	r3, r3, r1
    c30c:	226330ff 	rsbcs	r3, r3, #255	; 0xff
    c310:	30613003 	rsbcc	r3, r1, r3
    c314:	e3530004 	cmp	r3, #4	; 0x4
    c318:	da00003b 	ble	c40c <.text+0x440c>
    c31c:	e51f079c 	ldr	r0, [pc, #-1948]	; bb88 <.text+0x3b88>
    c320:	e5d03000 	ldrb	r3, [r0]
    c324:	e2832001 	add	r2, r3, #1	; 0x1
    c328:	e5c02000 	strb	r2, [r0]
    c32c:	e5d01000 	ldrb	r1, [r0]
    c330:	e51fe7ac 	ldr	lr, [pc, #-1964]	; bb8c <.text+0x3b8c>
    c334:	e35100ff 	cmp	r1, #255	; 0xff
    c338:	e3a02005 	mov	r2, #5	; 0x5
    c33c:	e7ce2003 	strb	r2, [lr, r3]
    c340:	03a03000 	moveq	r3, #0	; 0x0
    c344:	01a01003 	moveq	r1, r3
    c348:	05c03000 	streqb	r3, [r0]
    c34c:	e2813001 	add	r3, r1, #1	; 0x1
    c350:	e5c03000 	strb	r3, [r0]
    c354:	e3a0c002 	mov	ip, #2	; 0x2
    c358:	e7cec001 	strb	ip, [lr, r1]
    c35c:	e5d01000 	ldrb	r1, [r0]
    c360:	e35100ff 	cmp	r1, #255	; 0xff
    c364:	03a03000 	moveq	r3, #0	; 0x0
    c368:	01a01003 	moveq	r1, r3
    c36c:	05c03000 	streqb	r3, [r0]
    c370:	e2813001 	add	r3, r1, #1	; 0x1
    c374:	e5c03000 	strb	r3, [r0]
    c378:	e7cec001 	strb	ip, [lr, r1]
    c37c:	e5d01000 	ldrb	r1, [r0]
    c380:	e51f37f8 	ldr	r3, [pc, #-2040]	; bb90 <.text+0x3b90>
    c384:	e35100ff 	cmp	r1, #255	; 0xff
    c388:	e5c3c000 	strb	ip, [r3]
    c38c:	03a03000 	moveq	r3, #0	; 0x0
    c390:	01a01003 	moveq	r1, r3
    c394:	05c03000 	streqb	r3, [r0]
    c398:	e2813001 	add	r3, r1, #1	; 0x1
    c39c:	e5c03000 	strb	r3, [r0]
    c3a0:	e51f2814 	ldr	r2, [pc, #-2068]	; bb94 <.text+0x3b94>
    c3a4:	e5c2c000 	strb	ip, [r2]
    c3a8:	e5d02000 	ldrb	r2, [r0]
    c3ac:	e35200ff 	cmp	r2, #255	; 0xff
    c3b0:	03a03000 	moveq	r3, #0	; 0x0
    c3b4:	e7cec001 	strb	ip, [lr, r1]
    c3b8:	05c03000 	streqb	r3, [r0]
    c3bc:	e3a0c059 	mov	ip, #89	; 0x59
    c3c0:	e5dc3000 	ldrb	r3, [ip]
    c3c4:	e1a03223 	mov	r3, r3, lsr #4
    c3c8:	e2134001 	ands	r4, r3, #1	; 0x1
    c3cc:	1afffd8e 	bne	ba0c <radio_control_task+0x504>
    c3d0:	e51f1838 	ldr	r1, [pc, #-2104]	; bba0 <.text+0x3ba0>
    c3d4:	e5d10000 	ldrb	r0, [r1]
    c3d8:	e5d13000 	ldrb	r3, [r1]
    c3dc:	e2833001 	add	r3, r3, #1	; 0x1
    c3e0:	e5c13000 	strb	r3, [r1]
    c3e4:	e5d12000 	ldrb	r2, [r1]
    c3e8:	e35200ff 	cmp	r2, #255	; 0xff
    c3ec:	e51f285c 	ldr	r2, [pc, #-2140]	; bb98 <.text+0x3b98>
    c3f0:	e7de1000 	ldrb	r1, [lr, r0]
    c3f4:	e51f3860 	ldr	r3, [pc, #-2144]	; bb9c <.text+0x3b9c>
    c3f8:	e5c24000 	strb	r4, [r2]
    c3fc:	051f2864 	ldreq	r2, [pc, #-2148]	; bba0 <.text+0x3ba0>
    c400:	e5c31000 	strb	r1, [r3]
    c404:	05c24000 	streqb	r4, [r2]
    c408:	eaffffa5 	b	c2a4 <.text+0x42a4>
    c40c:	e51f2870 	ldr	r2, [pc, #-2160]	; bba4 <.text+0x3ba4>
    c410:	e5d23000 	ldrb	r3, [r2]
    c414:	e2833001 	add	r3, r3, #1	; 0x1
    c418:	e5c23000 	strb	r3, [r2]
    c41c:	eafffd7a 	b	ba0c <radio_control_task+0x504>

0000c420 <navigation_update>:
    c420:	e59f301c 	ldr	r3, [pc, #28]	; c444 <.text+0x4444>
    c424:	e5d32000 	ldrb	r2, [r3]
    c428:	e59f3018 	ldr	r3, [pc, #24]	; c448 <.text+0x4448>
    c42c:	e3a01003 	mov	r1, #3	; 0x3
    c430:	e3520003 	cmp	r2, #3	; 0x3
    c434:	e5c31000 	strb	r1, [r3]
    c438:	0a000000 	beq	c440 <navigation_update+0x20>
    c43c:	ea000d6c 	b	f9f4 <nav_update>
    c440:	ea000c91 	b	f68c <nav_home>
    c444:	000135a4 	andeq	r3, r1, r4, lsr #11
    c448:	000135a2 	andeq	r3, r1, r2, lsr #11

0000c44c <send_nav_values>:
    c44c:	e92d40f0 	stmdb	sp!, {r4, r5, r6, r7, lr}
    c450:	e59f176c 	ldr	r1, [pc, #1900]	; cbc4 <.text+0x4bc4>
    c454:	e59f776c 	ldr	r7, [pc, #1900]	; cbc8 <.text+0x4bc8>
    c458:	e5d12000 	ldrb	r2, [r1]
    c45c:	e5d73000 	ldrb	r3, [r7]
    c460:	e1520003 	cmp	r2, r3
    c464:	25d73000 	ldrcsb	r3, [r7]
    c468:	35d73000 	ldrccb	r3, [r7]
    c46c:	20633002 	rsbcs	r3, r3, r2
    c470:	30623003 	rsbcc	r3, r2, r3
    c474:	226330ff 	rsbcs	r3, r3, #255	; 0xff
    c478:	e353001e 	cmp	r3, #30	; 0x1e
    c47c:	d59f2748 	ldrle	r2, [pc, #1864]	; cbcc <.text+0x4bcc>
    c480:	d5d23000 	ldrleb	r3, [r2]
    c484:	d2833001 	addle	r3, r3, #1	; 0x1
    c488:	d5c23000 	strleb	r3, [r2]
    c48c:	d8bd80f0 	ldmleia	sp!, {r4, r5, r6, r7, pc}
    c490:	e5d13000 	ldrb	r3, [r1]
    c494:	e2832001 	add	r2, r3, #1	; 0x1
    c498:	e5c12000 	strb	r2, [r1]
    c49c:	e5d10000 	ldrb	r0, [r1]
    c4a0:	e59f5728 	ldr	r5, [pc, #1832]	; cbd0 <.text+0x4bd0>
    c4a4:	e35000ff 	cmp	r0, #255	; 0xff
    c4a8:	e3a02005 	mov	r2, #5	; 0x5
    c4ac:	e7c52003 	strb	r2, [r5, r3]
    c4b0:	03a03000 	moveq	r3, #0	; 0x0
    c4b4:	e59fc708 	ldr	ip, [pc, #1800]	; cbc4 <.text+0x4bc4>
    c4b8:	01a00003 	moveq	r0, r3
    c4bc:	05c13000 	streqb	r3, [r1]
    c4c0:	e2803001 	add	r3, r0, #1	; 0x1
    c4c4:	e5cc3000 	strb	r3, [ip]
    c4c8:	e3a0200a 	mov	r2, #10	; 0xa
    c4cc:	e7c52000 	strb	r2, [r5, r0]
    c4d0:	e5dc0000 	ldrb	r0, [ip]
    c4d4:	e35000ff 	cmp	r0, #255	; 0xff
    c4d8:	03a03000 	moveq	r3, #0	; 0x0
    c4dc:	05cc3000 	streqb	r3, [ip]
    c4e0:	01a00003 	moveq	r0, r3
    c4e4:	e59f36e8 	ldr	r3, [pc, #1768]	; cbd4 <.text+0x4bd4>
    c4e8:	e5d31000 	ldrb	r1, [r3]
    c4ec:	e59fe6e4 	ldr	lr, [pc, #1764]	; cbd8 <.text+0x4bd8>
    c4f0:	e2802001 	add	r2, r0, #1	; 0x1
    c4f4:	e281300a 	add	r3, r1, #10	; 0xa
    c4f8:	e5cc2000 	strb	r2, [ip]
    c4fc:	e5ce3000 	strb	r3, [lr]
    c500:	e7c51000 	strb	r1, [r5, r0]
    c504:	e5de2000 	ldrb	r2, [lr]
    c508:	e5dc0000 	ldrb	r0, [ip]
    c50c:	e59f46c8 	ldr	r4, [pc, #1736]	; cbdc <.text+0x4bdc>
    c510:	e282300a 	add	r3, r2, #10	; 0xa
    c514:	e35000ff 	cmp	r0, #255	; 0xff
    c518:	e5c43000 	strb	r3, [r4]
    c51c:	03a03000 	moveq	r3, #0	; 0x0
    c520:	05cc3000 	streqb	r3, [ip]
    c524:	01a00003 	moveq	r0, r3
    c528:	e59f36b0 	ldr	r3, [pc, #1712]	; cbe0 <.text+0x4be0>
    c52c:	e5d31000 	ldrb	r1, [r3]
    c530:	e2803001 	add	r3, r0, #1	; 0x1
    c534:	e0822001 	add	r2, r2, r1
    c538:	e5cc3000 	strb	r3, [ip]
    c53c:	e5ce2000 	strb	r2, [lr]
    c540:	e7c51000 	strb	r1, [r5, r0]
    c544:	e5de2000 	ldrb	r2, [lr]
    c548:	e5dc0000 	ldrb	r0, [ip]
    c54c:	e5d43000 	ldrb	r3, [r4]
    c550:	e35000ff 	cmp	r0, #255	; 0xff
    c554:	e0833002 	add	r3, r3, r2
    c558:	e5c43000 	strb	r3, [r4]
    c55c:	03a03000 	moveq	r3, #0	; 0x0
    c560:	05cc3000 	streqb	r3, [ip]
    c564:	e59f6678 	ldr	r6, [pc, #1656]	; cbe4 <.text+0x4be4>
    c568:	e5d61000 	ldrb	r1, [r6]
    c56c:	01a00003 	moveq	r0, r3
    c570:	e0813002 	add	r3, r1, r2
    c574:	e2802001 	add	r2, r0, #1	; 0x1
    c578:	e5ce3000 	strb	r3, [lr]
    c57c:	e5cc2000 	strb	r2, [ip]
    c580:	e7c51000 	strb	r1, [r5, r0]
    c584:	e5de2000 	ldrb	r2, [lr]
    c588:	e5dc0000 	ldrb	r0, [ip]
    c58c:	e5d43000 	ldrb	r3, [r4]
    c590:	e35000ff 	cmp	r0, #255	; 0xff
    c594:	e0833002 	add	r3, r3, r2
    c598:	e5c43000 	strb	r3, [r4]
    c59c:	03a03000 	moveq	r3, #0	; 0x0
    c5a0:	05cc3000 	streqb	r3, [ip]
    c5a4:	e5d61001 	ldrb	r1, [r6, #1]
    c5a8:	01a00003 	moveq	r0, r3
    c5ac:	e0813002 	add	r3, r1, r2
    c5b0:	e2802001 	add	r2, r0, #1	; 0x1
    c5b4:	e5cc2000 	strb	r2, [ip]
    c5b8:	e5ce3000 	strb	r3, [lr]
    c5bc:	e7c51000 	strb	r1, [r5, r0]
    c5c0:	e5de2000 	ldrb	r2, [lr]
    c5c4:	e5dc0000 	ldrb	r0, [ip]
    c5c8:	e5d43000 	ldrb	r3, [r4]
    c5cc:	e35000ff 	cmp	r0, #255	; 0xff
    c5d0:	e0833002 	add	r3, r3, r2
    c5d4:	e5c43000 	strb	r3, [r4]
    c5d8:	03a03000 	moveq	r3, #0	; 0x0
    c5dc:	05cc3000 	streqb	r3, [ip]
    c5e0:	e5d61002 	ldrb	r1, [r6, #2]
    c5e4:	01a00003 	moveq	r0, r3
    c5e8:	e0813002 	add	r3, r1, r2
    c5ec:	e2802001 	add	r2, r0, #1	; 0x1
    c5f0:	e5cc2000 	strb	r2, [ip]
    c5f4:	e5ce3000 	strb	r3, [lr]
    c5f8:	e7c51000 	strb	r1, [r5, r0]
    c5fc:	e5de2000 	ldrb	r2, [lr]
    c600:	e5dc0000 	ldrb	r0, [ip]
    c604:	e5d43000 	ldrb	r3, [r4]
    c608:	e35000ff 	cmp	r0, #255	; 0xff
    c60c:	e0833002 	add	r3, r3, r2
    c610:	e5c43000 	strb	r3, [r4]
    c614:	03a03000 	moveq	r3, #0	; 0x0
    c618:	05cc3000 	streqb	r3, [ip]
    c61c:	e5d61003 	ldrb	r1, [r6, #3]
    c620:	01a00003 	moveq	r0, r3
    c624:	e0813002 	add	r3, r1, r2
    c628:	e2802001 	add	r2, r0, #1	; 0x1
    c62c:	e5cc2000 	strb	r2, [ip]
    c630:	e5ce3000 	strb	r3, [lr]
    c634:	e7c51000 	strb	r1, [r5, r0]
    c638:	e5de2000 	ldrb	r2, [lr]
    c63c:	e5dc0000 	ldrb	r0, [ip]
    c640:	e5d43000 	ldrb	r3, [r4]
    c644:	e35000ff 	cmp	r0, #255	; 0xff
    c648:	e0833002 	add	r3, r3, r2
    c64c:	e5c43000 	strb	r3, [r4]
    c650:	03a03000 	moveq	r3, #0	; 0x0
    c654:	05cc3000 	streqb	r3, [ip]
    c658:	e59f6588 	ldr	r6, [pc, #1416]	; cbe8 <.text+0x4be8>
    c65c:	e5d61000 	ldrb	r1, [r6]
    c660:	01a00003 	moveq	r0, r3
    c664:	e0813002 	add	r3, r1, r2
    c668:	e2802001 	add	r2, r0, #1	; 0x1
    c66c:	e5ce3000 	strb	r3, [lr]
    c670:	e5cc2000 	strb	r2, [ip]
    c674:	e7c51000 	strb	r1, [r5, r0]
    c678:	e5de2000 	ldrb	r2, [lr]
    c67c:	e5dc0000 	ldrb	r0, [ip]
    c680:	e5d43000 	ldrb	r3, [r4]
    c684:	e35000ff 	cmp	r0, #255	; 0xff
    c688:	e0833002 	add	r3, r3, r2
    c68c:	e5c43000 	strb	r3, [r4]
    c690:	03a03000 	moveq	r3, #0	; 0x0
    c694:	05cc3000 	streqb	r3, [ip]
    c698:	e5d61001 	ldrb	r1, [r6, #1]
    c69c:	01a00003 	moveq	r0, r3
    c6a0:	e0813002 	add	r3, r1, r2
    c6a4:	e2802001 	add	r2, r0, #1	; 0x1
    c6a8:	e5cc2000 	strb	r2, [ip]
    c6ac:	e5ce3000 	strb	r3, [lr]
    c6b0:	e7c51000 	strb	r1, [r5, r0]
    c6b4:	e5de2000 	ldrb	r2, [lr]
    c6b8:	e5dc0000 	ldrb	r0, [ip]
    c6bc:	e5d43000 	ldrb	r3, [r4]
    c6c0:	e35000ff 	cmp	r0, #255	; 0xff
    c6c4:	e0833002 	add	r3, r3, r2
    c6c8:	e5c43000 	strb	r3, [r4]
    c6cc:	03a03000 	moveq	r3, #0	; 0x0
    c6d0:	05cc3000 	streqb	r3, [ip]
    c6d4:	e5d61002 	ldrb	r1, [r6, #2]
    c6d8:	01a00003 	moveq	r0, r3
    c6dc:	e0813002 	add	r3, r1, r2
    c6e0:	e2802001 	add	r2, r0, #1	; 0x1
    c6e4:	e5cc2000 	strb	r2, [ip]
    c6e8:	e5ce3000 	strb	r3, [lr]
    c6ec:	e7c51000 	strb	r1, [r5, r0]
    c6f0:	e5de2000 	ldrb	r2, [lr]
    c6f4:	e5dc0000 	ldrb	r0, [ip]
    c6f8:	e5d43000 	ldrb	r3, [r4]
    c6fc:	e35000ff 	cmp	r0, #255	; 0xff
    c700:	e0833002 	add	r3, r3, r2
    c704:	e5c43000 	strb	r3, [r4]
    c708:	03a03000 	moveq	r3, #0	; 0x0
    c70c:	05cc3000 	streqb	r3, [ip]
    c710:	e5d61003 	ldrb	r1, [r6, #3]
    c714:	01a00003 	moveq	r0, r3
    c718:	e0813002 	add	r3, r1, r2
    c71c:	e2802001 	add	r2, r0, #1	; 0x1
    c720:	e5cc2000 	strb	r2, [ip]
    c724:	e5ce3000 	strb	r3, [lr]
    c728:	e7c51000 	strb	r1, [r5, r0]
    c72c:	e5de2000 	ldrb	r2, [lr]
    c730:	e5dc0000 	ldrb	r0, [ip]
    c734:	e5d43000 	ldrb	r3, [r4]
    c738:	e35000ff 	cmp	r0, #255	; 0xff
    c73c:	e0833002 	add	r3, r3, r2
    c740:	e5c43000 	strb	r3, [r4]
    c744:	03a03000 	moveq	r3, #0	; 0x0
    c748:	05cc3000 	streqb	r3, [ip]
    c74c:	e59f6498 	ldr	r6, [pc, #1176]	; cbec <.text+0x4bec>
    c750:	e5d61000 	ldrb	r1, [r6]
    c754:	01a00003 	moveq	r0, r3
    c758:	e0813002 	add	r3, r1, r2
    c75c:	e2802001 	add	r2, r0, #1	; 0x1
    c760:	e5ce3000 	strb	r3, [lr]
    c764:	e5cc2000 	strb	r2, [ip]
    c768:	e7c51000 	strb	r1, [r5, r0]
    c76c:	e5de2000 	ldrb	r2, [lr]
    c770:	e5dc0000 	ldrb	r0, [ip]
    c774:	e5d43000 	ldrb	r3, [r4]
    c778:	e35000ff 	cmp	r0, #255	; 0xff
    c77c:	e0833002 	add	r3, r3, r2
    c780:	e5c43000 	strb	r3, [r4]
    c784:	03a03000 	moveq	r3, #0	; 0x0
    c788:	05cc3000 	streqb	r3, [ip]
    c78c:	e5d61001 	ldrb	r1, [r6, #1]
    c790:	01a00003 	moveq	r0, r3
    c794:	e0813002 	add	r3, r1, r2
    c798:	e2802001 	add	r2, r0, #1	; 0x1
    c79c:	e5cc2000 	strb	r2, [ip]
    c7a0:	e5ce3000 	strb	r3, [lr]
    c7a4:	e7c51000 	strb	r1, [r5, r0]
    c7a8:	e5de2000 	ldrb	r2, [lr]
    c7ac:	e5dc0000 	ldrb	r0, [ip]
    c7b0:	e5d43000 	ldrb	r3, [r4]
    c7b4:	e35000ff 	cmp	r0, #255	; 0xff
    c7b8:	e0833002 	add	r3, r3, r2
    c7bc:	e5c43000 	strb	r3, [r4]
    c7c0:	03a03000 	moveq	r3, #0	; 0x0
    c7c4:	05cc3000 	streqb	r3, [ip]
    c7c8:	e5d61002 	ldrb	r1, [r6, #2]
    c7cc:	01a00003 	moveq	r0, r3
    c7d0:	e0813002 	add	r3, r1, r2
    c7d4:	e2802001 	add	r2, r0, #1	; 0x1
    c7d8:	e5cc2000 	strb	r2, [ip]
    c7dc:	e5ce3000 	strb	r3, [lr]
    c7e0:	e7c51000 	strb	r1, [r5, r0]
    c7e4:	e5de2000 	ldrb	r2, [lr]
    c7e8:	e5dc0000 	ldrb	r0, [ip]
    c7ec:	e5d43000 	ldrb	r3, [r4]
    c7f0:	e35000ff 	cmp	r0, #255	; 0xff
    c7f4:	e0833002 	add	r3, r3, r2
    c7f8:	e5c43000 	strb	r3, [r4]
    c7fc:	03a03000 	moveq	r3, #0	; 0x0
    c800:	05cc3000 	streqb	r3, [ip]
    c804:	e5d61003 	ldrb	r1, [r6, #3]
    c808:	01a00003 	moveq	r0, r3
    c80c:	e0813002 	add	r3, r1, r2
    c810:	e2802001 	add	r2, r0, #1	; 0x1
    c814:	e5cc2000 	strb	r2, [ip]
    c818:	e5ce3000 	strb	r3, [lr]
    c81c:	e7c51000 	strb	r1, [r5, r0]
    c820:	e5de2000 	ldrb	r2, [lr]
    c824:	e5dc0000 	ldrb	r0, [ip]
    c828:	e5d43000 	ldrb	r3, [r4]
    c82c:	e35000ff 	cmp	r0, #255	; 0xff
    c830:	e0833002 	add	r3, r3, r2
    c834:	e5c43000 	strb	r3, [r4]
    c838:	03a03000 	moveq	r3, #0	; 0x0
    c83c:	05cc3000 	streqb	r3, [ip]
    c840:	e59f63a8 	ldr	r6, [pc, #936]	; cbf0 <.text+0x4bf0>
    c844:	e5d61000 	ldrb	r1, [r6]
    c848:	01a00003 	moveq	r0, r3
    c84c:	e0813002 	add	r3, r1, r2
    c850:	e2802001 	add	r2, r0, #1	; 0x1
    c854:	e5ce3000 	strb	r3, [lr]
    c858:	e5cc2000 	strb	r2, [ip]
    c85c:	e7c51000 	strb	r1, [r5, r0]
    c860:	e5de2000 	ldrb	r2, [lr]
    c864:	e5dc0000 	ldrb	r0, [ip]
    c868:	e5d43000 	ldrb	r3, [r4]
    c86c:	e35000ff 	cmp	r0, #255	; 0xff
    c870:	e0833002 	add	r3, r3, r2
    c874:	e5c43000 	strb	r3, [r4]
    c878:	03a03000 	moveq	r3, #0	; 0x0
    c87c:	05cc3000 	streqb	r3, [ip]
    c880:	e5d61001 	ldrb	r1, [r6, #1]
    c884:	01a00003 	moveq	r0, r3
    c888:	e0813002 	add	r3, r1, r2
    c88c:	e2802001 	add	r2, r0, #1	; 0x1
    c890:	e5cc2000 	strb	r2, [ip]
    c894:	e5ce3000 	strb	r3, [lr]
    c898:	e7c51000 	strb	r1, [r5, r0]
    c89c:	e5de2000 	ldrb	r2, [lr]
    c8a0:	e5dc0000 	ldrb	r0, [ip]
    c8a4:	e5d43000 	ldrb	r3, [r4]
    c8a8:	e35000ff 	cmp	r0, #255	; 0xff
    c8ac:	e0833002 	add	r3, r3, r2
    c8b0:	e5c43000 	strb	r3, [r4]
    c8b4:	03a03000 	moveq	r3, #0	; 0x0
    c8b8:	05cc3000 	streqb	r3, [ip]
    c8bc:	e5d61002 	ldrb	r1, [r6, #2]
    c8c0:	01a00003 	moveq	r0, r3
    c8c4:	e0813002 	add	r3, r1, r2
    c8c8:	e2802001 	add	r2, r0, #1	; 0x1
    c8cc:	e5cc2000 	strb	r2, [ip]
    c8d0:	e5ce3000 	strb	r3, [lr]
    c8d4:	e7c51000 	strb	r1, [r5, r0]
    c8d8:	e5de2000 	ldrb	r2, [lr]
    c8dc:	e5dc0000 	ldrb	r0, [ip]
    c8e0:	e5d43000 	ldrb	r3, [r4]
    c8e4:	e35000ff 	cmp	r0, #255	; 0xff
    c8e8:	e0833002 	add	r3, r3, r2
    c8ec:	e5c43000 	strb	r3, [r4]
    c8f0:	03a03000 	moveq	r3, #0	; 0x0
    c8f4:	05cc3000 	streqb	r3, [ip]
    c8f8:	e5d61003 	ldrb	r1, [r6, #3]
    c8fc:	01a00003 	moveq	r0, r3
    c900:	e0813002 	add	r3, r1, r2
    c904:	e2802001 	add	r2, r0, #1	; 0x1
    c908:	e5cc2000 	strb	r2, [ip]
    c90c:	e5ce3000 	strb	r3, [lr]
    c910:	e7c51000 	strb	r1, [r5, r0]
    c914:	e5de2000 	ldrb	r2, [lr]
    c918:	e5dc0000 	ldrb	r0, [ip]
    c91c:	e5d43000 	ldrb	r3, [r4]
    c920:	e35000ff 	cmp	r0, #255	; 0xff
    c924:	e0833002 	add	r3, r3, r2
    c928:	e5c43000 	strb	r3, [r4]
    c92c:	03a03000 	moveq	r3, #0	; 0x0
    c930:	05cc3000 	streqb	r3, [ip]
    c934:	e59f62b8 	ldr	r6, [pc, #696]	; cbf4 <.text+0x4bf4>
    c938:	e5d61000 	ldrb	r1, [r6]
    c93c:	01a00003 	moveq	r0, r3
    c940:	e0813002 	add	r3, r1, r2
    c944:	e2802001 	add	r2, r0, #1	; 0x1
    c948:	e5ce3000 	strb	r3, [lr]
    c94c:	e5cc2000 	strb	r2, [ip]
    c950:	e7c51000 	strb	r1, [r5, r0]
    c954:	e5de2000 	ldrb	r2, [lr]
    c958:	e5dc0000 	ldrb	r0, [ip]
    c95c:	e5d43000 	ldrb	r3, [r4]
    c960:	e35000ff 	cmp	r0, #255	; 0xff
    c964:	e0833002 	add	r3, r3, r2
    c968:	e5c43000 	strb	r3, [r4]
    c96c:	03a03000 	moveq	r3, #0	; 0x0
    c970:	05cc3000 	streqb	r3, [ip]
    c974:	e5d61001 	ldrb	r1, [r6, #1]
    c978:	01a00003 	moveq	r0, r3
    c97c:	e0813002 	add	r3, r1, r2
    c980:	e2802001 	add	r2, r0, #1	; 0x1
    c984:	e5cc2000 	strb	r2, [ip]
    c988:	e5ce3000 	strb	r3, [lr]
    c98c:	e7c51000 	strb	r1, [r5, r0]
    c990:	e5de2000 	ldrb	r2, [lr]
    c994:	e5dc0000 	ldrb	r0, [ip]
    c998:	e5d43000 	ldrb	r3, [r4]
    c99c:	e35000ff 	cmp	r0, #255	; 0xff
    c9a0:	e0833002 	add	r3, r3, r2
    c9a4:	e5c43000 	strb	r3, [r4]
    c9a8:	03a03000 	moveq	r3, #0	; 0x0
    c9ac:	05cc3000 	streqb	r3, [ip]
    c9b0:	e5d61002 	ldrb	r1, [r6, #2]
    c9b4:	01a00003 	moveq	r0, r3
    c9b8:	e0813002 	add	r3, r1, r2
    c9bc:	e2802001 	add	r2, r0, #1	; 0x1
    c9c0:	e5cc2000 	strb	r2, [ip]
    c9c4:	e5ce3000 	strb	r3, [lr]
    c9c8:	e7c51000 	strb	r1, [r5, r0]
    c9cc:	e5de2000 	ldrb	r2, [lr]
    c9d0:	e5dc0000 	ldrb	r0, [ip]
    c9d4:	e5d43000 	ldrb	r3, [r4]
    c9d8:	e35000ff 	cmp	r0, #255	; 0xff
    c9dc:	e0833002 	add	r3, r3, r2
    c9e0:	e5c43000 	strb	r3, [r4]
    c9e4:	03a03000 	moveq	r3, #0	; 0x0
    c9e8:	05cc3000 	streqb	r3, [ip]
    c9ec:	e5d61003 	ldrb	r1, [r6, #3]
    c9f0:	01a00003 	moveq	r0, r3
    c9f4:	e0813002 	add	r3, r1, r2
    c9f8:	e2802001 	add	r2, r0, #1	; 0x1
    c9fc:	e5cc2000 	strb	r2, [ip]
    ca00:	e5ce3000 	strb	r3, [lr]
    ca04:	e7c51000 	strb	r1, [r5, r0]
    ca08:	e5de2000 	ldrb	r2, [lr]
    ca0c:	e5dc0000 	ldrb	r0, [ip]
    ca10:	e5d43000 	ldrb	r3, [r4]
    ca14:	e35000ff 	cmp	r0, #255	; 0xff
    ca18:	e0833002 	add	r3, r3, r2
    ca1c:	e5c43000 	strb	r3, [r4]
    ca20:	03a03000 	moveq	r3, #0	; 0x0
    ca24:	05cc3000 	streqb	r3, [ip]
    ca28:	e59f61c8 	ldr	r6, [pc, #456]	; cbf8 <.text+0x4bf8>
    ca2c:	e5d61000 	ldrb	r1, [r6]
    ca30:	01a00003 	moveq	r0, r3
    ca34:	e0813002 	add	r3, r1, r2
    ca38:	e2802001 	add	r2, r0, #1	; 0x1
    ca3c:	e5ce3000 	strb	r3, [lr]
    ca40:	e5cc2000 	strb	r2, [ip]
    ca44:	e7c51000 	strb	r1, [r5, r0]
    ca48:	e5de2000 	ldrb	r2, [lr]
    ca4c:	e5dc0000 	ldrb	r0, [ip]
    ca50:	e5d43000 	ldrb	r3, [r4]
    ca54:	e35000ff 	cmp	r0, #255	; 0xff
    ca58:	e0833002 	add	r3, r3, r2
    ca5c:	e5c43000 	strb	r3, [r4]
    ca60:	03a03000 	moveq	r3, #0	; 0x0
    ca64:	05cc3000 	streqb	r3, [ip]
    ca68:	e5d61001 	ldrb	r1, [r6, #1]
    ca6c:	01a00003 	moveq	r0, r3
    ca70:	e0813002 	add	r3, r1, r2
    ca74:	e2802001 	add	r2, r0, #1	; 0x1
    ca78:	e5cc2000 	strb	r2, [ip]
    ca7c:	e5ce3000 	strb	r3, [lr]
    ca80:	e7c51000 	strb	r1, [r5, r0]
    ca84:	e5de2000 	ldrb	r2, [lr]
    ca88:	e5dc0000 	ldrb	r0, [ip]
    ca8c:	e5d43000 	ldrb	r3, [r4]
    ca90:	e35000ff 	cmp	r0, #255	; 0xff
    ca94:	e0833002 	add	r3, r3, r2
    ca98:	e5c43000 	strb	r3, [r4]
    ca9c:	03a03000 	moveq	r3, #0	; 0x0
    caa0:	05cc3000 	streqb	r3, [ip]
    caa4:	e5d61002 	ldrb	r1, [r6, #2]
    caa8:	01a00003 	moveq	r0, r3
    caac:	e0813002 	add	r3, r1, r2
    cab0:	e2802001 	add	r2, r0, #1	; 0x1
    cab4:	e5cc2000 	strb	r2, [ip]
    cab8:	e5ce3000 	strb	r3, [lr]
    cabc:	e7c51000 	strb	r1, [r5, r0]
    cac0:	e5de2000 	ldrb	r2, [lr]
    cac4:	e5dc0000 	ldrb	r0, [ip]
    cac8:	e5d43000 	ldrb	r3, [r4]
    cacc:	e35000ff 	cmp	r0, #255	; 0xff
    cad0:	e0833002 	add	r3, r3, r2
    cad4:	e5c43000 	strb	r3, [r4]
    cad8:	03a03000 	moveq	r3, #0	; 0x0
    cadc:	05cc3000 	streqb	r3, [ip]
    cae0:	e5d61003 	ldrb	r1, [r6, #3]
    cae4:	01a00003 	moveq	r0, r3
    cae8:	e0813002 	add	r3, r1, r2
    caec:	e2802001 	add	r2, r0, #1	; 0x1
    caf0:	e5cc2000 	strb	r2, [ip]
    caf4:	e5ce3000 	strb	r3, [lr]
    caf8:	e7c51000 	strb	r1, [r5, r0]
    cafc:	e5d43000 	ldrb	r3, [r4]
    cb00:	e5dc0000 	ldrb	r0, [ip]
    cb04:	e5de1000 	ldrb	r1, [lr]
    cb08:	e35000ff 	cmp	r0, #255	; 0xff
    cb0c:	e0833001 	add	r3, r3, r1
    cb10:	e5c43000 	strb	r3, [r4]
    cb14:	03a03000 	moveq	r3, #0	; 0x0
    cb18:	01a00003 	moveq	r0, r3
    cb1c:	05cc3000 	streqb	r3, [ip]
    cb20:	e2803001 	add	r3, r0, #1	; 0x1
    cb24:	e5cc3000 	strb	r3, [ip]
    cb28:	e7c51000 	strb	r1, [r5, r0]
    cb2c:	e5dc0000 	ldrb	r0, [ip]
    cb30:	e35000ff 	cmp	r0, #255	; 0xff
    cb34:	03a03000 	moveq	r3, #0	; 0x0
    cb38:	01a00003 	moveq	r0, r3
    cb3c:	05cc3000 	streqb	r3, [ip]
    cb40:	e2803001 	add	r3, r0, #1	; 0x1
    cb44:	e5cc3000 	strb	r3, [ip]
    cb48:	e5dc2000 	ldrb	r2, [ip]
    cb4c:	e5d43000 	ldrb	r3, [r4]
    cb50:	e35200ff 	cmp	r2, #255	; 0xff
    cb54:	e7c53000 	strb	r3, [r5, r0]
    cb58:	03a03000 	moveq	r3, #0	; 0x0
    cb5c:	05cc3000 	streqb	r3, [ip]
    cb60:	e3a0c059 	mov	ip, #89	; 0x59
    cb64:	e5dc3000 	ldrb	r3, [ip]
    cb68:	e1a03223 	mov	r3, r3, lsr #4
    cb6c:	e213e001 	ands	lr, r3, #1	; 0x1
    cb70:	18bd80f0 	ldmneia	sp!, {r4, r5, r6, r7, pc}
    cb74:	e5d70000 	ldrb	r0, [r7]
    cb78:	e5d73000 	ldrb	r3, [r7]
    cb7c:	e2833001 	add	r3, r3, #1	; 0x1
    cb80:	e5c73000 	strb	r3, [r7]
    cb84:	e5d72000 	ldrb	r2, [r7]
    cb88:	e7d51000 	ldrb	r1, [r5, r0]
    cb8c:	e35200ff 	cmp	r2, #255	; 0xff
    cb90:	e59f3064 	ldr	r3, [pc, #100]	; cbfc <.text+0x4bfc>
    cb94:	e59f2064 	ldr	r2, [pc, #100]	; cc00 <.text+0x4c00>
    cb98:	e5c31000 	strb	r1, [r3]
    cb9c:	e5c2e000 	strb	lr, [r2]
    cba0:	05c7e000 	streqb	lr, [r7]
    cba4:	e3a03058 	mov	r3, #88	; 0x58
    cba8:	e5d32000 	ldrb	r2, [r3]
    cbac:	e3822001 	orr	r2, r2, #1	; 0x1
    cbb0:	e5c32000 	strb	r2, [r3]
    cbb4:	e5dc1000 	ldrb	r1, [ip]
    cbb8:	e3811010 	orr	r1, r1, #16	; 0x10
    cbbc:	e5cc1000 	strb	r1, [ip]
    cbc0:	e8bd80f0 	ldmia	sp!, {r4, r5, r6, r7, pc}
    cbc4:	000139f5 	streqd	r3, [r1], -r5
    cbc8:	000139f6 	streqd	r3, [r1], -r6
    cbcc:	000139f3 	streqd	r3, [r1], -r3
    cbd0:	000139f8 	streqd	r3, [r1], -r8
    cbd4:	00013b90 	muleq	r1, r0, fp
    cbd8:	00013af7 	streqd	r3, [r1], -r7
    cbdc:	000139f2 	streqd	r3, [r1], -r2
    cbe0:	00013b9c 	muleq	r1, ip, fp
    cbe4:	00013bd8 	ldreqd	r3, [r1], -r8
    cbe8:	00013bec 	andeq	r3, r1, ip, ror #23
    cbec:	0001377c 	andeq	r3, r1, ip, ror r7
    cbf0:	00013b78 	andeq	r3, r1, r8, ror fp
    cbf4:	00013528 	andeq	r3, r1, r8, lsr #10
    cbf8:	00013b98 	muleq	r1, r8, fp
    cbfc:	000139f4 	streqd	r3, [r1], -r4
    cc00:	000139f7 	streqd	r3, [r1], -r7

0000cc04 <course_run>:
    cc04:	e1a0c00d 	mov	ip, sp
    cc08:	e92dd800 	stmdb	sp!, {fp, ip, lr, pc}
    cc0c:	e59f204c 	ldr	r2, [pc, #76]	; cc60 <.text+0x4c60>
    cc10:	e5d23000 	ldrb	r3, [r2]
    cc14:	e2433002 	sub	r3, r3, #2	; 0x2
    cc18:	e3530001 	cmp	r3, #1	; 0x1
    cc1c:	e24cb004 	sub	fp, ip, #4	; 0x4
    cc20:	889da800 	ldmhiia	sp, {fp, sp, pc}
    cc24:	e59f3038 	ldr	r3, [pc, #56]	; cc64 <.text+0x4c64>
    cc28:	e5d32000 	ldrb	r2, [r3]
    cc2c:	e3520002 	cmp	r2, #2	; 0x2
    cc30:	8a000004 	bhi	cc48 <course_run+0x44>
    cc34:	e59f302c 	ldr	r3, [pc, #44]	; cc68 <.text+0x4c68>
    cc38:	e59f202c 	ldr	r2, [pc, #44]	; cc6c <.text+0x4c6c>
    cc3c:	e5931000 	ldr	r1, [r3]
    cc40:	e5821000 	str	r1, [r2]
    cc44:	e89da800 	ldmia	sp, {fp, sp, pc}
    cc48:	eb00084b 	bl	ed7c <course_pid_run>
    cc4c:	e59f3014 	ldr	r3, [pc, #20]	; cc68 <.text+0x4c68>
    cc50:	e59f2014 	ldr	r2, [pc, #20]	; cc6c <.text+0x4c6c>
    cc54:	e5931000 	ldr	r1, [r3]
    cc58:	e5821000 	str	r1, [r2]
    cc5c:	e89da800 	ldmia	sp, {fp, sp, pc}
    cc60:	000135a4 	andeq	r3, r1, r4, lsr #11
    cc64:	000135a2 	andeq	r3, r1, r2, lsr #11
    cc68:	00013b8c 	andeq	r3, r1, ip, lsl #23
    cc6c:	0001378c 	andeq	r3, r1, ip, lsl #15

0000cc70 <altitude_control_task>:
    cc70:	e59f2020 	ldr	r2, [pc, #32]	; cc98 <.text+0x4c98>
    cc74:	e5d23000 	ldrb	r3, [r2]
    cc78:	e2433002 	sub	r3, r3, #2	; 0x2
    cc7c:	e3530001 	cmp	r3, #1	; 0x1
    cc80:	81a0f00e 	movhi	pc, lr
    cc84:	e59f3010 	ldr	r3, [pc, #16]	; cc9c <.text+0x4c9c>
    cc88:	e5d32000 	ldrb	r2, [r3]
    cc8c:	e3520003 	cmp	r2, #3	; 0x3
    cc90:	11a0f00e 	movne	pc, lr
    cc94:	ea000931 	b	f160 <altitude_pid_run>
    cc98:	000135a4 	andeq	r3, r1, r4, lsr #11
    cc9c:	000135a3 	andeq	r3, r1, r3, lsr #11

0000cca0 <climb_control_task>:
    cca0:	e1a0c00d 	mov	ip, sp
    cca4:	e92dd810 	stmdb	sp!, {r4, fp, ip, lr, pc}
    cca8:	e59f2080 	ldr	r2, [pc, #128]	; cd30 <.text+0x4d30>
    ccac:	e5d23000 	ldrb	r3, [r2]
    ccb0:	e2433002 	sub	r3, r3, #2	; 0x2
    ccb4:	e3530001 	cmp	r3, #1	; 0x1
    ccb8:	e24cb004 	sub	fp, ip, #4	; 0x4
    ccbc:	e59f4070 	ldr	r4, [pc, #112]	; cd34 <.text+0x4d34>
    ccc0:	889da810 	ldmhiia	sp, {r4, fp, sp, pc}
    ccc4:	e5d42000 	ldrb	r2, [r4]
    ccc8:	e3520001 	cmp	r2, #1	; 0x1
    cccc:	8a000014 	bhi	cd24 <climb_control_task+0x84>
    ccd0:	e3520001 	cmp	r2, #1	; 0x1
    ccd4:	e59f305c 	ldr	r3, [pc, #92]	; cd38 <.text+0x4d38>
    ccd8:	059f205c 	ldreq	r2, [pc, #92]	; cd3c <.text+0x4d3c>
    ccdc:	e5d31000 	ldrb	r1, [r3]
    cce0:	01d220b0 	ldreqh	r2, [r2]
    cce4:	059f3054 	ldreq	r3, [pc, #84]	; cd40 <.text+0x4d40>
    cce8:	01c320b0 	streqh	r2, [r3]
    ccec:	e3510000 	cmp	r1, #0	; 0x0
    ccf0:	1a000007 	bne	cd14 <climb_control_task+0x74>
    ccf4:	e59f3048 	ldr	r3, [pc, #72]	; cd44 <.text+0x4d44>
    ccf8:	e1d320b0 	ldrh	r2, [r3]
    ccfc:	e3520000 	cmp	r2, #0	; 0x0
    cd00:	189da810 	ldmneia	sp, {r4, fp, sp, pc}
    cd04:	e59f303c 	ldr	r3, [pc, #60]	; cd48 <.text+0x4d48>
    cd08:	e5d32000 	ldrb	r2, [r3]
    cd0c:	e3520000 	cmp	r2, #0	; 0x0
    cd10:	189da810 	ldmneia	sp, {r4, fp, sp, pc}
    cd14:	e59f3024 	ldr	r3, [pc, #36]	; cd40 <.text+0x4d40>
    cd18:	e3a02000 	mov	r2, #0	; 0x0
    cd1c:	e1c320b0 	strh	r2, [r3]
    cd20:	e89da810 	ldmia	sp, {r4, fp, sp, pc}
    cd24:	eb00085e 	bl	eea4 <climb_pid_run>
    cd28:	e5d42000 	ldrb	r2, [r4]
    cd2c:	eaffffe7 	b	ccd0 <climb_control_task+0x30>
    cd30:	000135a4 	andeq	r3, r1, r4, lsr #11
    cd34:	000135a3 	andeq	r3, r1, r3, lsr #11
    cd38:	000135a8 	andeq	r3, r1, r8, lsr #11
    cd3c:	00013b88 	andeq	r3, r1, r8, lsl #23
    cd40:	00013b70 	andeq	r3, r1, r0, ror fp
    cd44:	00013ba8 	andeq	r3, r1, r8, lsr #23
    cd48:	000135a0 	andeq	r3, r1, r0, lsr #11

0000cd4c <stabilisation_task>:
    cd4c:	e1a0c00d 	mov	ip, sp
    cd50:	e92dd870 	stmdb	sp!, {r4, r5, r6, fp, ip, lr, pc}
    cd54:	e24cb004 	sub	fp, ip, #4	; 0x4
    cd58:	eb000771 	bl	eb24 <ir_update>
    cd5c:	eb00120a 	bl	1158c <estimator_update_state_infrared>
    cd60:	eb0007a2 	bl	ebf0 <roll_pitch_pid_run>
    cd64:	e59f30bc 	ldr	r3, [pc, #188]	; ce28 <.text+0x4e28>
    cd68:	e5930000 	ldr	r0, [r3]
    cd6c:	e59f30b8 	ldr	r3, [pc, #184]	; ce2c <.text+0x4e2c>
    cd70:	e59f10b8 	ldr	r1, [pc, #184]	; ce30 <.text+0x4e30>
    cd74:	e1d330b0 	ldrh	r3, [r3]
    cd78:	e59f20b4 	ldr	r2, [pc, #180]	; ce34 <.text+0x4e34>
    cd7c:	e1c130b0 	strh	r3, [r1]
    cd80:	e59f30b0 	ldr	r3, [pc, #176]	; ce38 <.text+0x4e38>
    cd84:	e1d220b0 	ldrh	r2, [r2]
    cd88:	e1d330b0 	ldrh	r3, [r3]
    cd8c:	e1c120b2 	strh	r2, [r1, #2]
    cd90:	e1c130b4 	strh	r3, [r1, #4]
    cd94:	e2200102 	eor	r0, r0, #-2147483648	; 0x80000000
    cd98:	e1a06001 	mov	r6, r1
    cd9c:	eb001607 	bl	125c0 <__extendsfdf2>
    cda0:	e28f2068 	add	r2, pc, #104	; 0x68
    cda4:	e892000c 	ldmia	r2, {r2, r3}
    cda8:	eb001617 	bl	1260c <__muldf3>
    cdac:	e28f2064 	add	r2, pc, #100	; 0x64
    cdb0:	e892000c 	ldmia	r2, {r2, r3}
    cdb4:	e1a05001 	mov	r5, r1
    cdb8:	e1a04000 	mov	r4, r0
    cdbc:	eb001745 	bl	12ad8 <__ledf2>
    cdc0:	e3a0c4b5 	mov	ip, #-1258291200	; 0xb5000000
    cdc4:	e3500000 	cmp	r0, #0	; 0x0
    cdc8:	e28f2050 	add	r2, pc, #80	; 0x50
    cdcc:	e892000c 	ldmia	r2, {r2, r3}
    cdd0:	e1a0c8cc 	mov	ip, ip, asr #17
    cdd4:	e1a01005 	mov	r1, r5
    cdd8:	e1a00004 	mov	r0, r4
    cddc:	ba000005 	blt	cdf8 <stabilisation_task+0xac>
    cde0:	eb00173a 	bl	12ad0 <__gedf2>
    cde4:	e3500000 	cmp	r0, #0	; 0x0
    cde8:	e3a0cd96 	mov	ip, #9600	; 0x2580
    cdec:	e1a01005 	mov	r1, r5
    cdf0:	e1a00004 	mov	r0, r4
    cdf4:	da000001 	ble	ce00 <stabilisation_task+0xb4>
    cdf8:	e1c6c0ba 	strh	ip, [r6, #10]
    cdfc:	e89da870 	ldmia	sp, {r4, r5, r6, fp, sp, pc}
    ce00:	eb00175b 	bl	12b74 <__fixdfsi>
    ce04:	e1a0c000 	mov	ip, r0
    ce08:	e1c6c0ba 	strh	ip, [r6, #10]
    ce0c:	e89da870 	ldmia	sp, {r4, r5, r6, fp, sp, pc}
    ce10:	40c90000 	sbcmi	r0, r9, r0
    ce14:	00000000 	andeq	r0, r0, r0
    ce18:	c0c2c000 	sbcgt	ip, r2, r0
    ce1c:	00000000 	andeq	r0, r0, r0
    ce20:	40c2c000 	sbcmi	ip, r2, r0
    ce24:	00000000 	andeq	r0, r0, r0
    ce28:	00013bcc 	andeq	r3, r1, ip, asr #23
    ce2c:	00013b70 	andeq	r3, r1, r0, ror fp
    ce30:	00013af8 	streqd	r3, [r1], -r8
    ce34:	00013b72 	andeq	r3, r1, r2, ror fp
    ce38:	00013b74 	andeq	r3, r1, r4, ror fp

0000ce3c <periodic_task>:
    ce3c:	e1a0c00d 	mov	ip, sp
    ce40:	e92dd8f0 	stmdb	sp!, {r4, r5, r6, r7, fp, ip, lr, pc}
    ce44:	e59f4250 	ldr	r4, [pc, #592]	; d09c <.text+0x509c>
    ce48:	e24cb004 	sub	fp, ip, #4	; 0x4
    ce4c:	e5940000 	ldr	r0, [r4]
    ce50:	eb0015da 	bl	125c0 <__extendsfdf2>
    ce54:	e59f7244 	ldr	r7, [pc, #580]	; d0a0 <.text+0x50a0>
    ce58:	e28f2f89 	add	r2, pc, #548	; 0x224
    ce5c:	e892000c 	ldmia	r2, {r2, r3}
    ce60:	eb001508 	bl	12288 <__adddf3>
    ce64:	eb001762 	bl	12bf4 <__truncdfsf2>
    ce68:	e5d73000 	ldrb	r3, [r7]
    ce6c:	e2833001 	add	r3, r3, #1	; 0x1
    ce70:	e5c73000 	strb	r3, [r7]
    ce74:	e5d72000 	ldrb	r2, [r7]
    ce78:	e3520002 	cmp	r2, #2	; 0x2
    ce7c:	e59f2220 	ldr	r2, [pc, #544]	; d0a4 <.text+0x50a4>
    ce80:	83a03000 	movhi	r3, #0	; 0x0
    ce84:	85c73000 	strhib	r3, [r7]
    ce88:	e5d23000 	ldrb	r3, [r2]
    ce8c:	e2833001 	add	r3, r3, #1	; 0x1
    ce90:	e5c23000 	strb	r3, [r2]
    ce94:	e5d21000 	ldrb	r1, [r2]
    ce98:	e59f6208 	ldr	r6, [pc, #520]	; d0a8 <.text+0x50a8>
    ce9c:	e3510005 	cmp	r1, #5	; 0x5
    cea0:	83a03000 	movhi	r3, #0	; 0x0
    cea4:	85c23000 	strhib	r3, [r2]
    cea8:	81a01003 	movhi	r1, r3
    ceac:	e5d63000 	ldrb	r3, [r6]
    ceb0:	e2833001 	add	r3, r3, #1	; 0x1
    ceb4:	e5c63000 	strb	r3, [r6]
    ceb8:	e5d62000 	ldrb	r2, [r6]
    cebc:	e352000e 	cmp	r2, #14	; 0xe
    cec0:	e59f21e4 	ldr	r2, [pc, #484]	; d0ac <.text+0x50ac>
    cec4:	83a03000 	movhi	r3, #0	; 0x0
    cec8:	85c63000 	strhib	r3, [r6]
    cecc:	e5d23000 	ldrb	r3, [r2]
    ced0:	e2833001 	add	r3, r3, #1	; 0x1
    ced4:	e5c23000 	strb	r3, [r2]
    ced8:	e5d25000 	ldrb	r5, [r2]
    cedc:	e355003c 	cmp	r5, #60	; 0x3c
    cee0:	83a03000 	movhi	r3, #0	; 0x0
    cee4:	85c23000 	strhib	r3, [r2]
    cee8:	81a05003 	movhi	r5, r3
    ceec:	e3510000 	cmp	r1, #0	; 0x0
    cef0:	e5840000 	str	r0, [r4]
    cef4:	1a000007 	bne	cf18 <periodic_task+0xdc>
    cef8:	e59f41b0 	ldr	r4, [pc, #432]	; d0b0 <.text+0x50b0>
    cefc:	e5940000 	ldr	r0, [r4]
    cf00:	eb0015ae 	bl	125c0 <__extendsfdf2>
    cf04:	e28f2d06 	add	r2, pc, #384	; 0x180
    cf08:	e892000c 	ldmia	r2, {r2, r3}
    cf0c:	eb0014dd 	bl	12288 <__adddf3>
    cf10:	eb001737 	bl	12bf4 <__truncdfsf2>
    cf14:	e5840000 	str	r0, [r4]
    cf18:	e20550ff 	and	r5, r5, #255	; 0xff
    cf1c:	e3550000 	cmp	r5, #0	; 0x0
    cf20:	1a00002a 	bne	cfd0 <periodic_task+0x194>
    cf24:	e59f2188 	ldr	r2, [pc, #392]	; d0b4 <.text+0x50b4>
    cf28:	e1d230b0 	ldrh	r3, [r2]
    cf2c:	e3530000 	cmp	r3, #0	; 0x0
    cf30:	12833001 	addne	r3, r3, #1	; 0x1
    cf34:	11c230b0 	strneh	r3, [r2]
    cf38:	e59f2178 	ldr	r2, [pc, #376]	; d0b8 <.text+0x50b8>
    cf3c:	e1d230b0 	ldrh	r3, [r2]
    cf40:	e59f4168 	ldr	r4, [pc, #360]	; d0b0 <.text+0x50b0>
    cf44:	e2833001 	add	r3, r3, #1	; 0x1
    cf48:	e5940000 	ldr	r0, [r4]
    cf4c:	e1c230b0 	strh	r3, [r2]
    cf50:	eb00159a 	bl	125c0 <__extendsfdf2>
    cf54:	e28f2f4e 	add	r2, pc, #312	; 0x138
    cf58:	e892000c 	ldmia	r2, {r2, r3}
    cf5c:	eb0014c9 	bl	12288 <__adddf3>
    cf60:	eb001703 	bl	12b74 <__fixdfsi>
    cf64:	e1a00800 	mov	r0, r0, lsl #16
    cf68:	e1a00840 	mov	r0, r0, asr #16
    cf6c:	eb0017d1 	bl	12eb8 <__floatsisf>
    cf70:	e59fc144 	ldr	ip, [pc, #324]	; d0bc <.text+0x50bc>
    cf74:	e59f3144 	ldr	r3, [pc, #324]	; d0c0 <.text+0x50c0>
    cf78:	e59fe144 	ldr	lr, [pc, #324]	; d0c4 <.text+0x50c4>
    cf7c:	e5d31000 	ldrb	r1, [r3]
    cf80:	e1dc20b0 	ldrh	r2, [ip]
    cf84:	e351005c 	cmp	r1, #92	; 0x5c
    cf88:	e2822001 	add	r2, r2, #1	; 0x1
    cf8c:	e1de30b0 	ldrh	r3, [lr]
    cf90:	e1cc20b0 	strh	r2, [ip]
    cf94:	959f212c 	ldrls	r2, [pc, #300]	; d0c8 <.text+0x50c8>
    cf98:	e2833001 	add	r3, r3, #1	; 0x1
    cf9c:	e1ce30b0 	strh	r3, [lr]
    cfa0:	95d23000 	ldrlsb	r3, [r2]
    cfa4:	859f211c 	ldrhi	r2, [pc, #284]	; d0c8 <.text+0x50c8>
    cfa8:	92833001 	addls	r3, r3, #1	; 0x1
    cfac:	95c23000 	strlsb	r3, [r2]
    cfb0:	85c25000 	strhib	r5, [r2]
    cfb4:	e59f1110 	ldr	r1, [pc, #272]	; d0cc <.text+0x50cc>
    cfb8:	e5d22000 	ldrb	r2, [r2]
    cfbc:	e5d13000 	ldrb	r3, [r1]
    cfc0:	e3520004 	cmp	r2, #4	; 0x4
    cfc4:	83833001 	orrhi	r3, r3, #1	; 0x1
    cfc8:	e5840000 	str	r0, [r4]
    cfcc:	e5c13000 	strb	r3, [r1]
    cfd0:	e5d63000 	ldrb	r3, [r6]
    cfd4:	e3530000 	cmp	r3, #0	; 0x0
    cfd8:	0a00000d 	beq	d014 <periodic_task+0x1d8>
    cfdc:	e5d73000 	ldrb	r3, [r7]
    cfe0:	e3530000 	cmp	r3, #0	; 0x0
    cfe4:	089da8f0 	ldmeqia	sp, {r4, r5, r6, r7, fp, sp, pc}
    cfe8:	e3530001 	cmp	r3, #1	; 0x1
    cfec:	0a000012 	beq	d03c <periodic_task+0x200>
    cff0:	e3530002 	cmp	r3, #2	; 0x2
    cff4:	159f20d4 	ldrne	r2, [pc, #212]	; d0d0 <.text+0x50d0>
    cff8:	15d23000 	ldrneb	r3, [r2]
    cffc:	12833001 	addne	r3, r3, #1	; 0x1
    d000:	15c23000 	strneb	r3, [r2]
    d004:	189da8f0 	ldmneia	sp, {r4, r5, r6, r7, fp, sp, pc}
    d008:	ebffff4f 	bl	cd4c <stabilisation_task>
    d00c:	e89d68f0 	ldmia	sp, {r4, r5, r6, r7, fp, sp, lr}
    d010:	ea0004a7 	b	e2b4 <link_fbw_send>
    d014:	eb0012aa 	bl	11ac4 <estimator_propagate_state>
    d018:	ebfffd00 	bl	c420 <navigation_update>
    d01c:	ebfffd0a 	bl	c44c <send_nav_values>
    d020:	ebfffef7 	bl	cc04 <course_run>
    d024:	ebffff11 	bl	cc70 <altitude_control_task>
    d028:	ebffff1c 	bl	cca0 <climb_control_task>
    d02c:	e5d73000 	ldrb	r3, [r7]
    d030:	e3530000 	cmp	r3, #0	; 0x0
    d034:	089da8f0 	ldmeqia	sp, {r4, r5, r6, r7, fp, sp, pc}
    d038:	eaffffea 	b	cfe8 <periodic_task+0x1ac>
    d03c:	e59f3090 	ldr	r3, [pc, #144]	; d0d4 <.text+0x50d4>
    d040:	e5d32000 	ldrb	r2, [r3]
    d044:	e2822001 	add	r2, r2, #1	; 0x1
    d048:	e5c32000 	strb	r2, [r3]
    d04c:	e5d31000 	ldrb	r1, [r3]
    d050:	e3110001 	tst	r1, #1	; 0x1
    d054:	089da8f0 	ldmeqia	sp, {r4, r5, r6, r7, fp, sp, pc}
    d058:	ebffee58 	bl	89c0 <send_boot>
    d05c:	ebfff01d 	bl	90d8 <send_attitude>
    d060:	ebfff145 	bl	957c <send_adc>
    d064:	ebfff1ed 	bl	9820 <send_settings>
    d068:	ebfff2e5 	bl	9c04 <send_desired>
    d06c:	ebfff483 	bl	a280 <send_bat>
    d070:	ebfff56d 	bl	a62c <send_climb>
    d074:	ebfff6af 	bl	ab38 <send_mode>
    d078:	ebfff76d 	bl	ae34 <send_debug>
    d07c:	e89d68f0 	ldmia	sp, {r4, r5, r6, r7, fp, sp, lr}
    d080:	eafff829 	b	b12c <send_nav_ref>
    d084:	3f90c6f7 	swicc	0x0090c6f7
    d088:	a0b5ed8d 	adcges	lr, r5, sp, lsl #27
    d08c:	3fb99999 	swicc	0x00b99999
    d090:	9999999a 	ldmlsib	r9, {r1, r3, r4, r7, r8, fp, ip, pc}
    d094:	3fe00000 	swicc	0x00e00000
    d098:	00000000 	andeq	r0, r0, r0
    d09c:	00013bb8 	streqh	r3, [r1], -r8
    d0a0:	000135aa 	andeq	r3, r1, sl, lsr #11
    d0a4:	000135b0 	streqh	r3, [r1], -r0
    d0a8:	000135b1 	streqh	r3, [r1], -r1
    d0ac:	000135a9 	andeq	r3, r1, r9, lsr #11
    d0b0:	00013b80 	andeq	r3, r1, r0, lsl #23
    d0b4:	00013ba8 	andeq	r3, r1, r8, lsr #23
    d0b8:	000135a6 	andeq	r3, r1, r6, lsr #11
    d0bc:	00013b9e 	muleq	r1, lr, fp
    d0c0:	000139f1 	streqd	r3, [r1], -r1
    d0c4:	00013ba0 	andeq	r3, r1, r0, lsr #23
    d0c8:	000135b2 	streqh	r3, [r1], -r2
    d0cc:	000135a8 	andeq	r3, r1, r8, lsr #11
    d0d0:	000135a5 	andeq	r3, r1, r5, lsr #11
    d0d4:	000135b3 	streqh	r3, [r1], -r3

0000d0d8 <send_gps_pos>:
    d0d8:	e92d40f0 	stmdb	sp!, {r4, r5, r6, r7, lr}
    d0dc:	e59f3844 	ldr	r3, [pc, #2116]	; d928 <.text+0x5928>
    d0e0:	e5d32000 	ldrb	r2, [r3]
    d0e4:	e59f3840 	ldr	r3, [pc, #2112]	; d92c <.text+0x592c>
    d0e8:	e3a01000 	mov	r1, #0	; 0x0
    d0ec:	e3520000 	cmp	r2, #0	; 0x0
    d0f0:	e5c31000 	strb	r1, [r3]
    d0f4:	08bd80f0 	ldmeqia	sp!, {r4, r5, r6, r7, pc}
    d0f8:	e59f7830 	ldr	r7, [pc, #2096]	; d930 <.text+0x5930>
    d0fc:	e59f1830 	ldr	r1, [pc, #2096]	; d934 <.text+0x5934>
    d100:	e5d73000 	ldrb	r3, [r7]
    d104:	e5d12000 	ldrb	r2, [r1]
    d108:	e1520003 	cmp	r2, r3
    d10c:	25d73000 	ldrcsb	r3, [r7]
    d110:	35d73000 	ldrccb	r3, [r7]
    d114:	20633002 	rsbcs	r3, r3, r2
    d118:	30623003 	rsbcc	r3, r2, r3
    d11c:	226330ff 	rsbcs	r3, r3, #255	; 0xff
    d120:	e3530021 	cmp	r3, #33	; 0x21
    d124:	d59f280c 	ldrle	r2, [pc, #2060]	; d938 <.text+0x5938>
    d128:	d5d23000 	ldrleb	r3, [r2]
    d12c:	d2833001 	addle	r3, r3, #1	; 0x1
    d130:	d5c23000 	strleb	r3, [r2]
    d134:	da0001e5 	ble	d8d0 <send_gps_pos+0x7f8>
    d138:	e5d13000 	ldrb	r3, [r1]
    d13c:	e2832001 	add	r2, r3, #1	; 0x1
    d140:	e5c12000 	strb	r2, [r1]
    d144:	e5d10000 	ldrb	r0, [r1]
    d148:	e59f57ec 	ldr	r5, [pc, #2028]	; d93c <.text+0x593c>
    d14c:	e35000ff 	cmp	r0, #255	; 0xff
    d150:	e3a02005 	mov	r2, #5	; 0x5
    d154:	e7c52003 	strb	r2, [r5, r3]
    d158:	03a03000 	moveq	r3, #0	; 0x0
    d15c:	e59fc7d0 	ldr	ip, [pc, #2000]	; d934 <.text+0x5934>
    d160:	01a00003 	moveq	r0, r3
    d164:	05c13000 	streqb	r3, [r1]
    d168:	e2803001 	add	r3, r0, #1	; 0x1
    d16c:	e5cc3000 	strb	r3, [ip]
    d170:	e3a02008 	mov	r2, #8	; 0x8
    d174:	e7c52000 	strb	r2, [r5, r0]
    d178:	e5dc0000 	ldrb	r0, [ip]
    d17c:	e35000ff 	cmp	r0, #255	; 0xff
    d180:	03a03000 	moveq	r3, #0	; 0x0
    d184:	05cc3000 	streqb	r3, [ip]
    d188:	01a00003 	moveq	r0, r3
    d18c:	e59f37ac 	ldr	r3, [pc, #1964]	; d940 <.text+0x5940>
    d190:	e5d31000 	ldrb	r1, [r3]
    d194:	e59fe7a8 	ldr	lr, [pc, #1960]	; d944 <.text+0x5944>
    d198:	e2802001 	add	r2, r0, #1	; 0x1
    d19c:	e2813008 	add	r3, r1, #8	; 0x8
    d1a0:	e5cc2000 	strb	r2, [ip]
    d1a4:	e5ce3000 	strb	r3, [lr]
    d1a8:	e7c51000 	strb	r1, [r5, r0]
    d1ac:	e5de2000 	ldrb	r2, [lr]
    d1b0:	e5dc0000 	ldrb	r0, [ip]
    d1b4:	e59f478c 	ldr	r4, [pc, #1932]	; d948 <.text+0x5948>
    d1b8:	e2823008 	add	r3, r2, #8	; 0x8
    d1bc:	e35000ff 	cmp	r0, #255	; 0xff
    d1c0:	e5c43000 	strb	r3, [r4]
    d1c4:	03a03000 	moveq	r3, #0	; 0x0
    d1c8:	05cc3000 	streqb	r3, [ip]
    d1cc:	e59f6778 	ldr	r6, [pc, #1912]	; d94c <.text+0x594c>
    d1d0:	e5d61000 	ldrb	r1, [r6]
    d1d4:	01a00003 	moveq	r0, r3
    d1d8:	e0813002 	add	r3, r1, r2
    d1dc:	e2802001 	add	r2, r0, #1	; 0x1
    d1e0:	e5cc2000 	strb	r2, [ip]
    d1e4:	e5ce3000 	strb	r3, [lr]
    d1e8:	e7c51000 	strb	r1, [r5, r0]
    d1ec:	e5de2000 	ldrb	r2, [lr]
    d1f0:	e5dc0000 	ldrb	r0, [ip]
    d1f4:	e5d43000 	ldrb	r3, [r4]
    d1f8:	e35000ff 	cmp	r0, #255	; 0xff
    d1fc:	e0833002 	add	r3, r3, r2
    d200:	e5c43000 	strb	r3, [r4]
    d204:	03a03000 	moveq	r3, #0	; 0x0
    d208:	05cc3000 	streqb	r3, [ip]
    d20c:	e5d61001 	ldrb	r1, [r6, #1]
    d210:	01a00003 	moveq	r0, r3
    d214:	e0813002 	add	r3, r1, r2
    d218:	e2802001 	add	r2, r0, #1	; 0x1
    d21c:	e5ce3000 	strb	r3, [lr]
    d220:	e5cc2000 	strb	r2, [ip]
    d224:	e7c51000 	strb	r1, [r5, r0]
    d228:	e5de2000 	ldrb	r2, [lr]
    d22c:	e5dc0000 	ldrb	r0, [ip]
    d230:	e5d43000 	ldrb	r3, [r4]
    d234:	e35000ff 	cmp	r0, #255	; 0xff
    d238:	e0833002 	add	r3, r3, r2
    d23c:	e5c43000 	strb	r3, [r4]
    d240:	03a03000 	moveq	r3, #0	; 0x0
    d244:	05cc3000 	streqb	r3, [ip]
    d248:	e5d61002 	ldrb	r1, [r6, #2]
    d24c:	01a00003 	moveq	r0, r3
    d250:	e0813002 	add	r3, r1, r2
    d254:	e2802001 	add	r2, r0, #1	; 0x1
    d258:	e5cc2000 	strb	r2, [ip]
    d25c:	e5ce3000 	strb	r3, [lr]
    d260:	e7c51000 	strb	r1, [r5, r0]
    d264:	e5de2000 	ldrb	r2, [lr]
    d268:	e5dc0000 	ldrb	r0, [ip]
    d26c:	e5d43000 	ldrb	r3, [r4]
    d270:	e35000ff 	cmp	r0, #255	; 0xff
    d274:	e0833002 	add	r3, r3, r2
    d278:	e5c43000 	strb	r3, [r4]
    d27c:	03a03000 	moveq	r3, #0	; 0x0
    d280:	05cc3000 	streqb	r3, [ip]
    d284:	e5d61003 	ldrb	r1, [r6, #3]
    d288:	01a00003 	moveq	r0, r3
    d28c:	e0813002 	add	r3, r1, r2
    d290:	e2802001 	add	r2, r0, #1	; 0x1
    d294:	e5cc2000 	strb	r2, [ip]
    d298:	e5ce3000 	strb	r3, [lr]
    d29c:	e7c51000 	strb	r1, [r5, r0]
    d2a0:	e5de2000 	ldrb	r2, [lr]
    d2a4:	e5dc0000 	ldrb	r0, [ip]
    d2a8:	e5d43000 	ldrb	r3, [r4]
    d2ac:	e35000ff 	cmp	r0, #255	; 0xff
    d2b0:	e0833002 	add	r3, r3, r2
    d2b4:	e5c43000 	strb	r3, [r4]
    d2b8:	03a03000 	moveq	r3, #0	; 0x0
    d2bc:	05cc3000 	streqb	r3, [ip]
    d2c0:	e59f6688 	ldr	r6, [pc, #1672]	; d950 <.text+0x5950>
    d2c4:	e5d61000 	ldrb	r1, [r6]
    d2c8:	01a00003 	moveq	r0, r3
    d2cc:	e0813002 	add	r3, r1, r2
    d2d0:	e2802001 	add	r2, r0, #1	; 0x1
    d2d4:	e5cc2000 	strb	r2, [ip]
    d2d8:	e5ce3000 	strb	r3, [lr]
    d2dc:	e7c51000 	strb	r1, [r5, r0]
    d2e0:	e5de2000 	ldrb	r2, [lr]
    d2e4:	e5dc0000 	ldrb	r0, [ip]
    d2e8:	e5d43000 	ldrb	r3, [r4]
    d2ec:	e35000ff 	cmp	r0, #255	; 0xff
    d2f0:	e0833002 	add	r3, r3, r2
    d2f4:	e5c43000 	strb	r3, [r4]
    d2f8:	03a03000 	moveq	r3, #0	; 0x0
    d2fc:	05cc3000 	streqb	r3, [ip]
    d300:	e5d61001 	ldrb	r1, [r6, #1]
    d304:	01a00003 	moveq	r0, r3
    d308:	e0813002 	add	r3, r1, r2
    d30c:	e2802001 	add	r2, r0, #1	; 0x1
    d310:	e5ce3000 	strb	r3, [lr]
    d314:	e5cc2000 	strb	r2, [ip]
    d318:	e7c51000 	strb	r1, [r5, r0]
    d31c:	e5de2000 	ldrb	r2, [lr]
    d320:	e5dc0000 	ldrb	r0, [ip]
    d324:	e5d43000 	ldrb	r3, [r4]
    d328:	e35000ff 	cmp	r0, #255	; 0xff
    d32c:	e0833002 	add	r3, r3, r2
    d330:	e5c43000 	strb	r3, [r4]
    d334:	03a03000 	moveq	r3, #0	; 0x0
    d338:	05cc3000 	streqb	r3, [ip]
    d33c:	e5d61002 	ldrb	r1, [r6, #2]
    d340:	01a00003 	moveq	r0, r3
    d344:	e0813002 	add	r3, r1, r2
    d348:	e2802001 	add	r2, r0, #1	; 0x1
    d34c:	e5cc2000 	strb	r2, [ip]
    d350:	e5ce3000 	strb	r3, [lr]
    d354:	e7c51000 	strb	r1, [r5, r0]
    d358:	e5de2000 	ldrb	r2, [lr]
    d35c:	e5dc0000 	ldrb	r0, [ip]
    d360:	e5d43000 	ldrb	r3, [r4]
    d364:	e35000ff 	cmp	r0, #255	; 0xff
    d368:	e0833002 	add	r3, r3, r2
    d36c:	e5c43000 	strb	r3, [r4]
    d370:	03a03000 	moveq	r3, #0	; 0x0
    d374:	05cc3000 	streqb	r3, [ip]
    d378:	e5d61003 	ldrb	r1, [r6, #3]
    d37c:	01a00003 	moveq	r0, r3
    d380:	e0813002 	add	r3, r1, r2
    d384:	e2802001 	add	r2, r0, #1	; 0x1
    d388:	e5cc2000 	strb	r2, [ip]
    d38c:	e5ce3000 	strb	r3, [lr]
    d390:	e7c51000 	strb	r1, [r5, r0]
    d394:	e5de2000 	ldrb	r2, [lr]
    d398:	e5dc0000 	ldrb	r0, [ip]
    d39c:	e5d43000 	ldrb	r3, [r4]
    d3a0:	e35000ff 	cmp	r0, #255	; 0xff
    d3a4:	e0833002 	add	r3, r3, r2
    d3a8:	e5c43000 	strb	r3, [r4]
    d3ac:	03a03000 	moveq	r3, #0	; 0x0
    d3b0:	05cc3000 	streqb	r3, [ip]
    d3b4:	e59f6598 	ldr	r6, [pc, #1432]	; d954 <.text+0x5954>
    d3b8:	e5d61000 	ldrb	r1, [r6]
    d3bc:	01a00003 	moveq	r0, r3
    d3c0:	e0813002 	add	r3, r1, r2
    d3c4:	e2802001 	add	r2, r0, #1	; 0x1
    d3c8:	e5cc2000 	strb	r2, [ip]
    d3cc:	e5ce3000 	strb	r3, [lr]
    d3d0:	e7c51000 	strb	r1, [r5, r0]
    d3d4:	e5de2000 	ldrb	r2, [lr]
    d3d8:	e5dc0000 	ldrb	r0, [ip]
    d3dc:	e5d43000 	ldrb	r3, [r4]
    d3e0:	e35000ff 	cmp	r0, #255	; 0xff
    d3e4:	e0833002 	add	r3, r3, r2
    d3e8:	e5c43000 	strb	r3, [r4]
    d3ec:	03a03000 	moveq	r3, #0	; 0x0
    d3f0:	05cc3000 	streqb	r3, [ip]
    d3f4:	e5d61001 	ldrb	r1, [r6, #1]
    d3f8:	01a00003 	moveq	r0, r3
    d3fc:	e0813002 	add	r3, r1, r2
    d400:	e2802001 	add	r2, r0, #1	; 0x1
    d404:	e5ce3000 	strb	r3, [lr]
    d408:	e5cc2000 	strb	r2, [ip]
    d40c:	e7c51000 	strb	r1, [r5, r0]
    d410:	e5de2000 	ldrb	r2, [lr]
    d414:	e5dc0000 	ldrb	r0, [ip]
    d418:	e5d43000 	ldrb	r3, [r4]
    d41c:	e35000ff 	cmp	r0, #255	; 0xff
    d420:	e0833002 	add	r3, r3, r2
    d424:	e5c43000 	strb	r3, [r4]
    d428:	03a03000 	moveq	r3, #0	; 0x0
    d42c:	05cc3000 	streqb	r3, [ip]
    d430:	e5d61002 	ldrb	r1, [r6, #2]
    d434:	01a00003 	moveq	r0, r3
    d438:	e0813002 	add	r3, r1, r2
    d43c:	e2802001 	add	r2, r0, #1	; 0x1
    d440:	e5cc2000 	strb	r2, [ip]
    d444:	e5ce3000 	strb	r3, [lr]
    d448:	e7c51000 	strb	r1, [r5, r0]
    d44c:	e5de2000 	ldrb	r2, [lr]
    d450:	e5dc0000 	ldrb	r0, [ip]
    d454:	e5d43000 	ldrb	r3, [r4]
    d458:	e35000ff 	cmp	r0, #255	; 0xff
    d45c:	e0833002 	add	r3, r3, r2
    d460:	e5c43000 	strb	r3, [r4]
    d464:	03a03000 	moveq	r3, #0	; 0x0
    d468:	05cc3000 	streqb	r3, [ip]
    d46c:	e5d61003 	ldrb	r1, [r6, #3]
    d470:	01a00003 	moveq	r0, r3
    d474:	e0813002 	add	r3, r1, r2
    d478:	e2802001 	add	r2, r0, #1	; 0x1
    d47c:	e5cc2000 	strb	r2, [ip]
    d480:	e5ce3000 	strb	r3, [lr]
    d484:	e7c51000 	strb	r1, [r5, r0]
    d488:	e5de2000 	ldrb	r2, [lr]
    d48c:	e5dc0000 	ldrb	r0, [ip]
    d490:	e5d43000 	ldrb	r3, [r4]
    d494:	e35000ff 	cmp	r0, #255	; 0xff
    d498:	e0833002 	add	r3, r3, r2
    d49c:	e5c43000 	strb	r3, [r4]
    d4a0:	03a03000 	moveq	r3, #0	; 0x0
    d4a4:	05cc3000 	streqb	r3, [ip]
    d4a8:	e59f64a8 	ldr	r6, [pc, #1192]	; d958 <.text+0x5958>
    d4ac:	e5d61000 	ldrb	r1, [r6]
    d4b0:	01a00003 	moveq	r0, r3
    d4b4:	e0813002 	add	r3, r1, r2
    d4b8:	e2802001 	add	r2, r0, #1	; 0x1
    d4bc:	e5cc2000 	strb	r2, [ip]
    d4c0:	e5ce3000 	strb	r3, [lr]
    d4c4:	e7c51000 	strb	r1, [r5, r0]
    d4c8:	e5de2000 	ldrb	r2, [lr]
    d4cc:	e5dc0000 	ldrb	r0, [ip]
    d4d0:	e5d43000 	ldrb	r3, [r4]
    d4d4:	e35000ff 	cmp	r0, #255	; 0xff
    d4d8:	e0833002 	add	r3, r3, r2
    d4dc:	e5c43000 	strb	r3, [r4]
    d4e0:	03a03000 	moveq	r3, #0	; 0x0
    d4e4:	05cc3000 	streqb	r3, [ip]
    d4e8:	e5d61001 	ldrb	r1, [r6, #1]
    d4ec:	01a00003 	moveq	r0, r3
    d4f0:	e0813002 	add	r3, r1, r2
    d4f4:	e2802001 	add	r2, r0, #1	; 0x1
    d4f8:	e5ce3000 	strb	r3, [lr]
    d4fc:	e5cc2000 	strb	r2, [ip]
    d500:	e7c51000 	strb	r1, [r5, r0]
    d504:	e5de2000 	ldrb	r2, [lr]
    d508:	e5dc0000 	ldrb	r0, [ip]
    d50c:	e5d43000 	ldrb	r3, [r4]
    d510:	e35000ff 	cmp	r0, #255	; 0xff
    d514:	e0833002 	add	r3, r3, r2
    d518:	e5c43000 	strb	r3, [r4]
    d51c:	03a03000 	moveq	r3, #0	; 0x0
    d520:	05cc3000 	streqb	r3, [ip]
    d524:	e5d61002 	ldrb	r1, [r6, #2]
    d528:	01a00003 	moveq	r0, r3
    d52c:	e0813002 	add	r3, r1, r2
    d530:	e2802001 	add	r2, r0, #1	; 0x1
    d534:	e5cc2000 	strb	r2, [ip]
    d538:	e5ce3000 	strb	r3, [lr]
    d53c:	e7c51000 	strb	r1, [r5, r0]
    d540:	e5de2000 	ldrb	r2, [lr]
    d544:	e5dc0000 	ldrb	r0, [ip]
    d548:	e5d43000 	ldrb	r3, [r4]
    d54c:	e35000ff 	cmp	r0, #255	; 0xff
    d550:	e0833002 	add	r3, r3, r2
    d554:	e5c43000 	strb	r3, [r4]
    d558:	03a03000 	moveq	r3, #0	; 0x0
    d55c:	05cc3000 	streqb	r3, [ip]
    d560:	e5d61003 	ldrb	r1, [r6, #3]
    d564:	01a00003 	moveq	r0, r3
    d568:	e0813002 	add	r3, r1, r2
    d56c:	e2802001 	add	r2, r0, #1	; 0x1
    d570:	e5cc2000 	strb	r2, [ip]
    d574:	e5ce3000 	strb	r3, [lr]
    d578:	e7c51000 	strb	r1, [r5, r0]
    d57c:	e5de2000 	ldrb	r2, [lr]
    d580:	e5dc0000 	ldrb	r0, [ip]
    d584:	e5d43000 	ldrb	r3, [r4]
    d588:	e35000ff 	cmp	r0, #255	; 0xff
    d58c:	e0833002 	add	r3, r3, r2
    d590:	e5c43000 	strb	r3, [r4]
    d594:	03a03000 	moveq	r3, #0	; 0x0
    d598:	05cc3000 	streqb	r3, [ip]
    d59c:	e59f63b8 	ldr	r6, [pc, #952]	; d95c <.text+0x595c>
    d5a0:	e5d61000 	ldrb	r1, [r6]
    d5a4:	01a00003 	moveq	r0, r3
    d5a8:	e0813002 	add	r3, r1, r2
    d5ac:	e2802001 	add	r2, r0, #1	; 0x1
    d5b0:	e5cc2000 	strb	r2, [ip]
    d5b4:	e5ce3000 	strb	r3, [lr]
    d5b8:	e7c51000 	strb	r1, [r5, r0]
    d5bc:	e5de2000 	ldrb	r2, [lr]
    d5c0:	e5dc0000 	ldrb	r0, [ip]
    d5c4:	e5d43000 	ldrb	r3, [r4]
    d5c8:	e35000ff 	cmp	r0, #255	; 0xff
    d5cc:	e0833002 	add	r3, r3, r2
    d5d0:	e5c43000 	strb	r3, [r4]
    d5d4:	03a03000 	moveq	r3, #0	; 0x0
    d5d8:	05cc3000 	streqb	r3, [ip]
    d5dc:	e5d61001 	ldrb	r1, [r6, #1]
    d5e0:	01a00003 	moveq	r0, r3
    d5e4:	e0813002 	add	r3, r1, r2
    d5e8:	e2802001 	add	r2, r0, #1	; 0x1
    d5ec:	e5ce3000 	strb	r3, [lr]
    d5f0:	e5cc2000 	strb	r2, [ip]
    d5f4:	e7c51000 	strb	r1, [r5, r0]
    d5f8:	e5de2000 	ldrb	r2, [lr]
    d5fc:	e5dc0000 	ldrb	r0, [ip]
    d600:	e5d43000 	ldrb	r3, [r4]
    d604:	e35000ff 	cmp	r0, #255	; 0xff
    d608:	e0833002 	add	r3, r3, r2
    d60c:	e5c43000 	strb	r3, [r4]
    d610:	03a03000 	moveq	r3, #0	; 0x0
    d614:	05cc3000 	streqb	r3, [ip]
    d618:	e5d61002 	ldrb	r1, [r6, #2]
    d61c:	01a00003 	moveq	r0, r3
    d620:	e0813002 	add	r3, r1, r2
    d624:	e2802001 	add	r2, r0, #1	; 0x1
    d628:	e5cc2000 	strb	r2, [ip]
    d62c:	e5ce3000 	strb	r3, [lr]
    d630:	e7c51000 	strb	r1, [r5, r0]
    d634:	e5de2000 	ldrb	r2, [lr]
    d638:	e5dc0000 	ldrb	r0, [ip]
    d63c:	e5d43000 	ldrb	r3, [r4]
    d640:	e35000ff 	cmp	r0, #255	; 0xff
    d644:	e0833002 	add	r3, r3, r2
    d648:	e5c43000 	strb	r3, [r4]
    d64c:	03a03000 	moveq	r3, #0	; 0x0
    d650:	05cc3000 	streqb	r3, [ip]
    d654:	e5d61003 	ldrb	r1, [r6, #3]
    d658:	01a00003 	moveq	r0, r3
    d65c:	e0813002 	add	r3, r1, r2
    d660:	e2802001 	add	r2, r0, #1	; 0x1
    d664:	e5cc2000 	strb	r2, [ip]
    d668:	e5ce3000 	strb	r3, [lr]
    d66c:	e7c51000 	strb	r1, [r5, r0]
    d670:	e5de2000 	ldrb	r2, [lr]
    d674:	e5dc0000 	ldrb	r0, [ip]
    d678:	e5d43000 	ldrb	r3, [r4]
    d67c:	e35000ff 	cmp	r0, #255	; 0xff
    d680:	e0833002 	add	r3, r3, r2
    d684:	e5c43000 	strb	r3, [r4]
    d688:	03a03000 	moveq	r3, #0	; 0x0
    d68c:	05cc3000 	streqb	r3, [ip]
    d690:	e59f62c8 	ldr	r6, [pc, #712]	; d960 <.text+0x5960>
    d694:	e5d61000 	ldrb	r1, [r6]
    d698:	01a00003 	moveq	r0, r3
    d69c:	e0813002 	add	r3, r1, r2
    d6a0:	e2802001 	add	r2, r0, #1	; 0x1
    d6a4:	e5cc2000 	strb	r2, [ip]
    d6a8:	e5ce3000 	strb	r3, [lr]
    d6ac:	e7c51000 	strb	r1, [r5, r0]
    d6b0:	e5de2000 	ldrb	r2, [lr]
    d6b4:	e5dc0000 	ldrb	r0, [ip]
    d6b8:	e5d43000 	ldrb	r3, [r4]
    d6bc:	e35000ff 	cmp	r0, #255	; 0xff
    d6c0:	e0833002 	add	r3, r3, r2
    d6c4:	e5c43000 	strb	r3, [r4]
    d6c8:	03a03000 	moveq	r3, #0	; 0x0
    d6cc:	05cc3000 	streqb	r3, [ip]
    d6d0:	e5d61001 	ldrb	r1, [r6, #1]
    d6d4:	01a00003 	moveq	r0, r3
    d6d8:	e0813002 	add	r3, r1, r2
    d6dc:	e2802001 	add	r2, r0, #1	; 0x1
    d6e0:	e5ce3000 	strb	r3, [lr]
    d6e4:	e5cc2000 	strb	r2, [ip]
    d6e8:	e7c51000 	strb	r1, [r5, r0]
    d6ec:	e5de2000 	ldrb	r2, [lr]
    d6f0:	e5dc0000 	ldrb	r0, [ip]
    d6f4:	e5d43000 	ldrb	r3, [r4]
    d6f8:	e35000ff 	cmp	r0, #255	; 0xff
    d6fc:	e0833002 	add	r3, r3, r2
    d700:	e5c43000 	strb	r3, [r4]
    d704:	03a03000 	moveq	r3, #0	; 0x0
    d708:	05cc3000 	streqb	r3, [ip]
    d70c:	e5d61002 	ldrb	r1, [r6, #2]
    d710:	01a00003 	moveq	r0, r3
    d714:	e0813002 	add	r3, r1, r2
    d718:	e2802001 	add	r2, r0, #1	; 0x1
    d71c:	e5cc2000 	strb	r2, [ip]
    d720:	e5ce3000 	strb	r3, [lr]
    d724:	e7c51000 	strb	r1, [r5, r0]
    d728:	e5de2000 	ldrb	r2, [lr]
    d72c:	e5dc0000 	ldrb	r0, [ip]
    d730:	e5d43000 	ldrb	r3, [r4]
    d734:	e35000ff 	cmp	r0, #255	; 0xff
    d738:	e0833002 	add	r3, r3, r2
    d73c:	e5c43000 	strb	r3, [r4]
    d740:	03a03000 	moveq	r3, #0	; 0x0
    d744:	05cc3000 	streqb	r3, [ip]
    d748:	e5d61003 	ldrb	r1, [r6, #3]
    d74c:	01a00003 	moveq	r0, r3
    d750:	e0813002 	add	r3, r1, r2
    d754:	e2802001 	add	r2, r0, #1	; 0x1
    d758:	e5cc2000 	strb	r2, [ip]
    d75c:	e5ce3000 	strb	r3, [lr]
    d760:	e7c51000 	strb	r1, [r5, r0]
    d764:	e5de2000 	ldrb	r2, [lr]
    d768:	e5dc0000 	ldrb	r0, [ip]
    d76c:	e5d43000 	ldrb	r3, [r4]
    d770:	e35000ff 	cmp	r0, #255	; 0xff
    d774:	e0833002 	add	r3, r3, r2
    d778:	e5c43000 	strb	r3, [r4]
    d77c:	03a03000 	moveq	r3, #0	; 0x0
    d780:	05cc3000 	streqb	r3, [ip]
    d784:	e59f61d8 	ldr	r6, [pc, #472]	; d964 <.text+0x5964>
    d788:	e5d61000 	ldrb	r1, [r6]
    d78c:	01a00003 	moveq	r0, r3
    d790:	e0813002 	add	r3, r1, r2
    d794:	e2802001 	add	r2, r0, #1	; 0x1
    d798:	e5cc2000 	strb	r2, [ip]
    d79c:	e5ce3000 	strb	r3, [lr]
    d7a0:	e7c51000 	strb	r1, [r5, r0]
    d7a4:	e5de2000 	ldrb	r2, [lr]
    d7a8:	e5dc0000 	ldrb	r0, [ip]
    d7ac:	e5d43000 	ldrb	r3, [r4]
    d7b0:	e35000ff 	cmp	r0, #255	; 0xff
    d7b4:	e0833002 	add	r3, r3, r2
    d7b8:	e5c43000 	strb	r3, [r4]
    d7bc:	03a03000 	moveq	r3, #0	; 0x0
    d7c0:	05cc3000 	streqb	r3, [ip]
    d7c4:	e5d61001 	ldrb	r1, [r6, #1]
    d7c8:	01a00003 	moveq	r0, r3
    d7cc:	e0813002 	add	r3, r1, r2
    d7d0:	e2802001 	add	r2, r0, #1	; 0x1
    d7d4:	e5ce3000 	strb	r3, [lr]
    d7d8:	e5cc2000 	strb	r2, [ip]
    d7dc:	e7c51000 	strb	r1, [r5, r0]
    d7e0:	e5de2000 	ldrb	r2, [lr]
    d7e4:	e5dc0000 	ldrb	r0, [ip]
    d7e8:	e5d43000 	ldrb	r3, [r4]
    d7ec:	e35000ff 	cmp	r0, #255	; 0xff
    d7f0:	e0833002 	add	r3, r3, r2
    d7f4:	e5c43000 	strb	r3, [r4]
    d7f8:	03a03000 	moveq	r3, #0	; 0x0
    d7fc:	05cc3000 	streqb	r3, [ip]
    d800:	e5d61002 	ldrb	r1, [r6, #2]
    d804:	01a00003 	moveq	r0, r3
    d808:	e0813002 	add	r3, r1, r2
    d80c:	e2802001 	add	r2, r0, #1	; 0x1
    d810:	e5cc2000 	strb	r2, [ip]
    d814:	e5ce3000 	strb	r3, [lr]
    d818:	e7c51000 	strb	r1, [r5, r0]
    d81c:	e5de2000 	ldrb	r2, [lr]
    d820:	e5dc0000 	ldrb	r0, [ip]
    d824:	e5d43000 	ldrb	r3, [r4]
    d828:	e35000ff 	cmp	r0, #255	; 0xff
    d82c:	e0833002 	add	r3, r3, r2
    d830:	e5c43000 	strb	r3, [r4]
    d834:	03a03000 	moveq	r3, #0	; 0x0
    d838:	05cc3000 	streqb	r3, [ip]
    d83c:	e5d61003 	ldrb	r1, [r6, #3]
    d840:	01a00003 	moveq	r0, r3
    d844:	e0813002 	add	r3, r1, r2
    d848:	e2802001 	add	r2, r0, #1	; 0x1
    d84c:	e5cc2000 	strb	r2, [ip]
    d850:	e5ce3000 	strb	r3, [lr]
    d854:	e7c51000 	strb	r1, [r5, r0]
    d858:	e5d43000 	ldrb	r3, [r4]
    d85c:	e5dc0000 	ldrb	r0, [ip]
    d860:	e5de1000 	ldrb	r1, [lr]
    d864:	e35000ff 	cmp	r0, #255	; 0xff
    d868:	e0833001 	add	r3, r3, r1
    d86c:	e5c43000 	strb	r3, [r4]
    d870:	03a03000 	moveq	r3, #0	; 0x0
    d874:	01a00003 	moveq	r0, r3
    d878:	05cc3000 	streqb	r3, [ip]
    d87c:	e2803001 	add	r3, r0, #1	; 0x1
    d880:	e5cc3000 	strb	r3, [ip]
    d884:	e7c51000 	strb	r1, [r5, r0]
    d888:	e5dc0000 	ldrb	r0, [ip]
    d88c:	e35000ff 	cmp	r0, #255	; 0xff
    d890:	03a03000 	moveq	r3, #0	; 0x0
    d894:	01a00003 	moveq	r0, r3
    d898:	05cc3000 	streqb	r3, [ip]
    d89c:	e2803001 	add	r3, r0, #1	; 0x1
    d8a0:	e5cc3000 	strb	r3, [ip]
    d8a4:	e5dc2000 	ldrb	r2, [ip]
    d8a8:	e5d43000 	ldrb	r3, [r4]
    d8ac:	e35200ff 	cmp	r2, #255	; 0xff
    d8b0:	e7c53000 	strb	r3, [r5, r0]
    d8b4:	03a03000 	moveq	r3, #0	; 0x0
    d8b8:	05cc3000 	streqb	r3, [ip]
    d8bc:	e3a0c059 	mov	ip, #89	; 0x59
    d8c0:	e5dc3000 	ldrb	r3, [ip]
    d8c4:	e1a03223 	mov	r3, r3, lsr #4
    d8c8:	e213e001 	ands	lr, r3, #1	; 0x1
    d8cc:	0a000001 	beq	d8d8 <send_gps_pos+0x800>
    d8d0:	e8bd40f0 	ldmia	sp!, {r4, r5, r6, r7, lr}
    d8d4:	ea001049 	b	11a00 <estimator_update_state_gps>
    d8d8:	e5d70000 	ldrb	r0, [r7]
    d8dc:	e5d73000 	ldrb	r3, [r7]
    d8e0:	e2833001 	add	r3, r3, #1	; 0x1
    d8e4:	e5c73000 	strb	r3, [r7]
    d8e8:	e5d72000 	ldrb	r2, [r7]
    d8ec:	e7d51000 	ldrb	r1, [r5, r0]
    d8f0:	e35200ff 	cmp	r2, #255	; 0xff
    d8f4:	e59f306c 	ldr	r3, [pc, #108]	; d968 <.text+0x5968>
    d8f8:	e59f206c 	ldr	r2, [pc, #108]	; d96c <.text+0x596c>
    d8fc:	e5c31000 	strb	r1, [r3]
    d900:	e5c2e000 	strb	lr, [r2]
    d904:	05c7e000 	streqb	lr, [r7]
    d908:	e3a03058 	mov	r3, #88	; 0x58
    d90c:	e5d32000 	ldrb	r2, [r3]
    d910:	e3822001 	orr	r2, r2, #1	; 0x1
    d914:	e5c32000 	strb	r2, [r3]
    d918:	e5dc1000 	ldrb	r1, [ip]
    d91c:	e3811010 	orr	r1, r1, #16	; 0x10
    d920:	e5cc1000 	strb	r1, [ip]
    d924:	eaffffe9 	b	d8d0 <send_gps_pos+0x7f8>
    d928:	00013b5d 	andeq	r3, r1, sp, asr fp
    d92c:	00013b44 	andeq	r3, r1, r4, asr #22
    d930:	000139f6 	streqd	r3, [r1], -r6
    d934:	000139f5 	streqd	r3, [r1], -r5
    d938:	000139f3 	streqd	r3, [r1], -r3
    d93c:	000139f8 	streqd	r3, [r1], -r8
    d940:	00013b64 	andeq	r3, r1, r4, ror #22
    d944:	00013af7 	streqd	r3, [r1], -r7
    d948:	000139f2 	streqd	r3, [r1], -r2
    d94c:	00013b50 	andeq	r3, r1, r0, asr fp
    d950:	00013b4c 	andeq	r3, r1, ip, asr #22
    d954:	00013b54 	andeq	r3, r1, r4, asr fp
    d958:	00013b40 	andeq	r3, r1, r0, asr #22
    d95c:	00013b58 	andeq	r3, r1, r8, asr fp
    d960:	00013b68 	andeq	r3, r1, r8, ror #22
    d964:	00013b60 	andeq	r3, r1, r0, ror #22
    d968:	000139f4 	streqd	r3, [r1], -r4
    d96c:	000139f7 	streqd	r3, [r1], -r7

0000d970 <send_radIR>:
    d970:	e92d40f0 	stmdb	sp!, {r4, r5, r6, r7, lr}
    d974:	e59f3514 	ldr	r3, [pc, #1300]	; de90 <.text+0x5e90>
    d978:	e5d32000 	ldrb	r2, [r3]
    d97c:	e3520000 	cmp	r2, #0	; 0x0
    d980:	08bd80f0 	ldmeqia	sp!, {r4, r5, r6, r7, pc}
    d984:	e59f7508 	ldr	r7, [pc, #1288]	; de94 <.text+0x5e94>
    d988:	e59f1508 	ldr	r1, [pc, #1288]	; de98 <.text+0x5e98>
    d98c:	e5d73000 	ldrb	r3, [r7]
    d990:	e5d12000 	ldrb	r2, [r1]
    d994:	e1520003 	cmp	r2, r3
    d998:	25d73000 	ldrcsb	r3, [r7]
    d99c:	35d73000 	ldrccb	r3, [r7]
    d9a0:	20633002 	rsbcs	r3, r3, r2
    d9a4:	30623003 	rsbcc	r3, r2, r3
    d9a8:	226330ff 	rsbcs	r3, r3, #255	; 0xff
    d9ac:	e3530014 	cmp	r3, #20	; 0x14
    d9b0:	d59f24e4 	ldrle	r2, [pc, #1252]	; de9c <.text+0x5e9c>
    d9b4:	d5d23000 	ldrleb	r3, [r2]
    d9b8:	d2833001 	addle	r3, r3, #1	; 0x1
    d9bc:	d5c23000 	strleb	r3, [r2]
    d9c0:	d8bd80f0 	ldmleia	sp!, {r4, r5, r6, r7, pc}
    d9c4:	e5d12000 	ldrb	r2, [r1]
    d9c8:	e2823001 	add	r3, r2, #1	; 0x1
    d9cc:	e5c13000 	strb	r3, [r1]
    d9d0:	e5d10000 	ldrb	r0, [r1]
    d9d4:	e35000ff 	cmp	r0, #255	; 0xff
    d9d8:	03a03000 	moveq	r3, #0	; 0x0
    d9dc:	e59fc4b4 	ldr	ip, [pc, #1204]	; de98 <.text+0x5e98>
    d9e0:	01a00003 	moveq	r0, r3
    d9e4:	05c13000 	streqb	r3, [r1]
    d9e8:	e2803001 	add	r3, r0, #1	; 0x1
    d9ec:	e59f54ac 	ldr	r5, [pc, #1196]	; dea0 <.text+0x5ea0>
    d9f0:	e5cc3000 	strb	r3, [ip]
    d9f4:	e3a0e005 	mov	lr, #5	; 0x5
    d9f8:	e7c5e002 	strb	lr, [r5, r2]
    d9fc:	e7c5e000 	strb	lr, [r5, r0]
    da00:	e5dc0000 	ldrb	r0, [ip]
    da04:	e35000ff 	cmp	r0, #255	; 0xff
    da08:	03a03000 	moveq	r3, #0	; 0x0
    da0c:	05cc3000 	streqb	r3, [ip]
    da10:	e59f648c 	ldr	r6, [pc, #1164]	; dea4 <.text+0x5ea4>
    da14:	e5d61000 	ldrb	r1, [r6]
    da18:	e59fe488 	ldr	lr, [pc, #1160]	; dea8 <.text+0x5ea8>
    da1c:	01a00003 	moveq	r0, r3
    da20:	e2802001 	add	r2, r0, #1	; 0x1
    da24:	e2813005 	add	r3, r1, #5	; 0x5
    da28:	e5cc2000 	strb	r2, [ip]
    da2c:	e5ce3000 	strb	r3, [lr]
    da30:	e7c51000 	strb	r1, [r5, r0]
    da34:	e5de2000 	ldrb	r2, [lr]
    da38:	e5dc0000 	ldrb	r0, [ip]
    da3c:	e59f4468 	ldr	r4, [pc, #1128]	; deac <.text+0x5eac>
    da40:	e2823005 	add	r3, r2, #5	; 0x5
    da44:	e35000ff 	cmp	r0, #255	; 0xff
    da48:	e5c43000 	strb	r3, [r4]
    da4c:	03a03000 	moveq	r3, #0	; 0x0
    da50:	05cc3000 	streqb	r3, [ip]
    da54:	e5d61001 	ldrb	r1, [r6, #1]
    da58:	01a00003 	moveq	r0, r3
    da5c:	e0813002 	add	r3, r1, r2
    da60:	e2802001 	add	r2, r0, #1	; 0x1
    da64:	e5cc2000 	strb	r2, [ip]
    da68:	e5ce3000 	strb	r3, [lr]
    da6c:	e7c51000 	strb	r1, [r5, r0]
    da70:	e5de2000 	ldrb	r2, [lr]
    da74:	e5dc0000 	ldrb	r0, [ip]
    da78:	e5d43000 	ldrb	r3, [r4]
    da7c:	e35000ff 	cmp	r0, #255	; 0xff
    da80:	e0833002 	add	r3, r3, r2
    da84:	e5c43000 	strb	r3, [r4]
    da88:	03a03000 	moveq	r3, #0	; 0x0
    da8c:	05cc3000 	streqb	r3, [ip]
    da90:	e5d61002 	ldrb	r1, [r6, #2]
    da94:	01a00003 	moveq	r0, r3
    da98:	e0813002 	add	r3, r1, r2
    da9c:	e2802001 	add	r2, r0, #1	; 0x1
    daa0:	e5ce3000 	strb	r3, [lr]
    daa4:	e5cc2000 	strb	r2, [ip]
    daa8:	e7c51000 	strb	r1, [r5, r0]
    daac:	e5de2000 	ldrb	r2, [lr]
    dab0:	e5dc0000 	ldrb	r0, [ip]
    dab4:	e5d43000 	ldrb	r3, [r4]
    dab8:	e35000ff 	cmp	r0, #255	; 0xff
    dabc:	e0833002 	add	r3, r3, r2
    dac0:	e5c43000 	strb	r3, [r4]
    dac4:	03a03000 	moveq	r3, #0	; 0x0
    dac8:	05cc3000 	streqb	r3, [ip]
    dacc:	e5d61003 	ldrb	r1, [r6, #3]
    dad0:	01a00003 	moveq	r0, r3
    dad4:	e0813002 	add	r3, r1, r2
    dad8:	e2802001 	add	r2, r0, #1	; 0x1
    dadc:	e5cc2000 	strb	r2, [ip]
    dae0:	e5ce3000 	strb	r3, [lr]
    dae4:	e7c51000 	strb	r1, [r5, r0]
    dae8:	e5de2000 	ldrb	r2, [lr]
    daec:	e5dc0000 	ldrb	r0, [ip]
    daf0:	e5d43000 	ldrb	r3, [r4]
    daf4:	e35000ff 	cmp	r0, #255	; 0xff
    daf8:	e0833002 	add	r3, r3, r2
    dafc:	e5c43000 	strb	r3, [r4]
    db00:	03a03000 	moveq	r3, #0	; 0x0
    db04:	05cc3000 	streqb	r3, [ip]
    db08:	e59f63a0 	ldr	r6, [pc, #928]	; deb0 <.text+0x5eb0>
    db0c:	e5d61000 	ldrb	r1, [r6]
    db10:	01a00003 	moveq	r0, r3
    db14:	e0813002 	add	r3, r1, r2
    db18:	e2802001 	add	r2, r0, #1	; 0x1
    db1c:	e5cc2000 	strb	r2, [ip]
    db20:	e5ce3000 	strb	r3, [lr]
    db24:	e7c51000 	strb	r1, [r5, r0]
    db28:	e5de2000 	ldrb	r2, [lr]
    db2c:	e5dc0000 	ldrb	r0, [ip]
    db30:	e5d43000 	ldrb	r3, [r4]
    db34:	e35000ff 	cmp	r0, #255	; 0xff
    db38:	e0833002 	add	r3, r3, r2
    db3c:	e5c43000 	strb	r3, [r4]
    db40:	03a03000 	moveq	r3, #0	; 0x0
    db44:	05cc3000 	streqb	r3, [ip]
    db48:	e5d61001 	ldrb	r1, [r6, #1]
    db4c:	01a00003 	moveq	r0, r3
    db50:	e0813002 	add	r3, r1, r2
    db54:	e2802001 	add	r2, r0, #1	; 0x1
    db58:	e5cc2000 	strb	r2, [ip]
    db5c:	e5ce3000 	strb	r3, [lr]
    db60:	e7c51000 	strb	r1, [r5, r0]
    db64:	e5de2000 	ldrb	r2, [lr]
    db68:	e5dc0000 	ldrb	r0, [ip]
    db6c:	e5d43000 	ldrb	r3, [r4]
    db70:	e35000ff 	cmp	r0, #255	; 0xff
    db74:	e0833002 	add	r3, r3, r2
    db78:	e5c43000 	strb	r3, [r4]
    db7c:	03a03000 	moveq	r3, #0	; 0x0
    db80:	05cc3000 	streqb	r3, [ip]
    db84:	e5d61002 	ldrb	r1, [r6, #2]
    db88:	01a00003 	moveq	r0, r3
    db8c:	e0813002 	add	r3, r1, r2
    db90:	e2802001 	add	r2, r0, #1	; 0x1
    db94:	e5ce3000 	strb	r3, [lr]
    db98:	e5cc2000 	strb	r2, [ip]
    db9c:	e7c51000 	strb	r1, [r5, r0]
    dba0:	e5de2000 	ldrb	r2, [lr]
    dba4:	e5dc0000 	ldrb	r0, [ip]
    dba8:	e5d43000 	ldrb	r3, [r4]
    dbac:	e35000ff 	cmp	r0, #255	; 0xff
    dbb0:	e0833002 	add	r3, r3, r2
    dbb4:	e5c43000 	strb	r3, [r4]
    dbb8:	03a03000 	moveq	r3, #0	; 0x0
    dbbc:	05cc3000 	streqb	r3, [ip]
    dbc0:	e5d61003 	ldrb	r1, [r6, #3]
    dbc4:	01a00003 	moveq	r0, r3
    dbc8:	e0813002 	add	r3, r1, r2
    dbcc:	e2802001 	add	r2, r0, #1	; 0x1
    dbd0:	e5cc2000 	strb	r2, [ip]
    dbd4:	e5ce3000 	strb	r3, [lr]
    dbd8:	e7c51000 	strb	r1, [r5, r0]
    dbdc:	e5de2000 	ldrb	r2, [lr]
    dbe0:	e5dc0000 	ldrb	r0, [ip]
    dbe4:	e5d43000 	ldrb	r3, [r4]
    dbe8:	e35000ff 	cmp	r0, #255	; 0xff
    dbec:	e0833002 	add	r3, r3, r2
    dbf0:	e5c43000 	strb	r3, [r4]
    dbf4:	03a03000 	moveq	r3, #0	; 0x0
    dbf8:	05cc3000 	streqb	r3, [ip]
    dbfc:	e59f62b0 	ldr	r6, [pc, #688]	; deb4 <.text+0x5eb4>
    dc00:	e5d61000 	ldrb	r1, [r6]
    dc04:	01a00003 	moveq	r0, r3
    dc08:	e0813002 	add	r3, r1, r2
    dc0c:	e2802001 	add	r2, r0, #1	; 0x1
    dc10:	e5cc2000 	strb	r2, [ip]
    dc14:	e5ce3000 	strb	r3, [lr]
    dc18:	e7c51000 	strb	r1, [r5, r0]
    dc1c:	e5de2000 	ldrb	r2, [lr]
    dc20:	e5dc0000 	ldrb	r0, [ip]
    dc24:	e5d43000 	ldrb	r3, [r4]
    dc28:	e35000ff 	cmp	r0, #255	; 0xff
    dc2c:	e0833002 	add	r3, r3, r2
    dc30:	e5c43000 	strb	r3, [r4]
    dc34:	03a03000 	moveq	r3, #0	; 0x0
    dc38:	05cc3000 	streqb	r3, [ip]
    dc3c:	e5d61001 	ldrb	r1, [r6, #1]
    dc40:	01a00003 	moveq	r0, r3
    dc44:	e0813002 	add	r3, r1, r2
    dc48:	e2802001 	add	r2, r0, #1	; 0x1
    dc4c:	e5cc2000 	strb	r2, [ip]
    dc50:	e5ce3000 	strb	r3, [lr]
    dc54:	e7c51000 	strb	r1, [r5, r0]
    dc58:	e5de2000 	ldrb	r2, [lr]
    dc5c:	e5dc0000 	ldrb	r0, [ip]
    dc60:	e5d43000 	ldrb	r3, [r4]
    dc64:	e35000ff 	cmp	r0, #255	; 0xff
    dc68:	e0833002 	add	r3, r3, r2
    dc6c:	e5c43000 	strb	r3, [r4]
    dc70:	03a03000 	moveq	r3, #0	; 0x0
    dc74:	05cc3000 	streqb	r3, [ip]
    dc78:	e5d61002 	ldrb	r1, [r6, #2]
    dc7c:	01a00003 	moveq	r0, r3
    dc80:	e0813002 	add	r3, r1, r2
    dc84:	e2802001 	add	r2, r0, #1	; 0x1
    dc88:	e5ce3000 	strb	r3, [lr]
    dc8c:	e5cc2000 	strb	r2, [ip]
    dc90:	e7c51000 	strb	r1, [r5, r0]
    dc94:	e5de2000 	ldrb	r2, [lr]
    dc98:	e5dc0000 	ldrb	r0, [ip]
    dc9c:	e5d43000 	ldrb	r3, [r4]
    dca0:	e35000ff 	cmp	r0, #255	; 0xff
    dca4:	e0833002 	add	r3, r3, r2
    dca8:	e5c43000 	strb	r3, [r4]
    dcac:	03a03000 	moveq	r3, #0	; 0x0
    dcb0:	05cc3000 	streqb	r3, [ip]
    dcb4:	e5d61003 	ldrb	r1, [r6, #3]
    dcb8:	01a00003 	moveq	r0, r3
    dcbc:	e0813002 	add	r3, r1, r2
    dcc0:	e2802001 	add	r2, r0, #1	; 0x1
    dcc4:	e5cc2000 	strb	r2, [ip]
    dcc8:	e5ce3000 	strb	r3, [lr]
    dccc:	e7c51000 	strb	r1, [r5, r0]
    dcd0:	e5de2000 	ldrb	r2, [lr]
    dcd4:	e5dc0000 	ldrb	r0, [ip]
    dcd8:	e5d43000 	ldrb	r3, [r4]
    dcdc:	e35000ff 	cmp	r0, #255	; 0xff
    dce0:	e0833002 	add	r3, r3, r2
    dce4:	e5c43000 	strb	r3, [r4]
    dce8:	03a03000 	moveq	r3, #0	; 0x0
    dcec:	05cc3000 	streqb	r3, [ip]
    dcf0:	e59f61c0 	ldr	r6, [pc, #448]	; deb8 <.text+0x5eb8>
    dcf4:	e5d61000 	ldrb	r1, [r6]
    dcf8:	01a00003 	moveq	r0, r3
    dcfc:	e0813002 	add	r3, r1, r2
    dd00:	e2802001 	add	r2, r0, #1	; 0x1
    dd04:	e5cc2000 	strb	r2, [ip]
    dd08:	e5ce3000 	strb	r3, [lr]
    dd0c:	e7c51000 	strb	r1, [r5, r0]
    dd10:	e5de2000 	ldrb	r2, [lr]
    dd14:	e5dc0000 	ldrb	r0, [ip]
    dd18:	e5d43000 	ldrb	r3, [r4]
    dd1c:	e35000ff 	cmp	r0, #255	; 0xff
    dd20:	e0833002 	add	r3, r3, r2
    dd24:	e5c43000 	strb	r3, [r4]
    dd28:	03a03000 	moveq	r3, #0	; 0x0
    dd2c:	05cc3000 	streqb	r3, [ip]
    dd30:	e5d61001 	ldrb	r1, [r6, #1]
    dd34:	01a00003 	moveq	r0, r3
    dd38:	e0813002 	add	r3, r1, r2
    dd3c:	e2802001 	add	r2, r0, #1	; 0x1
    dd40:	e5cc2000 	strb	r2, [ip]
    dd44:	e5ce3000 	strb	r3, [lr]
    dd48:	e7c51000 	strb	r1, [r5, r0]
    dd4c:	e5de2000 	ldrb	r2, [lr]
    dd50:	e5dc0000 	ldrb	r0, [ip]
    dd54:	e5d43000 	ldrb	r3, [r4]
    dd58:	e35000ff 	cmp	r0, #255	; 0xff
    dd5c:	e0833002 	add	r3, r3, r2
    dd60:	e5c43000 	strb	r3, [r4]
    dd64:	03a03000 	moveq	r3, #0	; 0x0
    dd68:	05cc3000 	streqb	r3, [ip]
    dd6c:	e59f6148 	ldr	r6, [pc, #328]	; debc <.text+0x5ebc>
    dd70:	e5d61000 	ldrb	r1, [r6]
    dd74:	01a00003 	moveq	r0, r3
    dd78:	e0813002 	add	r3, r1, r2
    dd7c:	e2802001 	add	r2, r0, #1	; 0x1
    dd80:	e5ce3000 	strb	r3, [lr]
    dd84:	e5cc2000 	strb	r2, [ip]
    dd88:	e7c51000 	strb	r1, [r5, r0]
    dd8c:	e5de2000 	ldrb	r2, [lr]
    dd90:	e5dc0000 	ldrb	r0, [ip]
    dd94:	e5d43000 	ldrb	r3, [r4]
    dd98:	e35000ff 	cmp	r0, #255	; 0xff
    dd9c:	e0833002 	add	r3, r3, r2
    dda0:	e5c43000 	strb	r3, [r4]
    dda4:	03a03000 	moveq	r3, #0	; 0x0
    dda8:	05cc3000 	streqb	r3, [ip]
    ddac:	e5d61001 	ldrb	r1, [r6, #1]
    ddb0:	01a00003 	moveq	r0, r3
    ddb4:	e0813002 	add	r3, r1, r2
    ddb8:	e2802001 	add	r2, r0, #1	; 0x1
    ddbc:	e5cc2000 	strb	r2, [ip]
    ddc0:	e5ce3000 	strb	r3, [lr]
    ddc4:	e7c51000 	strb	r1, [r5, r0]
    ddc8:	e5d43000 	ldrb	r3, [r4]
    ddcc:	e5dc0000 	ldrb	r0, [ip]
    ddd0:	e5de1000 	ldrb	r1, [lr]
    ddd4:	e35000ff 	cmp	r0, #255	; 0xff
    ddd8:	e0833001 	add	r3, r3, r1
    dddc:	e5c43000 	strb	r3, [r4]
    dde0:	03a03000 	moveq	r3, #0	; 0x0
    dde4:	01a00003 	moveq	r0, r3
    dde8:	05cc3000 	streqb	r3, [ip]
    ddec:	e2803001 	add	r3, r0, #1	; 0x1
    ddf0:	e5cc3000 	strb	r3, [ip]
    ddf4:	e7c51000 	strb	r1, [r5, r0]
    ddf8:	e5dc0000 	ldrb	r0, [ip]
    ddfc:	e35000ff 	cmp	r0, #255	; 0xff
    de00:	03a03000 	moveq	r3, #0	; 0x0
    de04:	01a00003 	moveq	r0, r3
    de08:	05cc3000 	streqb	r3, [ip]
    de0c:	e2803001 	add	r3, r0, #1	; 0x1
    de10:	e5cc3000 	strb	r3, [ip]
    de14:	e5dc2000 	ldrb	r2, [ip]
    de18:	e5d43000 	ldrb	r3, [r4]
    de1c:	e35200ff 	cmp	r2, #255	; 0xff
    de20:	e7c53000 	strb	r3, [r5, r0]
    de24:	03a03000 	moveq	r3, #0	; 0x0
    de28:	05cc3000 	streqb	r3, [ip]
    de2c:	e3a0c059 	mov	ip, #89	; 0x59
    de30:	e5dc3000 	ldrb	r3, [ip]
    de34:	e1a03223 	mov	r3, r3, lsr #4
    de38:	e213e001 	ands	lr, r3, #1	; 0x1
    de3c:	18bd80f0 	ldmneia	sp!, {r4, r5, r6, r7, pc}
    de40:	e5d70000 	ldrb	r0, [r7]
    de44:	e5d73000 	ldrb	r3, [r7]
    de48:	e2833001 	add	r3, r3, #1	; 0x1
    de4c:	e5c73000 	strb	r3, [r7]
    de50:	e5d72000 	ldrb	r2, [r7]
    de54:	e7d51000 	ldrb	r1, [r5, r0]
    de58:	e35200ff 	cmp	r2, #255	; 0xff
    de5c:	e59f305c 	ldr	r3, [pc, #92]	; dec0 <.text+0x5ec0>
    de60:	e59f205c 	ldr	r2, [pc, #92]	; dec4 <.text+0x5ec4>
    de64:	e5c31000 	strb	r1, [r3]
    de68:	e5c2e000 	strb	lr, [r2]
    de6c:	05c7e000 	streqb	lr, [r7]
    de70:	e3a03058 	mov	r3, #88	; 0x58
    de74:	e5d32000 	ldrb	r2, [r3]
    de78:	e3822001 	orr	r2, r2, #1	; 0x1
    de7c:	e5c32000 	strb	r2, [r3]
    de80:	e5dc1000 	ldrb	r1, [ip]
    de84:	e3811010 	orr	r1, r1, #16	; 0x10
    de88:	e5cc1000 	strb	r1, [ip]
    de8c:	e8bd80f0 	ldmia	sp!, {r4, r5, r6, r7, pc}
    de90:	00013b5d 	andeq	r3, r1, sp, asr fp
    de94:	000139f6 	streqd	r3, [r1], -r6
    de98:	000139f5 	streqd	r3, [r1], -r5
    de9c:	000139f3 	streqd	r3, [r1], -r3
    dea0:	000139f8 	streqd	r3, [r1], -r8
    dea4:	00013bc4 	andeq	r3, r1, r4, asr #23
    dea8:	00013af7 	streqd	r3, [r1], -r7
    deac:	000139f2 	streqd	r3, [r1], -r2
    deb0:	00013bdc 	ldreqd	r3, [r1], -ip
    deb4:	00013bbc 	streqh	r3, [r1], -ip
    deb8:	0001350a 	andeq	r3, r1, sl, lsl #10
    debc:	00013508 	andeq	r3, r1, r8, lsl #10
    dec0:	000139f4 	streqd	r3, [r1], -r4
    dec4:	000139f7 	streqd	r3, [r1], -r7

0000dec8 <send_takeOff>:
    dec8:	e1a0c00d 	mov	ip, sp
    decc:	e92dddf0 	stmdb	sp!, {r4, r5, r6, r7, r8, sl, fp, ip, lr, pc}
    ded0:	e59f8208 	ldr	r8, [pc, #520]	; e0e0 <.text+0x60e0>
    ded4:	e5d83000 	ldrb	r3, [r8]
    ded8:	e3530000 	cmp	r3, #0	; 0x0
    dedc:	e24cb004 	sub	fp, ip, #4	; 0x4
    dee0:	089dadf0 	ldmeqia	sp, {r4, r5, r6, r7, r8, sl, fp, sp, pc}
    dee4:	e59f41f8 	ldr	r4, [pc, #504]	; e0e4 <.text+0x60e4>
    dee8:	e1d430b0 	ldrh	r3, [r4]
    deec:	e3530000 	cmp	r3, #0	; 0x0
    def0:	1a000077 	bne	e0d4 <send_takeOff+0x20c>
    def4:	e59f31ec 	ldr	r3, [pc, #492]	; e0e8 <.text+0x60e8>
    def8:	e3a01101 	mov	r1, #1073741824	; 0x40000000
    defc:	e5930000 	ldr	r0, [r3]
    df00:	e281160a 	add	r1, r1, #10485760	; 0xa00000
    df04:	eb0014ca 	bl	13234 <__gesf2>
    df08:	e3500000 	cmp	r0, #0	; 0x0
    df0c:	da000070 	ble	e0d4 <send_takeOff+0x20c>
    df10:	e59f71d4 	ldr	r7, [pc, #468]	; e0ec <.text+0x60ec>
    df14:	e59fe1d4 	ldr	lr, [pc, #468]	; e0f0 <.text+0x60f0>
    df18:	e5d73000 	ldrb	r3, [r7]
    df1c:	e5de1000 	ldrb	r1, [lr]
    df20:	e1510003 	cmp	r1, r3
    df24:	e59f31c8 	ldr	r3, [pc, #456]	; e0f4 <.text+0x60f4>
    df28:	e3a02001 	mov	r2, #1	; 0x1
    df2c:	e5c32000 	strb	r2, [r3]
    df30:	25d73000 	ldrcsb	r3, [r7]
    df34:	35d73000 	ldrccb	r3, [r7]
    df38:	20633001 	rsbcs	r3, r3, r1
    df3c:	226330ff 	rsbcs	r3, r3, #255	; 0xff
    df40:	30613003 	rsbcc	r3, r1, r3
    df44:	e3530006 	cmp	r3, #6	; 0x6
    df48:	e1c420b0 	strh	r2, [r4]
    df4c:	d59f21a4 	ldrle	r2, [pc, #420]	; e0f8 <.text+0x60f8>
    df50:	d5d23000 	ldrleb	r3, [r2]
    df54:	d2833001 	addle	r3, r3, #1	; 0x1
    df58:	d5c23000 	strleb	r3, [r2]
    df5c:	da00005c 	ble	e0d4 <send_takeOff+0x20c>
    df60:	e5de3000 	ldrb	r3, [lr]
    df64:	e2832001 	add	r2, r3, #1	; 0x1
    df68:	e5ce2000 	strb	r2, [lr]
    df6c:	e5de0000 	ldrb	r0, [lr]
    df70:	e59f5184 	ldr	r5, [pc, #388]	; e0fc <.text+0x60fc>
    df74:	e35000ff 	cmp	r0, #255	; 0xff
    df78:	e3a02005 	mov	r2, #5	; 0x5
    df7c:	e7c52003 	strb	r2, [r5, r3]
    df80:	03a03000 	moveq	r3, #0	; 0x0
    df84:	e59fc164 	ldr	ip, [pc, #356]	; e0f0 <.text+0x60f0>
    df88:	01a00003 	moveq	r0, r3
    df8c:	05ce3000 	streqb	r3, [lr]
    df90:	e2803001 	add	r3, r0, #1	; 0x1
    df94:	e5cc3000 	strb	r3, [ip]
    df98:	e3a02004 	mov	r2, #4	; 0x4
    df9c:	e7c52000 	strb	r2, [r5, r0]
    dfa0:	e5dc0000 	ldrb	r0, [ip]
    dfa4:	e35000ff 	cmp	r0, #255	; 0xff
    dfa8:	03a03000 	moveq	r3, #0	; 0x0
    dfac:	05cc3000 	streqb	r3, [ip]
    dfb0:	e59fa148 	ldr	sl, [pc, #328]	; e100 <.text+0x6100>
    dfb4:	e5da1000 	ldrb	r1, [sl]
    dfb8:	01a00003 	moveq	r0, r3
    dfbc:	e59f4140 	ldr	r4, [pc, #320]	; e104 <.text+0x6104>
    dfc0:	e2802001 	add	r2, r0, #1	; 0x1
    dfc4:	e2813004 	add	r3, r1, #4	; 0x4
    dfc8:	e5cc2000 	strb	r2, [ip]
    dfcc:	e5c43000 	strb	r3, [r4]
    dfd0:	e7c51000 	strb	r1, [r5, r0]
    dfd4:	e5d4e000 	ldrb	lr, [r4]
    dfd8:	e5dc0000 	ldrb	r0, [ip]
    dfdc:	e59f6124 	ldr	r6, [pc, #292]	; e108 <.text+0x6108>
    dfe0:	e28e3004 	add	r3, lr, #4	; 0x4
    dfe4:	e35000ff 	cmp	r0, #255	; 0xff
    dfe8:	e5c63000 	strb	r3, [r6]
    dfec:	03a03000 	moveq	r3, #0	; 0x0
    dff0:	05cc3000 	streqb	r3, [ip]
    dff4:	e5da1001 	ldrb	r1, [sl, #1]
    dff8:	01a00003 	moveq	r0, r3
    dffc:	e2802001 	add	r2, r0, #1	; 0x1
    e000:	e081300e 	add	r3, r1, lr
    e004:	e5cc2000 	strb	r2, [ip]
    e008:	e5c43000 	strb	r3, [r4]
    e00c:	e7c51000 	strb	r1, [r5, r0]
    e010:	e5d63000 	ldrb	r3, [r6]
    e014:	e5dc0000 	ldrb	r0, [ip]
    e018:	e5d41000 	ldrb	r1, [r4]
    e01c:	e35000ff 	cmp	r0, #255	; 0xff
    e020:	e0833001 	add	r3, r3, r1
    e024:	e5c63000 	strb	r3, [r6]
    e028:	03a03000 	moveq	r3, #0	; 0x0
    e02c:	01a00003 	moveq	r0, r3
    e030:	05cc3000 	streqb	r3, [ip]
    e034:	e2803001 	add	r3, r0, #1	; 0x1
    e038:	e5cc3000 	strb	r3, [ip]
    e03c:	e7c51000 	strb	r1, [r5, r0]
    e040:	e5dc0000 	ldrb	r0, [ip]
    e044:	e35000ff 	cmp	r0, #255	; 0xff
    e048:	03a03000 	moveq	r3, #0	; 0x0
    e04c:	01a00003 	moveq	r0, r3
    e050:	05cc3000 	streqb	r3, [ip]
    e054:	e2803001 	add	r3, r0, #1	; 0x1
    e058:	e5cc3000 	strb	r3, [ip]
    e05c:	e5dc2000 	ldrb	r2, [ip]
    e060:	e5d63000 	ldrb	r3, [r6]
    e064:	e35200ff 	cmp	r2, #255	; 0xff
    e068:	e7c53000 	strb	r3, [r5, r0]
    e06c:	03a03000 	moveq	r3, #0	; 0x0
    e070:	05cc3000 	streqb	r3, [ip]
    e074:	e3a0c059 	mov	ip, #89	; 0x59
    e078:	e5dc3000 	ldrb	r3, [ip]
    e07c:	e1a03223 	mov	r3, r3, lsr #4
    e080:	e213e001 	ands	lr, r3, #1	; 0x1
    e084:	1a000012 	bne	e0d4 <send_takeOff+0x20c>
    e088:	e5d70000 	ldrb	r0, [r7]
    e08c:	e5d73000 	ldrb	r3, [r7]
    e090:	e2833001 	add	r3, r3, #1	; 0x1
    e094:	e5c73000 	strb	r3, [r7]
    e098:	e5d72000 	ldrb	r2, [r7]
    e09c:	e7d51000 	ldrb	r1, [r5, r0]
    e0a0:	e35200ff 	cmp	r2, #255	; 0xff
    e0a4:	e59f3060 	ldr	r3, [pc, #96]	; e10c <.text+0x610c>
    e0a8:	e59f2060 	ldr	r2, [pc, #96]	; e110 <.text+0x6110>
    e0ac:	e5c31000 	strb	r1, [r3]
    e0b0:	e5c2e000 	strb	lr, [r2]
    e0b4:	05c7e000 	streqb	lr, [r7]
    e0b8:	e3a03058 	mov	r3, #88	; 0x58
    e0bc:	e5d32000 	ldrb	r2, [r3]
    e0c0:	e3822001 	orr	r2, r2, #1	; 0x1
    e0c4:	e5c32000 	strb	r2, [r3]
    e0c8:	e5dc1000 	ldrb	r1, [ip]
    e0cc:	e3811010 	orr	r1, r1, #16	; 0x10
    e0d0:	e5cc1000 	strb	r1, [ip]
    e0d4:	e3a03000 	mov	r3, #0	; 0x0
    e0d8:	e5c83000 	strb	r3, [r8]
    e0dc:	e89dadf0 	ldmia	sp, {r4, r5, r6, r7, r8, sl, fp, sp, pc}
    e0e0:	00013b5d 	andeq	r3, r1, sp, asr fp
    e0e4:	00013ba8 	andeq	r3, r1, r8, lsr #23
    e0e8:	00013bc8 	andeq	r3, r1, r8, asr #23
    e0ec:	000139f6 	streqd	r3, [r1], -r6
    e0f0:	000139f5 	streqd	r3, [r1], -r5
    e0f4:	000135a0 	andeq	r3, r1, r0, lsr #11
    e0f8:	000139f3 	streqd	r3, [r1], -r3
    e0fc:	000139f8 	streqd	r3, [r1], -r8
    e100:	000135a6 	andeq	r3, r1, r6, lsr #11
    e104:	00013af7 	streqd	r3, [r1], -r7
    e108:	000139f2 	streqd	r3, [r1], -r2
    e10c:	000139f4 	streqd	r3, [r1], -r4
    e110:	000139f7 	streqd	r3, [r1], -r7

0000e114 <modem_init>:
    e114:	e3a02037 	mov	r2, #55	; 0x37
    e118:	e5d23000 	ldrb	r3, [r2]
    e11c:	e3833010 	orr	r3, r3, #16	; 0x10
    e120:	e5c23000 	strb	r3, [r2]
    e124:	e3a01001 	mov	r1, #1	; 0x1
    e128:	e3a03051 	mov	r3, #81	; 0x51
    e12c:	e5c31000 	strb	r1, [r3]
    e130:	e242201e 	sub	r2, r2, #30	; 0x1e
    e134:	e2833002 	add	r3, r3, #2	; 0x2
    e138:	e5c32000 	strb	r2, [r3]
    e13c:	e3a00031 	mov	r0, #49	; 0x31
    e140:	e5d03000 	ldrb	r3, [r0]
    e144:	e1e03d03 	mvn	r3, r3, lsl #26
    e148:	e1e03d23 	mvn	r3, r3, lsr #26
    e14c:	e5c03000 	strb	r3, [r0]
    e150:	e0811000 	add	r1, r1, r0
    e154:	e5d13000 	ldrb	r3, [r1]
    e158:	e3833040 	orr	r3, r3, #64	; 0x40
    e15c:	e5c13000 	strb	r3, [r1]
    e160:	e5d12000 	ldrb	r2, [r1]
    e164:	e202207f 	and	r2, r2, #127	; 0x7f
    e168:	e5c12000 	strb	r2, [r1]
    e16c:	e2800029 	add	r0, r0, #41	; 0x29
    e170:	e5d03000 	ldrb	r3, [r0]
    e174:	e3833002 	orr	r3, r3, #2	; 0x2
    e178:	e5c03000 	strb	r3, [r0]
    e17c:	e1a0f00e 	mov	pc, lr

0000e180 <__vector_5>:
    e180:	e59f10f8 	ldr	r1, [pc, #248]	; e280 <.text+0x6280>
    e184:	e5d13000 	ldrb	r3, [r1]
    e188:	e3530000 	cmp	r3, #0	; 0x0
    e18c:	03a02032 	moveq	r2, #50	; 0x32
    e190:	05d23000 	ldreqb	r3, [r2]
    e194:	03c33040 	biceq	r3, r3, #64	; 0x40
    e198:	0a000004 	beq	e1b0 <__vector_5+0x30>
    e19c:	e3530008 	cmp	r3, #8	; 0x8
    e1a0:	83a02032 	movhi	r2, #50	; 0x32
    e1a4:	85d23000 	ldrhib	r3, [r2]
    e1a8:	83833040 	orrhi	r3, r3, #64	; 0x40
    e1ac:	9a00001f 	bls	e230 <__vector_5+0xb0>
    e1b0:	e5c23000 	strb	r3, [r2]
    e1b4:	e5d13000 	ldrb	r3, [r1]
    e1b8:	e2833001 	add	r3, r3, #1	; 0x1
    e1bc:	e5c13000 	strb	r3, [r1]
    e1c0:	e5d12000 	ldrb	r2, [r1]
    e1c4:	e3520009 	cmp	r2, #9	; 0x9
    e1c8:	91a0f00e 	movls	pc, lr
    e1cc:	e59f30b0 	ldr	r3, [pc, #176]	; e284 <.text+0x6284>
    e1d0:	e59fc0b0 	ldr	ip, [pc, #176]	; e288 <.text+0x6288>
    e1d4:	e5d31000 	ldrb	r1, [r3]
    e1d8:	e5dc2000 	ldrb	r2, [ip]
    e1dc:	e1510002 	cmp	r1, r2
    e1e0:	03a02059 	moveq	r2, #89	; 0x59
    e1e4:	05d23000 	ldreqb	r3, [r2]
    e1e8:	03c33010 	biceq	r3, r3, #16	; 0x10
    e1ec:	05c23000 	streqb	r3, [r2]
    e1f0:	01a0f00e 	moveq	pc, lr
    e1f4:	e5dc0000 	ldrb	r0, [ip]
    e1f8:	e5dc3000 	ldrb	r3, [ip]
    e1fc:	e2833001 	add	r3, r3, #1	; 0x1
    e200:	e5cc3000 	strb	r3, [ip]
    e204:	e59f3080 	ldr	r3, [pc, #128]	; e28c <.text+0x628c>
    e208:	e5dc2000 	ldrb	r2, [ip]
    e20c:	e7d31000 	ldrb	r1, [r3, r0]
    e210:	e35200ff 	cmp	r2, #255	; 0xff
    e214:	e59f3064 	ldr	r3, [pc, #100]	; e280 <.text+0x6280>
    e218:	e59f2070 	ldr	r2, [pc, #112]	; e290 <.text+0x6290>
    e21c:	e3a00000 	mov	r0, #0	; 0x0
    e220:	e5c21000 	strb	r1, [r2]
    e224:	e5c30000 	strb	r0, [r3]
    e228:	05cc0000 	streqb	r0, [ip]
    e22c:	e1a0f00e 	mov	pc, lr
    e230:	e59f0058 	ldr	r0, [pc, #88]	; e290 <.text+0x6290>
    e234:	e5d03000 	ldrb	r3, [r0]
    e238:	e3130001 	tst	r3, #1	; 0x1
    e23c:	13a02032 	movne	r2, #50	; 0x32
    e240:	03a02032 	moveq	r2, #50	; 0x32
    e244:	15d23000 	ldrneb	r3, [r2]
    e248:	05d23000 	ldreqb	r3, [r2]
    e24c:	13833040 	orrne	r3, r3, #64	; 0x40
    e250:	03c33040 	biceq	r3, r3, #64	; 0x40
    e254:	e5c23000 	strb	r3, [r2]
    e258:	e5d03000 	ldrb	r3, [r0]
    e25c:	e1a030a3 	mov	r3, r3, lsr #1
    e260:	e5c03000 	strb	r3, [r0]
    e264:	e5d13000 	ldrb	r3, [r1]
    e268:	e2833001 	add	r3, r3, #1	; 0x1
    e26c:	e5c13000 	strb	r3, [r1]
    e270:	e5d12000 	ldrb	r2, [r1]
    e274:	e3520009 	cmp	r2, #9	; 0x9
    e278:	91a0f00e 	movls	pc, lr
    e27c:	eaffffd2 	b	e1cc <__vector_5+0x4c>
    e280:	000139f7 	streqd	r3, [r1], -r7
    e284:	000139f5 	streqd	r3, [r1], -r5
    e288:	000139f6 	streqd	r3, [r1], -r6
    e28c:	000139f8 	streqd	r3, [r1], -r8
    e290:	000139f4 	streqd	r3, [r1], -r4

0000e294 <link_fbw_init>:
    e294:	e59f3010 	ldr	r3, [pc, #16]	; e2ac <.text+0x62ac>
    e298:	e5d31000 	ldrb	r1, [r3]
    e29c:	e59f300c 	ldr	r3, [pc, #12]	; e2b0 <.text+0x62b0>
    e2a0:	e3a02000 	mov	r2, #0	; 0x0
    e2a4:	e5c32000 	strb	r2, [r3]
    e2a8:	e1a0f00e 	mov	pc, lr
    e2ac:	00013b29 	andeq	r3, r1, r9, lsr #22
    e2b0:	00013502 	andeq	r3, r1, r2, lsl #10

0000e2b4 <link_fbw_send>:
    e2b4:	e92d4030 	stmdb	sp!, {r4, r5, lr}
    e2b8:	e59fe09c 	ldr	lr, [pc, #156]	; e35c <.text+0x635c>
    e2bc:	e5de3000 	ldrb	r3, [lr]
    e2c0:	e59f2098 	ldr	r2, [pc, #152]	; e360 <.text+0x6360>
    e2c4:	e20300ff 	and	r0, r3, #255	; 0xff
    e2c8:	e3500000 	cmp	r0, #0	; 0x0
    e2cc:	15d23000 	ldrneb	r3, [r2]
    e2d0:	12833001 	addne	r3, r3, #1	; 0x1
    e2d4:	e59f5088 	ldr	r5, [pc, #136]	; e364 <.text+0x6364>
    e2d8:	e3a0102d 	mov	r1, #45	; 0x2d
    e2dc:	e3a04038 	mov	r4, #56	; 0x38
    e2e0:	15c23000 	strneb	r3, [r2]
    e2e4:	18bd8030 	ldmneia	sp!, {r4, r5, pc}
    e2e8:	e59f3078 	ldr	r3, [pc, #120]	; e368 <.text+0x6368>
    e2ec:	e3a02051 	mov	r2, #81	; 0x51
    e2f0:	e5d3c000 	ldrb	ip, [r3]
    e2f4:	e5c12000 	strb	r2, [r1]
    e2f8:	e3a0302e 	mov	r3, #46	; 0x2e
    e2fc:	e5d32000 	ldrb	r2, [r3]
    e300:	e3120080 	tst	r2, #128	; 0x80
    e304:	12833001 	addne	r3, r3, #1	; 0x1
    e308:	15d32000 	ldrneb	r2, [r3]
    e30c:	e5d13000 	ldrb	r3, [r1]
    e310:	e1e03c83 	mvn	r3, r3, lsl #25
    e314:	e1e03ca3 	mvn	r3, r3, lsr #25
    e318:	e3a02001 	mov	r2, #1	; 0x1
    e31c:	e5c13000 	strb	r3, [r1]
    e320:	e5ce2000 	strb	r2, [lr]
    e324:	e5c5c000 	strb	ip, [r5]
    e328:	e5d42000 	ldrb	r2, [r4]
    e32c:	e3c22001 	bic	r2, r2, #1	; 0x1
    e330:	e5d51000 	ldrb	r1, [r5]
    e334:	e5c42000 	strb	r2, [r4]
    e338:	e59f202c 	ldr	r2, [pc, #44]	; e36c <.text+0x636c>
    e33c:	e3a0302f 	mov	r3, #47	; 0x2f
    e340:	e5c31000 	strb	r1, [r3]
    e344:	e5c20000 	strb	r0, [r2]
    e348:	e59f3020 	ldr	r3, [pc, #32]	; e370 <.text+0x6370>
    e34c:	e59f2020 	ldr	r2, [pc, #32]	; e374 <.text+0x6374>
    e350:	e5c30000 	strb	r0, [r3]
    e354:	e5c20000 	strb	r0, [r2]
    e358:	e8bd8030 	ldmia	sp!, {r4, r5, pc}
    e35c:	00013b2b 	andeq	r3, r1, fp, lsr #22
    e360:	00013b2a 	andeq	r3, r1, sl, lsr #22
    e364:	000135bb 	streqh	r3, [r1], -fp
    e368:	00013af8 	streqd	r3, [r1], -r8
    e36c:	000135b8 	streqh	r3, [r1], -r8
    e370:	000135b9 	streqh	r3, [r1], -r9
    e374:	000135ba 	streqh	r3, [r1], -sl

0000e378 <link_fbw_on_spi_it>:
    e378:	e3a0204c 	mov	r2, #76	; 0x4c
    e37c:	e1d230b0 	ldrh	r3, [r2]
    e380:	e2422002 	sub	r2, r2, #2	; 0x2
    e384:	e28330c8 	add	r3, r3, #200	; 0xc8
    e388:	e1c230b0 	strh	r3, [r2]
    e38c:	e3a01056 	mov	r1, #86	; 0x56
    e390:	e5d13000 	ldrb	r3, [r1]
    e394:	e3833010 	orr	r3, r3, #16	; 0x10
    e398:	e5c13000 	strb	r3, [r1]
    e39c:	e282200d 	add	r2, r2, #13	; 0xd
    e3a0:	e5d23000 	ldrb	r3, [r2]
    e3a4:	e3833010 	orr	r3, r3, #16	; 0x10
    e3a8:	e5c23000 	strb	r3, [r2]
    e3ac:	e1a0f00e 	mov	pc, lr

0000e3b0 <__vector_12>:
    e3b0:	e59fc110 	ldr	ip, [pc, #272]	; e4c8 <.text+0x64c8>
    e3b4:	e5dc3000 	ldrb	r3, [ip]
    e3b8:	e2833001 	add	r3, r3, #1	; 0x1
    e3bc:	e5cc3000 	strb	r3, [ip]
    e3c0:	e3a02057 	mov	r2, #87	; 0x57
    e3c4:	e5d23000 	ldrb	r3, [r2]
    e3c8:	e5dc1000 	ldrb	r1, [ip]
    e3cc:	e3c33010 	bic	r3, r3, #16	; 0x10
    e3d0:	e3510019 	cmp	r1, #25	; 0x19
    e3d4:	e5c23000 	strb	r3, [r2]
    e3d8:	0a000018 	beq	e440 <__vector_12+0x90>
    e3dc:	e3510017 	cmp	r1, #23	; 0x17
    e3e0:	859f30e4 	ldrhi	r3, [pc, #228]	; e4cc <.text+0x64cc>
    e3e4:	85d31000 	ldrhib	r1, [r3]
    e3e8:	83a0202f 	movhi	r2, #47	; 0x2f
    e3ec:	e59f00d8 	ldr	r0, [pc, #216]	; e4cc <.text+0x64cc>
    e3f0:	85c21000 	strhib	r1, [r2]
    e3f4:	8a000006 	bhi	e414 <__vector_12+0x64>
    e3f8:	e59f30d0 	ldr	r3, [pc, #208]	; e4d0 <.text+0x64d0>
    e3fc:	e5d02000 	ldrb	r2, [r0]
    e400:	e7d11003 	ldrb	r1, [r1, r3]
    e404:	e3a0302f 	mov	r3, #47	; 0x2f
    e408:	e0212002 	eor	r2, r1, r2
    e40c:	e5c31000 	strb	r1, [r3]
    e410:	e5c02000 	strb	r2, [r0]
    e414:	e59f00b8 	ldr	r0, [pc, #184]	; e4d4 <.text+0x64d4>
    e418:	e3a0302f 	mov	r3, #47	; 0x2f
    e41c:	e5d31000 	ldrb	r1, [r3]
    e420:	e5d02000 	ldrb	r2, [r0]
    e424:	e20110ff 	and	r1, r1, #255	; 0xff
    e428:	e5dcc000 	ldrb	ip, [ip]
    e42c:	e59f30a4 	ldr	r3, [pc, #164]	; e4d8 <.text+0x64d8>
    e430:	e0212002 	eor	r2, r1, r2
    e434:	e7cc1003 	strb	r1, [ip, r3]
    e438:	e5c02000 	strb	r2, [r0]
    e43c:	e1a0f00e 	mov	pc, lr
    e440:	e59f208c 	ldr	r2, [pc, #140]	; e4d4 <.text+0x64d4>
    e444:	e3a0302f 	mov	r3, #47	; 0x2f
    e448:	e5d31000 	ldrb	r1, [r3]
    e44c:	e5d23000 	ldrb	r3, [r2]
    e450:	e59f0084 	ldr	r0, [pc, #132]	; e4dc <.text+0x64dc>
    e454:	e1530001 	cmp	r3, r1
    e458:	059f3080 	ldreq	r3, [pc, #128]	; e4e0 <.text+0x64e0>
    e45c:	15d03000 	ldrneb	r3, [r0]
    e460:	05d30014 	ldreqb	r0, [r3, #20]
    e464:	059f3078 	ldreq	r3, [pc, #120]	; e4e4 <.text+0x64e4>
    e468:	03a01001 	moveq	r1, #1	; 0x1
    e46c:	059f2074 	ldreq	r2, [pc, #116]	; e4e8 <.text+0x64e8>
    e470:	12833001 	addne	r3, r3, #1	; 0x1
    e474:	05c31000 	streqb	r1, [r3]
    e478:	15c03000 	strneb	r3, [r0]
    e47c:	e59f3068 	ldr	r3, [pc, #104]	; e4ec <.text+0x64ec>
    e480:	05c20000 	streqb	r0, [r2]
    e484:	e3a02001 	mov	r2, #1	; 0x1
    e488:	e5c32000 	strb	r2, [r3]
    e48c:	e59f205c 	ldr	r2, [pc, #92]	; e4f0 <.text+0x64f0>
    e490:	e3a01000 	mov	r1, #0	; 0x0
    e494:	e5c21000 	strb	r1, [r2]
    e498:	e3a0c038 	mov	ip, #56	; 0x38
    e49c:	e5dc3000 	ldrb	r3, [ip]
    e4a0:	e3833001 	orr	r3, r3, #1	; 0x1
    e4a4:	e5cc3000 	strb	r3, [ip]
    e4a8:	e3a0002d 	mov	r0, #45	; 0x2d
    e4ac:	e5d02000 	ldrb	r2, [r0]
    e4b0:	e202207f 	and	r2, r2, #127	; 0x7f
    e4b4:	e5c02000 	strb	r2, [r0]
    e4b8:	e5d03000 	ldrb	r3, [r0]
    e4bc:	e3c33040 	bic	r3, r3, #64	; 0x40
    e4c0:	e5c03000 	strb	r3, [r0]
    e4c4:	e1a0f00e 	mov	pc, lr
    e4c8:	000135b9 	streqh	r3, [r1], -r9
    e4cc:	000135bb 	streqh	r3, [r1], -fp
    e4d0:	00013af8 	streqd	r3, [r1], -r8
    e4d4:	000135ba 	streqh	r3, [r1], -sl
    e4d8:	00013b0f 	andeq	r3, r1, pc, lsl #22
    e4dc:	00013b29 	andeq	r3, r1, r9, lsr #22
    e4e0:	00013b10 	andeq	r3, r1, r0, lsl fp
    e4e4:	000135b8 	streqh	r3, [r1], -r8
    e4e8:	00013b28 	andeq	r3, r1, r8, lsr #22
    e4ec:	00013502 	andeq	r3, r1, r2, lsl #10
    e4f0:	00013b2b 	andeq	r3, r1, fp, lsr #22

0000e4f4 <spi_init>:
    e4f4:	e52de004 	str	lr, [sp, #-4]!
    e4f8:	e3a01037 	mov	r1, #55	; 0x37
    e4fc:	e5d13000 	ldrb	r3, [r1]
    e500:	e3833006 	orr	r3, r3, #6	; 0x6
    e504:	e5c13000 	strb	r3, [r1]
    e508:	e5d12000 	ldrb	r2, [r1]
    e50c:	e59fe04c 	ldr	lr, [pc, #76]	; e560 <.text+0x6560>
    e510:	e3a0c000 	mov	ip, #0	; 0x0
    e514:	e3822001 	orr	r2, r2, #1	; 0x1
    e518:	e5c12000 	strb	r2, [r1]
    e51c:	e5cec000 	strb	ip, [lr]
    e520:	e3a02038 	mov	r2, #56	; 0x38
    e524:	e5d23000 	ldrb	r3, [r2]
    e528:	e3833001 	orr	r3, r3, #1	; 0x1
    e52c:	e5c23000 	strb	r3, [r2]
    e530:	e2411015 	sub	r1, r1, #21	; 0x15
    e534:	e5d13000 	ldrb	r3, [r1]
    e538:	e3e0007f 	mvn	r0, #127	; 0x7f
    e53c:	e1833000 	orr	r3, r3, r0
    e540:	e5c13000 	strb	r3, [r1]
    e544:	e5cec000 	strb	ip, [lr]
    e548:	e2422015 	sub	r2, r2, #21	; 0x15
    e54c:	e5d23000 	ldrb	r3, [r2]
    e550:	e1833000 	orr	r3, r3, r0
    e554:	e5c23000 	strb	r3, [r2]
    e558:	e5cec000 	strb	ip, [lr]
    e55c:	e49df004 	ldr	pc, [sp], #4
    e560:	00013b2b 	andeq	r3, r1, fp, lsr #22

0000e564 <__vector_17>:
    e564:	e59f301c 	ldr	r3, [pc, #28]	; e588 <.text+0x6588>
    e568:	e5d32000 	ldrb	r2, [r3]
    e56c:	e59f1018 	ldr	r1, [pc, #24]	; e58c <.text+0x658c>
    e570:	e3520001 	cmp	r2, #1	; 0x1
    e574:	15d13000 	ldrneb	r3, [r1]
    e578:	12833001 	addne	r3, r3, #1	; 0x1
    e57c:	15c13000 	strneb	r3, [r1]
    e580:	11a0f00e 	movne	pc, lr
    e584:	eaffff7b 	b	e378 <link_fbw_on_spi_it>
    e588:	00013b2b 	andeq	r3, r1, fp, lsr #22
    e58c:	000135a5 	andeq	r3, r1, r5, lsr #11

0000e590 <adc_buf_channel>:
    e590:	e59f3008 	ldr	r3, [pc, #8]	; e5a0 <.text+0x65a0>
    e594:	e20000ff 	and	r0, r0, #255	; 0xff
    e598:	e7831100 	str	r1, [r3, r0, lsl #2]
    e59c:	e1a0f00e 	mov	pc, lr
    e5a0:	000135bc 	streqh	r3, [r1], -ip

0000e5a4 <adc_init>:
    e5a4:	e3a0c000 	mov	ip, #0	; 0x0
    e5a8:	e3a03062 	mov	r3, #98	; 0x62
    e5ac:	e5c3c000 	strb	ip, [r3]
    e5b0:	e3a02061 	mov	r2, #97	; 0x61
    e5b4:	e3a01040 	mov	r1, #64	; 0x40
    e5b8:	e243303b 	sub	r3, r3, #59	; 0x3b
    e5bc:	e5c2c000 	strb	ip, [r2]
    e5c0:	e5c31000 	strb	r1, [r3]
    e5c4:	e3a00028 	mov	r0, #40	; 0x28
    e5c8:	e5d03000 	ldrb	r3, [r0]
    e5cc:	e1e03c83 	mvn	r3, r3, lsl #25
    e5d0:	e1e03ca3 	mvn	r3, r3, lsr #25
    e5d4:	e5c03000 	strb	r3, [r0]
    e5d8:	e2422092 	sub	r2, r2, #146	; 0x92
    e5dc:	e3a03026 	mov	r3, #38	; 0x26
    e5e0:	e59f101c 	ldr	r1, [pc, #28]	; e604 <.text+0x6604>
    e5e4:	e5c32000 	strb	r2, [r3]
    e5e8:	e1a0200c 	mov	r2, ip
    e5ec:	e28c3001 	add	r3, ip, #1	; 0x1
    e5f0:	e781210c 	str	r2, [r1, ip, lsl #2]
    e5f4:	e203c0ff 	and	ip, r3, #255	; 0xff
    e5f8:	e35c0007 	cmp	ip, #7	; 0x7
    e5fc:	9afffffa 	bls	e5ec <adc_init+0x48>
    e600:	e1a0f00e 	mov	pc, lr
    e604:	000135bc 	streqh	r3, [r1], -ip

0000e608 <__vector_21>:
    e608:	e92d4070 	stmdb	sp!, {r4, r5, r6, lr}
    e60c:	e3a05027 	mov	r5, #39	; 0x27
    e610:	e5d53000 	ldrb	r3, [r5]
    e614:	e203e007 	and	lr, r3, #7	; 0x7
    e618:	e59f3088 	ldr	r3, [pc, #136]	; e6a8 <.text+0x66a8>
    e61c:	e3a02024 	mov	r2, #36	; 0x24
    e620:	e793c10e 	ldr	ip, [r3, lr, lsl #2]
    e624:	e1d230b0 	ldrh	r3, [r2]
    e628:	e1a04003 	mov	r4, r3
    e62c:	e59f3078 	ldr	r3, [pc, #120]	; e6ac <.text+0x66ac>
    e630:	e1a0208e 	mov	r2, lr, lsl #1
    e634:	e28e1001 	add	r1, lr, #1	; 0x1
    e638:	e35c0000 	cmp	ip, #0	; 0x0
    e63c:	e3a06026 	mov	r6, #38	; 0x26
    e640:	e201e0ff 	and	lr, r1, #255	; 0xff
    e644:	e18240b3 	strh	r4, [r2, r3]
    e648:	0a00000e 	beq	e688 <__vector_21+0x80>
    e64c:	e5dc3042 	ldrb	r3, [ip, #66]
    e650:	e2833001 	add	r3, r3, #1	; 0x1
    e654:	e20330ff 	and	r3, r3, #255	; 0xff
    e658:	e353001f 	cmp	r3, #31	; 0x1f
    e65c:	83a03000 	movhi	r3, #0	; 0x0
    e660:	e08c0083 	add	r0, ip, r3, lsl #1
    e664:	e1dc20b0 	ldrh	r2, [ip]
    e668:	e1d010b2 	ldrh	r1, [r0, #2]
    e66c:	e0612002 	rsb	r2, r1, r2
    e670:	e1cc20b0 	strh	r2, [ip]
    e674:	e1dc10b0 	ldrh	r1, [ip]
    e678:	e0841001 	add	r1, r4, r1
    e67c:	e5cc3042 	strb	r3, [ip, #66]
    e680:	e1c040b2 	strh	r4, [r0, #2]
    e684:	e1cc10b0 	strh	r1, [ip]
    e688:	e35e0007 	cmp	lr, #7	; 0x7
    e68c:	83a0e000 	movhi	lr, #0	; 0x0
    e690:	e38e2040 	orr	r2, lr, #64	; 0x40
    e694:	e5c52000 	strb	r2, [r5]
    e698:	e5d63000 	ldrb	r3, [r6]
    e69c:	e3833040 	orr	r3, r3, #64	; 0x40
    e6a0:	e5c63000 	strb	r3, [r6]
    e6a4:	e8bd8070 	ldmia	sp!, {r4, r5, r6, pc}
    e6a8:	000135bc 	streqh	r3, [r1], -ip
    e6ac:	00013b2c 	andeq	r3, r1, ip, lsr #22

0000e6b0 <gps_init>:
    e6b0:	e1a0c00d 	mov	ip, sp
    e6b4:	e92dd800 	stmdb	sp!, {fp, ip, lr, pc}
    e6b8:	e24cb004 	sub	fp, ip, #4	; 0x4
    e6bc:	eb000b6f 	bl	11480 <uart1_init>
    e6c0:	e59f3008 	ldr	r3, [pc, #8]	; e6d0 <.text+0x66d0>
    e6c4:	e3a02000 	mov	r2, #0	; 0x0
    e6c8:	e5c32000 	strb	r2, [r3]
    e6cc:	e89da800 	ldmia	sp, {fp, sp, pc}
    e6d0:	000136db 	ldreqd	r3, [r1], -fp

0000e6d4 <parse_gps_msg>:
    e6d4:	e1a0c00d 	mov	ip, sp
    e6d8:	e92dd810 	stmdb	sp!, {r4, fp, ip, lr, pc}
    e6dc:	e59f31d8 	ldr	r3, [pc, #472]	; e8bc <.text+0x68bc>
    e6e0:	e5d32000 	ldrb	r2, [r3]
    e6e4:	e3520001 	cmp	r2, #1	; 0x1
    e6e8:	e24cb004 	sub	fp, ip, #4	; 0x4
    e6ec:	189da810 	ldmneia	sp, {r4, fp, sp, pc}
    e6f0:	e59f31c8 	ldr	r3, [pc, #456]	; e8c0 <.text+0x68c0>
    e6f4:	e5d33000 	ldrb	r3, [r3]
    e6f8:	e3530008 	cmp	r3, #8	; 0x8
    e6fc:	0a00004e 	beq	e83c <parse_gps_msg+0x168>
    e700:	e3530003 	cmp	r3, #3	; 0x3
    e704:	059f31b8 	ldreq	r3, [pc, #440]	; e8c4 <.text+0x68c4>
    e708:	059f21b8 	ldreq	r2, [pc, #440]	; e8c8 <.text+0x68c8>
    e70c:	05d31000 	ldreqb	r1, [r3]
    e710:	05c21000 	streqb	r1, [r2]
    e714:	089da810 	ldmeqia	sp, {r4, fp, sp, pc}
    e718:	e3530012 	cmp	r3, #18	; 0x12
    e71c:	189da810 	ldmneia	sp, {r4, fp, sp, pc}
    e720:	e59f31a4 	ldr	r3, [pc, #420]	; e8cc <.text+0x68cc>
    e724:	e5933000 	ldr	r3, [r3]
    e728:	e3530000 	cmp	r3, #0	; 0x0
    e72c:	ba000050 	blt	e874 <parse_gps_msg+0x1a0>
    e730:	e1a00003 	mov	r0, r3
    e734:	eb0011df 	bl	12eb8 <__floatsisf>
    e738:	e3a01442 	mov	r1, #1107296256	; 0x42000000
    e73c:	e2811732 	add	r1, r1, #13107200	; 0xc80000
    e740:	eb001253 	bl	13094 <__divsf3>
    e744:	e59f4184 	ldr	r4, [pc, #388]	; e8d0 <.text+0x68d0>
    e748:	e59f3184 	ldr	r3, [pc, #388]	; e8d4 <.text+0x68d4>
    e74c:	e5830000 	str	r0, [r3]
    e750:	e5940000 	ldr	r0, [r4]
    e754:	eb0011d7 	bl	12eb8 <__floatsisf>
    e758:	e3a014c2 	mov	r1, #-1040187392	; 0xc2000000
    e75c:	e2811732 	add	r1, r1, #13107200	; 0xc80000
    e760:	eb00124b 	bl	13094 <__divsf3>
    e764:	e59f316c 	ldr	r3, [pc, #364]	; e8d8 <.text+0x68d8>
    e768:	e5830000 	str	r0, [r3]
    e76c:	e594000c 	ldr	r0, [r4, #12]
    e770:	eb0011d0 	bl	12eb8 <__floatsisf>
    e774:	eb000f91 	bl	125c0 <__extendsfdf2>
    e778:	e28f2f49 	add	r2, pc, #292	; 0x124
    e77c:	e892000c 	ldmia	r2, {r2, r3}
    e780:	eb001037 	bl	12864 <__divdf3>
    e784:	e28f2e12 	add	r2, pc, #288	; 0x120
    e788:	e892000c 	ldmia	r2, {r2, r3}
    e78c:	eb001034 	bl	12864 <__divdf3>
    e790:	e28f2f47 	add	r2, pc, #284	; 0x11c
    e794:	e892000c 	ldmia	r2, {r2, r3}
    e798:	eb000f9b 	bl	1260c <__muldf3>
    e79c:	eb001114 	bl	12bf4 <__truncdfsf2>
    e7a0:	e514200c 	ldr	r2, [r4, #-12]
    e7a4:	e59f3130 	ldr	r3, [pc, #304]	; e8dc <.text+0x68dc>
    e7a8:	e3520000 	cmp	r2, #0	; 0x0
    e7ac:	e5830000 	str	r0, [r3]
    e7b0:	ba000035 	blt	e88c <parse_gps_msg+0x1b8>
    e7b4:	e1a00002 	mov	r0, r2
    e7b8:	eb0011be 	bl	12eb8 <__floatsisf>
    e7bc:	e3a01311 	mov	r1, #1140850688	; 0x44000000
    e7c0:	e281187a 	add	r1, r1, #7995392	; 0x7a0000
    e7c4:	eb001232 	bl	13094 <__divsf3>
    e7c8:	e59f3110 	ldr	r3, [pc, #272]	; e8e0 <.text+0x68e0>
    e7cc:	e59f4110 	ldr	r4, [pc, #272]	; e8e4 <.text+0x68e4>
    e7d0:	e5932000 	ldr	r2, [r3]
    e7d4:	e0c13294 	smull	r3, r1, r4, r2
    e7d8:	e59f3108 	ldr	r3, [pc, #264]	; e8e8 <.text+0x68e8>
    e7dc:	e1a02fc2 	mov	r2, r2, asr #31
    e7e0:	e06222c1 	rsb	r2, r2, r1, asr #5
    e7e4:	e5830000 	str	r0, [r3]
    e7e8:	e2420a93 	sub	r0, r2, #602112	; 0x93000
    e7ec:	e2400ed5 	sub	r0, r0, #3408	; 0xd50
    e7f0:	e240000a 	sub	r0, r0, #10	; 0xa
    e7f4:	eb0011af 	bl	12eb8 <__floatsisf>
    e7f8:	e59f20ec 	ldr	r2, [pc, #236]	; e8ec <.text+0x68ec>
    e7fc:	e5923000 	ldr	r3, [r2]
    e800:	e0c12394 	smull	r2, r1, r4, r3
    e804:	e59f20e4 	ldr	r2, [pc, #228]	; e8f0 <.text+0x68f0>
    e808:	e1a03fc3 	mov	r3, r3, asr #31
    e80c:	e06332c1 	rsb	r3, r3, r1, asr #5
    e810:	e5820000 	str	r0, [r2]
    e814:	e2430716 	sub	r0, r3, #5767168	; 0x580000
    e818:	e2400c75 	sub	r0, r0, #29952	; 0x7500
    e81c:	e24000e6 	sub	r0, r0, #230	; 0xe6
    e820:	eb0011a4 	bl	12eb8 <__floatsisf>
    e824:	e59f30c8 	ldr	r3, [pc, #200]	; e8f4 <.text+0x68f4>
    e828:	e5830000 	str	r0, [r3]
    e82c:	e59f30c4 	ldr	r3, [pc, #196]	; e8f8 <.text+0x68f8>
    e830:	e3a02001 	mov	r2, #1	; 0x1
    e834:	e5c32000 	strb	r2, [r3]
    e838:	e89da810 	ldmia	sp, {r4, fp, sp, pc}
    e83c:	e59f3080 	ldr	r3, [pc, #128]	; e8c4 <.text+0x68c4>
    e840:	e59f2098 	ldr	r2, [pc, #152]	; e8e0 <.text+0x68e0>
    e844:	e8931002 	ldmia	r3, {r1, ip}
    e848:	e5930008 	ldr	r0, [r3, #8]
    e84c:	e59f3098 	ldr	r3, [pc, #152]	; e8ec <.text+0x68ec>
    e850:	e5821000 	str	r1, [r2]
    e854:	e583c000 	str	ip, [r3]
    e858:	eb001196 	bl	12eb8 <__floatsisf>
    e85c:	e3a01442 	mov	r1, #1107296256	; 0x42000000
    e860:	e2811732 	add	r1, r1, #13107200	; 0xc80000
    e864:	eb00120a 	bl	13094 <__divsf3>
    e868:	e59f308c 	ldr	r3, [pc, #140]	; e8fc <.text+0x68fc>
    e86c:	e5830000 	str	r0, [r3]
    e870:	e89da810 	ldmia	sp, {r4, fp, sp, pc}
    e874:	e2030001 	and	r0, r3, #1	; 0x1
    e878:	e18000a3 	orr	r0, r0, r3, lsr #1
    e87c:	eb00118d 	bl	12eb8 <__floatsisf>
    e880:	e1a01000 	mov	r1, r0
    e884:	eb001119 	bl	12cf0 <__addsf3>
    e888:	eaffffaa 	b	e738 <parse_gps_msg+0x64>
    e88c:	e2020001 	and	r0, r2, #1	; 0x1
    e890:	e18000a2 	orr	r0, r0, r2, lsr #1
    e894:	eb001187 	bl	12eb8 <__floatsisf>
    e898:	e1a01000 	mov	r1, r0
    e89c:	eb001113 	bl	12cf0 <__addsf3>
    e8a0:	eaffffc5 	b	e7bc <parse_gps_msg+0xe8>
    e8a4:	40f86a00 	rscmis	r6, r8, r0, lsl #20
    e8a8:	00000000 	andeq	r0, r0, r0
    e8ac:	40668000 	rsbmi	r8, r6, r0
    e8b0:	00000000 	andeq	r0, r0, r0
    e8b4:	400921fb 	strmid	r2, [r9], -fp
    e8b8:	5a7ed197 	bpl	1fc2f1c <_stack+0x1f42f1c>
    e8bc:	000136e2 	andeq	r3, r1, r2, ror #13
    e8c0:	000136e1 	andeq	r3, r1, r1, ror #13
    e8c4:	000135e0 	andeq	r3, r1, r0, ror #11
    e8c8:	00013b64 	andeq	r3, r1, r4, ror #22
    e8cc:	000135f0 	streqd	r3, [r1], -r0
    e8d0:	000135e8 	andeq	r3, r1, r8, ror #11
    e8d4:	00013b58 	andeq	r3, r1, r8, asr fp
    e8d8:	00013b68 	andeq	r3, r1, r8, ror #22
    e8dc:	00013b54 	andeq	r3, r1, r4, asr fp
    e8e0:	00013b50 	andeq	r3, r1, r0, asr fp
    e8e4:	51eb851f 	mvnpl	r8, pc, lsl r5
    e8e8:	00013b60 	andeq	r3, r1, r0, ror #22
    e8ec:	00013b4c 	andeq	r3, r1, ip, asr #22
    e8f0:	00013b3c 	andeq	r3, r1, ip, lsr fp
    e8f4:	00013b48 	andeq	r3, r1, r8, asr #22
    e8f8:	00013b5d 	andeq	r3, r1, sp, asr fp
    e8fc:	00013b40 	andeq	r3, r1, r0, asr #22

0000e900 <__vector_30>:
    e900:	e92d4030 	stmdb	sp!, {r4, r5, lr}
    e904:	e59f51ac 	ldr	r5, [pc, #428]	; eab8 <.text+0x6ab8>
    e908:	e5d54000 	ldrb	r4, [r5]
    e90c:	e3a0309c 	mov	r3, #156	; 0x9c
    e910:	e5d32000 	ldrb	r2, [r3]
    e914:	e204c0ff 	and	ip, r4, #255	; 0xff
    e918:	e35c0006 	cmp	ip, #6	; 0x6
    e91c:	e202e0ff 	and	lr, r2, #255	; 0xff
    e920:	8a000008 	bhi	e948 <__vector_30+0x48>
    e924:	e59f2190 	ldr	r2, [pc, #400]	; eabc <.text+0x6abc>
    e928:	e5d23000 	ldrb	r3, [r2]
    e92c:	e08e3003 	add	r3, lr, r3
    e930:	e5c23000 	strb	r3, [r2]
    e934:	e59f0184 	ldr	r0, [pc, #388]	; eac0 <.text+0x6ac0>
    e938:	e5d21000 	ldrb	r1, [r2]
    e93c:	e5d03000 	ldrb	r3, [r0]
    e940:	e0833001 	add	r3, r3, r1
    e944:	e5c03000 	strb	r3, [r0]
    e948:	e25c3000 	subs	r3, ip, #0	; 0x0
    e94c:	1a000004 	bne	e964 <__vector_30+0x64>
    e950:	e35e00b5 	cmp	lr, #181	; 0xb5
    e954:	18bd8030 	ldmneia	sp!, {r4, r5, pc}
    e958:	e2843001 	add	r3, r4, #1	; 0x1
    e95c:	e5c53000 	strb	r3, [r5]
    e960:	e8bd8030 	ldmia	sp!, {r4, r5, pc}
    e964:	e3530001 	cmp	r3, #1	; 0x1
    e968:	0a000019 	beq	e9d4 <__vector_30+0xd4>
    e96c:	e3530002 	cmp	r3, #2	; 0x2
    e970:	0a000026 	beq	ea10 <__vector_30+0x110>
    e974:	e3530003 	cmp	r3, #3	; 0x3
    e978:	0a00001f 	beq	e9fc <__vector_30+0xfc>
    e97c:	e3530004 	cmp	r3, #4	; 0x4
    e980:	059f313c 	ldreq	r3, [pc, #316]	; eac4 <.text+0x6ac4>
    e984:	02842001 	addeq	r2, r4, #1	; 0x1
    e988:	01c3e0b0 	streqh	lr, [r3]
    e98c:	0a00001d 	beq	ea08 <__vector_30+0x108>
    e990:	e3530005 	cmp	r3, #5	; 0x5
    e994:	0a00002e 	beq	ea54 <__vector_30+0x154>
    e998:	e3530006 	cmp	r3, #6	; 0x6
    e99c:	0a000039 	beq	ea88 <__vector_30+0x188>
    e9a0:	e3530007 	cmp	r3, #7	; 0x7
    e9a4:	0a000024 	beq	ea3c <__vector_30+0x13c>
    e9a8:	e35c0008 	cmp	ip, #8	; 0x8
    e9ac:	18bd8030 	ldmneia	sp!, {r4, r5, pc}
    e9b0:	e59f3108 	ldr	r3, [pc, #264]	; eac0 <.text+0x6ac0>
    e9b4:	e5d32000 	ldrb	r2, [r3]
    e9b8:	e152000e 	cmp	r2, lr
    e9bc:	059f3104 	ldreq	r3, [pc, #260]	; eac8 <.text+0x6ac8>
    e9c0:	03a02001 	moveq	r2, #1	; 0x1
    e9c4:	05c32000 	streqb	r2, [r3]
    e9c8:	e3a03000 	mov	r3, #0	; 0x0
    e9cc:	e5c53000 	strb	r3, [r5]
    e9d0:	e8bd8030 	ldmia	sp!, {r4, r5, pc}
    e9d4:	e35e0062 	cmp	lr, #98	; 0x62
    e9d8:	1afffffa 	bne	e9c8 <__vector_30+0xc8>
    e9dc:	e59f30dc 	ldr	r3, [pc, #220]	; eac0 <.text+0x6ac0>
    e9e0:	e3a02000 	mov	r2, #0	; 0x0
    e9e4:	e5c32000 	strb	r2, [r3]
    e9e8:	e59f30cc 	ldr	r3, [pc, #204]	; eabc <.text+0x6abc>
    e9ec:	e2841001 	add	r1, r4, #1	; 0x1
    e9f0:	e5c51000 	strb	r1, [r5]
    e9f4:	e5c32000 	strb	r2, [r3]
    e9f8:	e8bd8030 	ldmia	sp!, {r4, r5, pc}
    e9fc:	e59f30c8 	ldr	r3, [pc, #200]	; eacc <.text+0x6acc>
    ea00:	e2842001 	add	r2, r4, #1	; 0x1
    ea04:	e5c3e000 	strb	lr, [r3]
    ea08:	e5c52000 	strb	r2, [r5]
    ea0c:	e8bd8030 	ldmia	sp!, {r4, r5, pc}
    ea10:	e59f30b0 	ldr	r3, [pc, #176]	; eac8 <.text+0x6ac8>
    ea14:	e5d32000 	ldrb	r2, [r3]
    ea18:	e3520000 	cmp	r2, #0	; 0x0
    ea1c:	159f20ac 	ldrne	r2, [pc, #172]	; ead0 <.text+0x6ad0>
    ea20:	15d23000 	ldrneb	r3, [r2]
    ea24:	12833001 	addne	r3, r3, #1	; 0x1
    ea28:	15c23000 	strneb	r3, [r2]
    ea2c:	1affffe5 	bne	e9c8 <__vector_30+0xc8>
    ea30:	e59f309c 	ldr	r3, [pc, #156]	; ead4 <.text+0x6ad4>
    ea34:	e2842001 	add	r2, r4, #1	; 0x1
    ea38:	eafffff1 	b	ea04 <__vector_30+0x104>
    ea3c:	e59f3078 	ldr	r3, [pc, #120]	; eabc <.text+0x6abc>
    ea40:	e5d32000 	ldrb	r2, [r3]
    ea44:	e152000e 	cmp	r2, lr
    ea48:	0affffc2 	beq	e958 <__vector_30+0x58>
    ea4c:	e3a03000 	mov	r3, #0	; 0x0
    ea50:	eaffffdd 	b	e9cc <__vector_30+0xcc>
    ea54:	e59f3068 	ldr	r3, [pc, #104]	; eac4 <.text+0x6ac4>
    ea58:	e1d320b0 	ldrh	r2, [r3]
    ea5c:	e182240e 	orr	r2, r2, lr, lsl #8
    ea60:	e1c320b0 	strh	r2, [r3]
    ea64:	e1d310b0 	ldrh	r1, [r3]
    ea68:	e35100ff 	cmp	r1, #255	; 0xff
    ea6c:	8affffd5 	bhi	e9c8 <__vector_30+0xc8>
    ea70:	e59f3060 	ldr	r3, [pc, #96]	; ead8 <.text+0x6ad8>
    ea74:	e2841001 	add	r1, r4, #1	; 0x1
    ea78:	e3a02000 	mov	r2, #0	; 0x0
    ea7c:	e5c32000 	strb	r2, [r3]
    ea80:	e5c51000 	strb	r1, [r5]
    ea84:	e8bd8030 	ldmia	sp!, {r4, r5, pc}
    ea88:	e59f3048 	ldr	r3, [pc, #72]	; ead8 <.text+0x6ad8>
    ea8c:	e5d30000 	ldrb	r0, [r3]
    ea90:	e2802001 	add	r2, r0, #1	; 0x1
    ea94:	e5c32000 	strb	r2, [r3]
    ea98:	e59f2024 	ldr	r2, [pc, #36]	; eac4 <.text+0x6ac4>
    ea9c:	e5d31000 	ldrb	r1, [r3]
    eaa0:	e1d230b0 	ldrh	r3, [r2]
    eaa4:	e59f2030 	ldr	r2, [pc, #48]	; eadc <.text+0x6adc>
    eaa8:	e1510003 	cmp	r1, r3
    eaac:	e7c2e000 	strb	lr, [r2, r0]
    eab0:	38bd8030 	ldmccia	sp!, {r4, r5, pc}
    eab4:	eaffffa7 	b	e958 <__vector_30+0x58>
    eab8:	000136db 	ldreqd	r3, [r1], -fp
    eabc:	000136df 	ldreqd	r3, [r1], -pc
    eac0:	000136e0 	andeq	r3, r1, r0, ror #13
    eac4:	000136dc 	ldreqd	r3, [r1], -ip
    eac8:	00013b44 	andeq	r3, r1, r4, asr #22
    eacc:	000136e1 	andeq	r3, r1, r1, ror #13
    ead0:	00013b5c 	andeq	r3, r1, ip, asr fp
    ead4:	000136e2 	andeq	r3, r1, r2, ror #13
    ead8:	000136de 	ldreqd	r3, [r1], -lr
    eadc:	000135dc 	ldreqd	r3, [r1], -ip

0000eae0 <ir_init>:
    eae0:	e59f202c 	ldr	r2, [pc, #44]	; eb14 <.text+0x6b14>
    eae4:	e59f302c 	ldr	r3, [pc, #44]	; eb18 <.text+0x6b18>
    eae8:	e1a0c00d 	mov	ip, sp
    eaec:	e92dd800 	stmdb	sp!, {fp, ip, lr, pc}
    eaf0:	e3a00001 	mov	r0, #1	; 0x1
    eaf4:	e24cb004 	sub	fp, ip, #4	; 0x4
    eaf8:	e59f101c 	ldr	r1, [pc, #28]	; eb1c <.text+0x6b1c>
    eafc:	e5832000 	str	r2, [r3]
    eb00:	ebfffea2 	bl	e590 <adc_buf_channel>
    eb04:	e59f1014 	ldr	r1, [pc, #20]	; eb20 <.text+0x6b20>
    eb08:	e3a00002 	mov	r0, #2	; 0x2
    eb0c:	e89d6800 	ldmia	sp, {fp, sp, lr}
    eb10:	eafffe9e 	b	e590 <adc_buf_channel>
    eb14:	3b75c28f 	blcc	1d7f558 <_stack+0x1cff558>
    eb18:	00013504 	andeq	r3, r1, r4, lsl #10
    eb1c:	000136e4 	andeq	r3, r1, r4, ror #13
    eb20:	00013728 	andeq	r3, r1, r8, lsr #14

0000eb24 <ir_update>:
    eb24:	e52de004 	str	lr, [sp, #-4]!
    eb28:	e59f3048 	ldr	r3, [pc, #72]	; eb78 <.text+0x6b78>
    eb2c:	e59f2048 	ldr	r2, [pc, #72]	; eb7c <.text+0x6b7c>
    eb30:	e1d310b0 	ldrh	r1, [r3]
    eb34:	e1d200b0 	ldrh	r0, [r2]
    eb38:	e59f3040 	ldr	r3, [pc, #64]	; eb80 <.text+0x6b80>
    eb3c:	e59f2040 	ldr	r2, [pc, #64]	; eb84 <.text+0x6b84>
    eb40:	e1a012a1 	mov	r1, r1, lsr #5
    eb44:	e1a002a0 	mov	r0, r0, lsr #5
    eb48:	e1d3e0b0 	ldrh	lr, [r3]
    eb4c:	e1d2c0b0 	ldrh	ip, [r2]
    eb50:	e0813000 	add	r3, r1, r0
    eb54:	e2633000 	rsb	r3, r3, #0	; 0x0
    eb58:	e0610000 	rsb	r0, r1, r0
    eb5c:	e59f2024 	ldr	r2, [pc, #36]	; eb88 <.text+0x6b88>
    eb60:	e59f1024 	ldr	r1, [pc, #36]	; eb8c <.text+0x6b8c>
    eb64:	e06e3003 	rsb	r3, lr, r3
    eb68:	e06c0000 	rsb	r0, ip, r0
    eb6c:	e1c230b0 	strh	r3, [r2]
    eb70:	e1c100b0 	strh	r0, [r1]
    eb74:	e49df004 	ldr	pc, [sp], #4
    eb78:	000136e4 	andeq	r3, r1, r4, ror #13
    eb7c:	00013728 	andeq	r3, r1, r8, lsr #14
    eb80:	0001350a 	andeq	r3, r1, sl, lsl #10
    eb84:	00013508 	andeq	r3, r1, r8, lsl #10
    eb88:	00013b6e 	andeq	r3, r1, lr, ror #22
    eb8c:	00013b6c 	andeq	r3, r1, ip, ror #22

0000eb90 <ir_gain_calib>:
    eb90:	e1a0c00d 	mov	ip, sp
    eb94:	e92dd800 	stmdb	sp!, {fp, ip, lr, pc}
    eb98:	e59f2044 	ldr	r2, [pc, #68]	; ebe4 <.text+0x6be4>
    eb9c:	e1d230b0 	ldrh	r3, [r2]
    eba0:	e59f1040 	ldr	r1, [pc, #64]	; ebe8 <.text+0x6be8>
    eba4:	e2633000 	rsb	r3, r3, #0	; 0x0
    eba8:	e1c130b0 	strh	r3, [r1]
    ebac:	e24cb004 	sub	fp, ip, #4	; 0x4
    ebb0:	e1d100f0 	ldrsh	r0, [r1]
    ebb4:	eb000e76 	bl	12594 <__floatsidf>
    ebb8:	e1a03001 	mov	r3, r1
    ebbc:	e1a02000 	mov	r2, r0
    ebc0:	e28f0014 	add	r0, pc, #20	; 0x14
    ebc4:	e8900003 	ldmia	r0, {r0, r1}
    ebc8:	eb000f25 	bl	12864 <__divdf3>
    ebcc:	eb001008 	bl	12bf4 <__truncdfsf2>
    ebd0:	e59f3014 	ldr	r3, [pc, #20]	; ebec <.text+0x6bec>
    ebd4:	e5830000 	str	r0, [r3]
    ebd8:	e89da800 	ldmia	sp, {fp, sp, pc}
    ebdc:	3fe80000 	swicc	0x00e80000
    ebe0:	00000000 	andeq	r0, r0, r0
    ebe4:	00013b6c 	andeq	r3, r1, ip, ror #22
    ebe8:	0001350c 	andeq	r3, r1, ip, lsl #10
    ebec:	00013504 	andeq	r3, r1, r4, lsl #10

0000ebf0 <roll_pitch_pid_run>:
    ebf0:	e1a0c00d 	mov	ip, sp
    ebf4:	e92dd8f0 	stmdb	sp!, {r4, r5, r6, r7, fp, ip, lr, pc}
    ebf8:	e59f3158 	ldr	r3, [pc, #344]	; ed58 <.text+0x6d58>
    ebfc:	e59f7158 	ldr	r7, [pc, #344]	; ed5c <.text+0x6d5c>
    ec00:	e24cb004 	sub	fp, ip, #4	; 0x4
    ec04:	e5931000 	ldr	r1, [r3]
    ec08:	e5970000 	ldr	r0, [r7]
    ec0c:	eb001036 	bl	12cec <__subsf3>
    ec10:	e59f3148 	ldr	r3, [pc, #328]	; ed60 <.text+0x6d60>
    ec14:	e1a01000 	mov	r1, r0
    ec18:	e5930000 	ldr	r0, [r3]
    ec1c:	eb0010b8 	bl	12f04 <__mulsf3>
    ec20:	e3a014c6 	mov	r1, #-973078528	; 0xc6000000
    ec24:	e2811816 	add	r1, r1, #1441792	; 0x160000
    ec28:	e1a04000 	mov	r4, r0
    ec2c:	eb001182 	bl	1323c <__lesf2>
    ec30:	e3500000 	cmp	r0, #0	; 0x0
    ec34:	b3a034b5 	movlt	r3, #-1258291200	; 0xb5000000
    ec38:	b1a038c3 	movlt	r3, r3, asr #17
    ec3c:	b1a02003 	movlt	r2, r3
    ec40:	ba000006 	blt	ec60 <roll_pitch_pid_run+0x70>
    ec44:	e3a01446 	mov	r1, #1174405120	; 0x46000000
    ec48:	e1a00004 	mov	r0, r4
    ec4c:	e2811816 	add	r1, r1, #1441792	; 0x160000
    ec50:	eb001177 	bl	13234 <__gesf2>
    ec54:	e3500000 	cmp	r0, #0	; 0x0
    ec58:	c3a02d96 	movgt	r2, #9600	; 0x2580
    ec5c:	da000034 	ble	ed34 <roll_pitch_pid_run+0x144>
    ec60:	e59f40fc 	ldr	r4, [pc, #252]	; ed64 <.text+0x6d64>
    ec64:	e59f30fc 	ldr	r3, [pc, #252]	; ed68 <.text+0x6d68>
    ec68:	e5945000 	ldr	r5, [r4]
    ec6c:	e1c320b0 	strh	r2, [r3]
    ec70:	e3a01000 	mov	r1, #0	; 0x0
    ec74:	e1a00005 	mov	r0, r5
    ec78:	eb00116f 	bl	1323c <__lesf2>
    ec7c:	e59f20e8 	ldr	r2, [pc, #232]	; ed6c <.text+0x6d6c>
    ec80:	e3500000 	cmp	r0, #0	; 0x0
    ec84:	e59f30e4 	ldr	r3, [pc, #228]	; ed70 <.text+0x6d70>
    ec88:	b3a05000 	movlt	r5, #0	; 0x0
    ec8c:	e5921000 	ldr	r1, [r2]
    ec90:	e5930000 	ldr	r0, [r3]
    ec94:	b5845000 	strlt	r5, [r4]
    ec98:	eb001013 	bl	12cec <__subsf3>
    ec9c:	e5974000 	ldr	r4, [r7]
    eca0:	e3a01000 	mov	r1, #0	; 0x0
    eca4:	e1a06000 	mov	r6, r0
    eca8:	e1a00004 	mov	r0, r4
    ecac:	eb001162 	bl	1323c <__lesf2>
    ecb0:	e3500000 	cmp	r0, #0	; 0x0
    ecb4:	b2240102 	eorlt	r0, r4, #-2147483648	; 0x80000000
    ecb8:	b1a01005 	movlt	r1, r5
    ecbc:	a1a01005 	movge	r1, r5
    ecc0:	a1a00004 	movge	r0, r4
    ecc4:	eb00108e 	bl	12f04 <__mulsf3>
    ecc8:	e1a01000 	mov	r1, r0
    eccc:	e1a00006 	mov	r0, r6
    ecd0:	eb001005 	bl	12cec <__subsf3>
    ecd4:	e59f3098 	ldr	r3, [pc, #152]	; ed74 <.text+0x6d74>
    ecd8:	e2200102 	eor	r0, r0, #-2147483648	; 0x80000000
    ecdc:	e1a01000 	mov	r1, r0
    ece0:	e5930000 	ldr	r0, [r3]
    ece4:	eb001086 	bl	12f04 <__mulsf3>
    ece8:	e3a014c6 	mov	r1, #-973078528	; 0xc6000000
    ecec:	e2811816 	add	r1, r1, #1441792	; 0x160000
    ecf0:	e1a04000 	mov	r4, r0
    ecf4:	eb001150 	bl	1323c <__lesf2>
    ecf8:	e3500000 	cmp	r0, #0	; 0x0
    ecfc:	b3a034b5 	movlt	r3, #-1258291200	; 0xb5000000
    ed00:	b1a038c3 	movlt	r3, r3, asr #17
    ed04:	b1a00003 	movlt	r0, r3
    ed08:	ba000006 	blt	ed28 <roll_pitch_pid_run+0x138>
    ed0c:	e3a01446 	mov	r1, #1174405120	; 0x46000000
    ed10:	e1a00004 	mov	r0, r4
    ed14:	e2811816 	add	r1, r1, #1441792	; 0x160000
    ed18:	eb001145 	bl	13234 <__gesf2>
    ed1c:	e3500000 	cmp	r0, #0	; 0x0
    ed20:	c3a00d96 	movgt	r0, #9600	; 0x2580
    ed24:	da000006 	ble	ed44 <roll_pitch_pid_run+0x154>
    ed28:	e59f3048 	ldr	r3, [pc, #72]	; ed78 <.text+0x6d78>
    ed2c:	e1c300b0 	strh	r0, [r3]
    ed30:	e89da8f0 	ldmia	sp, {r4, r5, r6, r7, fp, sp, pc}
    ed34:	e1a00004 	mov	r0, r4
    ed38:	eb001164 	bl	132d0 <__fixsfsi>
    ed3c:	e1a02000 	mov	r2, r0
    ed40:	eaffffc6 	b	ec60 <roll_pitch_pid_run+0x70>
    ed44:	e1a00004 	mov	r0, r4
    ed48:	eb001160 	bl	132d0 <__fixsfsi>
    ed4c:	e59f3024 	ldr	r3, [pc, #36]	; ed78 <.text+0x6d78>
    ed50:	e1c300b0 	strh	r0, [r3]
    ed54:	e89da8f0 	ldmia	sp, {r4, r5, r6, r7, fp, sp, pc}
    ed58:	0001378c 	andeq	r3, r1, ip, lsl #15
    ed5c:	00013bcc 	andeq	r3, r1, ip, asr #23
    ed60:	00013534 	andeq	r3, r1, r4, lsr r5
    ed64:	00013784 	andeq	r3, r1, r4, lsl #15
    ed68:	00013b72 	andeq	r3, r1, r2, ror fp
    ed6c:	00013788 	andeq	r3, r1, r8, lsl #15
    ed70:	00013bc0 	andeq	r3, r1, r0, asr #23
    ed74:	00013530 	andeq	r3, r1, r0, lsr r5
    ed78:	00013b74 	andeq	r3, r1, r4, ror fp

0000ed7c <course_pid_run>:
    ed7c:	e1a0c00d 	mov	ip, sp
    ed80:	e92dd870 	stmdb	sp!, {r4, r5, r6, fp, ip, lr, pc}
    ed84:	e59f3104 	ldr	r3, [pc, #260]	; ee90 <.text+0x6e90>
    ed88:	e59f2104 	ldr	r2, [pc, #260]	; ee94 <.text+0x6e94>
    ed8c:	e24cb004 	sub	fp, ip, #4	; 0x4
    ed90:	e5930000 	ldr	r0, [r3]
    ed94:	e5921000 	ldr	r1, [r2]
    ed98:	eb000fd3 	bl	12cec <__subsf3>
    ed9c:	ea000001 	b	eda8 <course_pid_run+0x2c>
    eda0:	eb000d37 	bl	12284 <__subdf3>
    eda4:	eb000f92 	bl	12bf4 <__truncdfsf2>
    eda8:	e1a06000 	mov	r6, r0
    edac:	eb000e03 	bl	125c0 <__extendsfdf2>
    edb0:	e28f20c0 	add	r2, pc, #192	; 0xc0
    edb4:	e892000c 	ldmia	r2, {r2, r3}
    edb8:	e1a05001 	mov	r5, r1
    edbc:	e1a04000 	mov	r4, r0
    edc0:	eb000f42 	bl	12ad0 <__gedf2>
    edc4:	e3500000 	cmp	r0, #0	; 0x0
    edc8:	e28f20b0 	add	r2, pc, #176	; 0xb0
    edcc:	e892000c 	ldmia	r2, {r2, r3}
    edd0:	e1a01005 	mov	r1, r5
    edd4:	e1a00004 	mov	r0, r4
    edd8:	cafffff0 	bgt	eda0 <course_pid_run+0x24>
    eddc:	ea000002 	b	edec <course_pid_run+0x70>
    ede0:	eb000d28 	bl	12288 <__adddf3>
    ede4:	eb000f82 	bl	12bf4 <__truncdfsf2>
    ede8:	e1a06000 	mov	r6, r0
    edec:	e1a00006 	mov	r0, r6
    edf0:	eb000df2 	bl	125c0 <__extendsfdf2>
    edf4:	e28f208c 	add	r2, pc, #140	; 0x8c
    edf8:	e892000c 	ldmia	r2, {r2, r3}
    edfc:	e1a05001 	mov	r5, r1
    ee00:	e1a04000 	mov	r4, r0
    ee04:	eb000f33 	bl	12ad8 <__ledf2>
    ee08:	e3500000 	cmp	r0, #0	; 0x0
    ee0c:	e28f206c 	add	r2, pc, #108	; 0x6c
    ee10:	e892000c 	ldmia	r2, {r2, r3}
    ee14:	e1a01005 	mov	r1, r5
    ee18:	e1a00004 	mov	r0, r4
    ee1c:	baffffef 	blt	ede0 <course_pid_run+0x64>
    ee20:	e59f3070 	ldr	r3, [pc, #112]	; ee98 <.text+0x6e98>
    ee24:	e1a01006 	mov	r1, r6
    ee28:	e5930000 	ldr	r0, [r3]
    ee2c:	eb001034 	bl	12f04 <__mulsf3>
    ee30:	e59f3064 	ldr	r3, [pc, #100]	; ee9c <.text+0x6e9c>
    ee34:	e5934000 	ldr	r4, [r3]
    ee38:	e1a01004 	mov	r1, r4
    ee3c:	e1a06000 	mov	r6, r0
    ee40:	eb0010fb 	bl	13234 <__gesf2>
    ee44:	e59f5054 	ldr	r5, [pc, #84]	; eea0 <.text+0x6ea0>
    ee48:	e3500000 	cmp	r0, #0	; 0x0
    ee4c:	c5854000 	strgt	r4, [r5]
    ee50:	c89da870 	ldmgtia	sp, {r4, r5, r6, fp, sp, pc}
    ee54:	e2244102 	eor	r4, r4, #-2147483648	; 0x80000000
    ee58:	e1a00004 	mov	r0, r4
    ee5c:	e1a01006 	mov	r1, r6
    ee60:	eb0010f3 	bl	13234 <__gesf2>
    ee64:	e1a03006 	mov	r3, r6
    ee68:	e3500000 	cmp	r0, #0	; 0x0
    ee6c:	c1a03004 	movgt	r3, r4
    ee70:	e5853000 	str	r3, [r5]
    ee74:	e89da870 	ldmia	sp, {r4, r5, r6, fp, sp, pc}
    ee78:	400921fb 	strmid	r2, [r9], -fp
    ee7c:	54442d18 	strplb	r2, [r4], #-3352
    ee80:	401921fb 	ldrmish	r2, [r9], -fp
    ee84:	54442d18 	strplb	r2, [r4], #-3352
    ee88:	c00921fb 	strgtd	r2, [r9], -fp
    ee8c:	54442d18 	strplb	r2, [r4], #-3352
    ee90:	00013be0 	andeq	r3, r1, r0, ror #23
    ee94:	0001377c 	andeq	r3, r1, ip, ror r7
    ee98:	00013528 	andeq	r3, r1, r8, lsr #10
    ee9c:	00013524 	andeq	r3, r1, r4, lsr #10
    eea0:	00013b8c 	andeq	r3, r1, ip, lsl #23

0000eea4 <climb_pid_run>:
    eea4:	e1a0c00d 	mov	ip, sp
    eea8:	e92ddff0 	stmdb	sp!, {r4, r5, r6, r7, r8, r9, sl, fp, ip, lr, pc}
    eeac:	e59f726c 	ldr	r7, [pc, #620]	; f120 <.text+0x7120>
    eeb0:	e59f326c 	ldr	r3, [pc, #620]	; f124 <.text+0x7124>
    eeb4:	e5974000 	ldr	r4, [r7]
    eeb8:	e5930000 	ldr	r0, [r3]
    eebc:	e24cb004 	sub	fp, ip, #4	; 0x4
    eec0:	e1a01004 	mov	r1, r4
    eec4:	eb000f88 	bl	12cec <__subsf3>
    eec8:	e59f3258 	ldr	r3, [pc, #600]	; f128 <.text+0x7128>
    eecc:	e5d32000 	ldrb	r2, [r3]
    eed0:	e3520000 	cmp	r2, #0	; 0x0
    eed4:	e1a08000 	mov	r8, r0
    eed8:	0a000031 	beq	efa4 <climb_pid_run+0x100>
    eedc:	e59fa248 	ldr	sl, [pc, #584]	; f12c <.text+0x712c>
    eee0:	e59f3248 	ldr	r3, [pc, #584]	; f130 <.text+0x7130>
    eee4:	e59f2248 	ldr	r2, [pc, #584]	; f134 <.text+0x7134>
    eee8:	e59a6000 	ldr	r6, [sl]
    eeec:	e1d220b0 	ldrh	r2, [r2]
    eef0:	e5930000 	ldr	r0, [r3]
    eef4:	e59f323c 	ldr	r3, [pc, #572]	; f138 <.text+0x7138>
    eef8:	e1a01006 	mov	r1, r6
    eefc:	e1c320b0 	strh	r2, [r3]
    ef00:	eb000fff 	bl	12f04 <__mulsf3>
    ef04:	e1a01008 	mov	r1, r8
    ef08:	eb000f78 	bl	12cf0 <__addsf3>
    ef0c:	e59f3228 	ldr	r3, [pc, #552]	; f13c <.text+0x713c>
    ef10:	e5931000 	ldr	r1, [r3]
    ef14:	eb000ffa 	bl	12f04 <__mulsf3>
    ef18:	e59f3220 	ldr	r3, [pc, #544]	; f140 <.text+0x7140>
    ef1c:	e5935000 	ldr	r5, [r3]
    ef20:	e1a01005 	mov	r1, r5
    ef24:	e1a04000 	mov	r4, r0
    ef28:	eb0010c1 	bl	13234 <__gesf2>
    ef2c:	e59f3210 	ldr	r3, [pc, #528]	; f144 <.text+0x7144>
    ef30:	e3500000 	cmp	r0, #0	; 0x0
    ef34:	c1a04005 	movgt	r4, r5
    ef38:	e59f7208 	ldr	r7, [pc, #520]	; f148 <.text+0x7148>
    ef3c:	e5935000 	ldr	r5, [r3]
    ef40:	e5874000 	str	r4, [r7]
    ef44:	e1a00004 	mov	r0, r4
    ef48:	e1a01005 	mov	r1, r5
    ef4c:	eb0010ba 	bl	1323c <__lesf2>
    ef50:	e3500000 	cmp	r0, #0	; 0x0
    ef54:	b5875000 	strlt	r5, [r7]
    ef58:	e1a00006 	mov	r0, r6
    ef5c:	e1a01008 	mov	r1, r8
    ef60:	eb000f62 	bl	12cf0 <__addsf3>
    ef64:	e3a04442 	mov	r4, #1107296256	; 0x42000000
    ef68:	e2844732 	add	r4, r4, #13107200	; 0xc80000
    ef6c:	e1a01004 	mov	r1, r4
    ef70:	e1a06000 	mov	r6, r0
    ef74:	eb0010ae 	bl	13234 <__gesf2>
    ef78:	e3500000 	cmp	r0, #0	; 0x0
    ef7c:	c1a06004 	movgt	r6, r4
    ef80:	e3a044c2 	mov	r4, #-1040187392	; 0xc2000000
    ef84:	e2844732 	add	r4, r4, #13107200	; 0xc80000
    ef88:	e58a6000 	str	r6, [sl]
    ef8c:	e1a00006 	mov	r0, r6
    ef90:	e1a01004 	mov	r1, r4
    ef94:	eb0010a8 	bl	1323c <__lesf2>
    ef98:	e3500000 	cmp	r0, #0	; 0x0
    ef9c:	b58a4000 	strlt	r4, [sl]
    efa0:	e89daff0 	ldmia	sp, {r4, r5, r6, r7, r8, r9, sl, fp, sp, pc}
    efa4:	e1a00004 	mov	r0, r4
    efa8:	e3a01000 	mov	r1, #0	; 0x0
    efac:	eb0010a0 	bl	13234 <__gesf2>
    efb0:	e59f9194 	ldr	r9, [pc, #404]	; f14c <.text+0x714c>
    efb4:	e3500000 	cmp	r0, #0	; 0x0
    efb8:	e1a05009 	mov	r5, r9
    efbc:	d3a03000 	movle	r3, #0	; 0x0
    efc0:	da000004 	ble	efd8 <climb_pid_run+0x134>
    efc4:	e59f3184 	ldr	r3, [pc, #388]	; f150 <.text+0x7150>
    efc8:	e1a00004 	mov	r0, r4
    efcc:	e5931000 	ldr	r1, [r3]
    efd0:	eb000fcb 	bl	12f04 <__mulsf3>
    efd4:	e1a03000 	mov	r3, r0
    efd8:	e59fa174 	ldr	sl, [pc, #372]	; f154 <.text+0x7154>
    efdc:	e59a6000 	ldr	r6, [sl]
    efe0:	e5853000 	str	r3, [r5]
    efe4:	e59f116c 	ldr	r1, [pc, #364]	; f158 <.text+0x7158>
    efe8:	e1a00006 	mov	r0, r6
    efec:	eb000fc4 	bl	12f04 <__mulsf3>
    eff0:	e1a01008 	mov	r1, r8
    eff4:	eb000f3d 	bl	12cf0 <__addsf3>
    eff8:	e3e01443 	mvn	r1, #1124073472	; 0x43000000
    effc:	e2411aa3 	sub	r1, r1, #667648	; 0xa3000
    f000:	e2411ed7 	sub	r1, r1, #3440	; 0xd70
    f004:	eb000fbe 	bl	12f04 <__mulsf3>
    f008:	eb000d6c 	bl	125c0 <__extendsfdf2>
    f00c:	e28f20fc 	add	r2, pc, #252	; 0xfc
    f010:	e892000c 	ldmia	r2, {r2, r3}
    f014:	eb000c9b 	bl	12288 <__adddf3>
    f018:	e1a05001 	mov	r5, r1
    f01c:	e1a04000 	mov	r4, r0
    f020:	e5970000 	ldr	r0, [r7]
    f024:	eb000d65 	bl	125c0 <__extendsfdf2>
    f028:	e28f20e8 	add	r2, pc, #232	; 0xe8
    f02c:	e892000c 	ldmia	r2, {r2, r3}
    f030:	eb000d75 	bl	1260c <__muldf3>
    f034:	e1a03001 	mov	r3, r1
    f038:	e1a02000 	mov	r2, r0
    f03c:	e1a01005 	mov	r1, r5
    f040:	e1a00004 	mov	r0, r4
    f044:	eb000c8f 	bl	12288 <__adddf3>
    f048:	eb000ee9 	bl	12bf4 <__truncdfsf2>
    f04c:	e1a01008 	mov	r1, r8
    f050:	e1a07000 	mov	r7, r0
    f054:	e1a00006 	mov	r0, r6
    f058:	eb000f24 	bl	12cf0 <__addsf3>
    f05c:	e3a05442 	mov	r5, #1107296256	; 0x42000000
    f060:	e2855732 	add	r5, r5, #13107200	; 0xc80000
    f064:	e1a01005 	mov	r1, r5
    f068:	e1a04000 	mov	r4, r0
    f06c:	eb001070 	bl	13234 <__gesf2>
    f070:	e3500000 	cmp	r0, #0	; 0x0
    f074:	c1a04005 	movgt	r4, r5
    f078:	e3a054c2 	mov	r5, #-1040187392	; 0xc2000000
    f07c:	e2855732 	add	r5, r5, #13107200	; 0xc80000
    f080:	e58a4000 	str	r4, [sl]
    f084:	e1a00004 	mov	r0, r4
    f088:	e1a01005 	mov	r1, r5
    f08c:	eb00106a 	bl	1323c <__lesf2>
    f090:	e3a01446 	mov	r1, #1174405120	; 0x46000000
    f094:	e3500000 	cmp	r0, #0	; 0x0
    f098:	b58a5000 	strlt	r5, [sl]
    f09c:	e2811816 	add	r1, r1, #1441792	; 0x160000
    f0a0:	e1a00007 	mov	r0, r7
    f0a4:	eb000f96 	bl	12f04 <__mulsf3>
    f0a8:	e3a01000 	mov	r1, #0	; 0x0
    f0ac:	e1a04000 	mov	r4, r0
    f0b0:	eb001061 	bl	1323c <__lesf2>
    f0b4:	e3500000 	cmp	r0, #0	; 0x0
    f0b8:	b3a0c000 	movlt	ip, #0	; 0x0
    f0bc:	ba000006 	blt	f0dc <climb_pid_run+0x238>
    f0c0:	e3a01446 	mov	r1, #1174405120	; 0x46000000
    f0c4:	e1a00004 	mov	r0, r4
    f0c8:	e2811816 	add	r1, r1, #1441792	; 0x160000
    f0cc:	eb001058 	bl	13234 <__gesf2>
    f0d0:	e3500000 	cmp	r0, #0	; 0x0
    f0d4:	c3a0cd96 	movgt	ip, #9600	; 0x2580
    f0d8:	da000008 	ble	f100 <climb_pid_run+0x25c>
    f0dc:	e59f3078 	ldr	r3, [pc, #120]	; f15c <.text+0x715c>
    f0e0:	e59f2050 	ldr	r2, [pc, #80]	; f138 <.text+0x7138>
    f0e4:	e5930000 	ldr	r0, [r3]
    f0e8:	e5991000 	ldr	r1, [r9]
    f0ec:	e1c2c0b0 	strh	ip, [r2]
    f0f0:	eb000efe 	bl	12cf0 <__addsf3>
    f0f4:	e59f304c 	ldr	r3, [pc, #76]	; f148 <.text+0x7148>
    f0f8:	e5830000 	str	r0, [r3]
    f0fc:	e89daff0 	ldmia	sp, {r4, r5, r6, r7, r8, r9, sl, fp, sp, pc}
    f100:	e1a00004 	mov	r0, r4
    f104:	eb001071 	bl	132d0 <__fixsfsi>
    f108:	e1a0c000 	mov	ip, r0
    f10c:	eafffff2 	b	f0dc <climb_pid_run+0x238>
    f110:	3fd3d70a 	swicc	0x00d3d70a
    f114:	3d70a3d7 	ldcccl	3, cr10, [r0, #-860]!
    f118:	3fc99999 	swicc	0x00c99999
    f11c:	9999999a 	ldmlsib	r9, {r1, r3, r4, r7, r8, fp, ip, pc}
    f120:	00013778 	andeq	r3, r1, r8, ror r7
    f124:	00013ba4 	andeq	r3, r1, r4, lsr #23
    f128:	000135a1 	andeq	r3, r1, r1, lsr #11
    f12c:	0001376c 	andeq	r3, r1, ip, ror #14
    f130:	0001351c 	andeq	r3, r1, ip, lsl r5
    f134:	00013b88 	andeq	r3, r1, r8, lsl #23
    f138:	00013b70 	andeq	r3, r1, r0, ror fp
    f13c:	00013520 	andeq	r3, r1, r0, lsr #10
    f140:	00013518 	andeq	r3, r1, r8, lsl r5
    f144:	00013514 	andeq	r3, r1, r4, lsl r5
    f148:	00013788 	andeq	r3, r1, r8, lsl #15
    f14c:	00013780 	andeq	r3, r1, r0, lsl #15
    f150:	0001352c 	andeq	r3, r1, ip, lsr #10
    f154:	00013770 	andeq	r3, r1, r0, ror r7
    f158:	3dcccccd 	stcccl	12, cr12, [ip, #820]
    f15c:	00013790 	muleq	r1, r0, r7

0000f160 <altitude_pid_run>:
    f160:	e1a0c00d 	mov	ip, sp
    f164:	e92dd830 	stmdb	sp!, {r4, r5, fp, ip, lr, pc}
    f168:	e59f206c 	ldr	r2, [pc, #108]	; f1dc <.text+0x71dc>
    f16c:	e59f306c 	ldr	r3, [pc, #108]	; f1e0 <.text+0x71e0>
    f170:	e5921000 	ldr	r1, [r2]
    f174:	e24cb004 	sub	fp, ip, #4	; 0x4
    f178:	e5930000 	ldr	r0, [r3]
    f17c:	eb000eda 	bl	12cec <__subsf3>
    f180:	e59f305c 	ldr	r3, [pc, #92]	; f1e4 <.text+0x71e4>
    f184:	e1a01000 	mov	r1, r0
    f188:	e5930000 	ldr	r0, [r3]
    f18c:	eb000f5c 	bl	12f04 <__mulsf3>
    f190:	e59f3050 	ldr	r3, [pc, #80]	; f1e8 <.text+0x71e8>
    f194:	e5931000 	ldr	r1, [r3]
    f198:	eb000ed4 	bl	12cf0 <__addsf3>
    f19c:	e3a014bf 	mov	r1, #-1090519040	; 0xbf000000
    f1a0:	e2811502 	add	r1, r1, #8388608	; 0x800000
    f1a4:	e1a04000 	mov	r4, r0
    f1a8:	eb001023 	bl	1323c <__lesf2>
    f1ac:	e3500000 	cmp	r0, #0	; 0x0
    f1b0:	b3a044bf 	movlt	r4, #-1090519040	; 0xbf000000
    f1b4:	b2844502 	addlt	r4, r4, #8388608	; 0x800000
    f1b8:	e59f502c 	ldr	r5, [pc, #44]	; f1ec <.text+0x71ec>
    f1bc:	e1a00004 	mov	r0, r4
    f1c0:	e3a015fe 	mov	r1, #1065353216	; 0x3f800000
    f1c4:	e5854000 	str	r4, [r5]
    f1c8:	eb001019 	bl	13234 <__gesf2>
    f1cc:	e3500000 	cmp	r0, #0	; 0x0
    f1d0:	c3a035fe 	movgt	r3, #1065353216	; 0x3f800000
    f1d4:	c5853000 	strgt	r3, [r5]
    f1d8:	e89da830 	ldmia	sp, {r4, r5, fp, sp, pc}
    f1dc:	00013598 	muleq	r1, r8, r5
    f1e0:	00013bb4 	streqh	r3, [r1], -r4
    f1e4:	00013510 	andeq	r3, r1, r0, lsl r5
    f1e8:	00013774 	andeq	r3, r1, r4, ror r7
    f1ec:	00013778 	andeq	r3, r1, r8, ror r7

0000f1f0 <approaching>:
    f1f0:	e1a0c00d 	mov	ip, sp
    f1f4:	e92dddf0 	stmdb	sp!, {r4, r5, r6, r7, r8, sl, fp, ip, lr, pc}
    f1f8:	e20040ff 	and	r4, r0, #255	; 0xff
    f1fc:	e59f2128 	ldr	r2, [pc, #296]	; f32c <.text+0x732c>
    f200:	e0844084 	add	r4, r4, r4, lsl #1
    f204:	e1a04104 	mov	r4, r4, lsl #2
    f208:	e7946002 	ldr	r6, [r4, r2]
    f20c:	e59f311c 	ldr	r3, [pc, #284]	; f330 <.text+0x7330>
    f210:	e24cb004 	sub	fp, ip, #4	; 0x4
    f214:	e5931000 	ldr	r1, [r3]
    f218:	e1a00006 	mov	r0, r6
    f21c:	e0844002 	add	r4, r4, r2
    f220:	eb000eb1 	bl	12cec <__subsf3>
    f224:	e59f3108 	ldr	r3, [pc, #264]	; f334 <.text+0x7334>
    f228:	e594a004 	ldr	sl, [r4, #4]
    f22c:	e5931000 	ldr	r1, [r3]
    f230:	e1a07000 	mov	r7, r0
    f234:	e1a0000a 	mov	r0, sl
    f238:	eb000eab 	bl	12cec <__subsf3>
    f23c:	e1a01007 	mov	r1, r7
    f240:	e1a08000 	mov	r8, r0
    f244:	e1a00007 	mov	r0, r7
    f248:	eb000f2d 	bl	12f04 <__mulsf3>
    f24c:	e1a01008 	mov	r1, r8
    f250:	e1a04000 	mov	r4, r0
    f254:	e1a00008 	mov	r0, r8
    f258:	eb000f29 	bl	12f04 <__mulsf3>
    f25c:	e1a01000 	mov	r1, r0
    f260:	e1a00004 	mov	r0, r4
    f264:	eb000ea1 	bl	12cf0 <__addsf3>
    f268:	e59f30c8 	ldr	r3, [pc, #200]	; f338 <.text+0x7338>
    f26c:	e1a05000 	mov	r5, r0
    f270:	e5930000 	ldr	r0, [r3]
    f274:	e59f30c0 	ldr	r3, [pc, #192]	; f33c <.text+0x733c>
    f278:	e3a01101 	mov	r1, #1073741824	; 0x40000000
    f27c:	e5835000 	str	r5, [r3]
    f280:	e281160a 	add	r1, r1, #10485760	; 0xa00000
    f284:	eb000f1e 	bl	12f04 <__mulsf3>
    f288:	e3a01442 	mov	r1, #1107296256	; 0x42000000
    f28c:	e2811602 	add	r1, r1, #2097152	; 0x200000
    f290:	e1a04000 	mov	r4, r0
    f294:	eb000fe8 	bl	1323c <__lesf2>
    f298:	e3a03442 	mov	r3, #1107296256	; 0x42000000
    f29c:	e3500000 	cmp	r0, #0	; 0x0
    f2a0:	e2833602 	add	r3, r3, #2097152	; 0x200000
    f2a4:	b1a04003 	movlt	r4, r3
    f2a8:	e59f3090 	ldr	r3, [pc, #144]	; f340 <.text+0x7340>
    f2ac:	e1a01004 	mov	r1, r4
    f2b0:	e5834000 	str	r4, [r3]
    f2b4:	e1a00004 	mov	r0, r4
    f2b8:	eb000f11 	bl	12f04 <__mulsf3>
    f2bc:	e1a01005 	mov	r1, r5
    f2c0:	eb000fdb 	bl	13234 <__gesf2>
    f2c4:	e3500000 	cmp	r0, #0	; 0x0
    f2c8:	e3a03001 	mov	r3, #1	; 0x1
    f2cc:	e1a00006 	mov	r0, r6
    f2d0:	da000001 	ble	f2dc <approaching+0xec>
    f2d4:	e1a00003 	mov	r0, r3
    f2d8:	e89dadf0 	ldmia	sp, {r4, r5, r6, r7, r8, sl, fp, sp, pc}
    f2dc:	e59f3060 	ldr	r3, [pc, #96]	; f344 <.text+0x7344>
    f2e0:	e5931000 	ldr	r1, [r3]
    f2e4:	eb000e80 	bl	12cec <__subsf3>
    f2e8:	e1a01007 	mov	r1, r7
    f2ec:	eb000f04 	bl	12f04 <__mulsf3>
    f2f0:	e59f3050 	ldr	r3, [pc, #80]	; f348 <.text+0x7348>
    f2f4:	e1a04000 	mov	r4, r0
    f2f8:	e5931000 	ldr	r1, [r3]
    f2fc:	e1a0000a 	mov	r0, sl
    f300:	eb000e79 	bl	12cec <__subsf3>
    f304:	e1a01008 	mov	r1, r8
    f308:	eb000efd 	bl	12f04 <__mulsf3>
    f30c:	e1a01000 	mov	r1, r0
    f310:	e1a00004 	mov	r0, r4
    f314:	eb000e75 	bl	12cf0 <__addsf3>
    f318:	e3a01000 	mov	r1, #0	; 0x0
    f31c:	eb000fc6 	bl	1323c <__lesf2>
    f320:	e1a03fa0 	mov	r3, r0, lsr #31
    f324:	e1a00003 	mov	r0, r3
    f328:	e89dadf0 	ldmia	sp, {r4, r5, r6, r7, r8, sl, fp, sp, pc}
    f32c:	00013538 	andeq	r3, r1, r8, lsr r5
    f330:	00013bd8 	ldreqd	r3, [r1], -r8
    f334:	00013bec 	andeq	r3, r1, ip, ror #23
    f338:	00013bc8 	andeq	r3, r1, r8, asr #23
    f33c:	00013b78 	andeq	r3, r1, r8, ror fp
    f340:	000137ac 	andeq	r3, r1, ip, lsr #15
    f344:	0001379c 	muleq	r1, ip, r7
    f348:	000137a0 	andeq	r3, r1, r0, lsr #15

0000f34c <fly_to>:
    f34c:	e1a0c00d 	mov	ip, sp
    f350:	e92dd870 	stmdb	sp!, {r4, r5, r6, fp, ip, lr, pc}
    f354:	e20000ff 	and	r0, r0, #255	; 0xff
    f358:	e59f2094 	ldr	r2, [pc, #148]	; f3f4 <.text+0x73f4>
    f35c:	e0800080 	add	r0, r0, r0, lsl #1
    f360:	e1a00100 	mov	r0, r0, lsl #2
    f364:	e0803002 	add	r3, r0, r2
    f368:	e24cb004 	sub	fp, ip, #4	; 0x4
    f36c:	e593c004 	ldr	ip, [r3, #4]
    f370:	e59f3080 	ldr	r3, [pc, #128]	; f3f8 <.text+0x73f8>
    f374:	e7906002 	ldr	r6, [r0, r2]
    f378:	e5931000 	ldr	r1, [r3]
    f37c:	e59f2078 	ldr	r2, [pc, #120]	; f3fc <.text+0x73fc>
    f380:	e59f3078 	ldr	r3, [pc, #120]	; f400 <.text+0x7400>
    f384:	e582c000 	str	ip, [r2]
    f388:	e1a0000c 	mov	r0, ip
    f38c:	e5836000 	str	r6, [r3]
    f390:	eb000e55 	bl	12cec <__subsf3>
    f394:	eb000c89 	bl	125c0 <__extendsfdf2>
    f398:	e59f3064 	ldr	r3, [pc, #100]	; f404 <.text+0x7404>
    f39c:	e1a05001 	mov	r5, r1
    f3a0:	e1a04000 	mov	r4, r0
    f3a4:	e5931000 	ldr	r1, [r3]
    f3a8:	e1a00006 	mov	r0, r6
    f3ac:	eb000e4e 	bl	12cec <__subsf3>
    f3b0:	eb000c82 	bl	125c0 <__extendsfdf2>
    f3b4:	e1a03001 	mov	r3, r1
    f3b8:	e1a02000 	mov	r2, r0
    f3bc:	e1a01005 	mov	r1, r5
    f3c0:	e1a00004 	mov	r0, r4
    f3c4:	eb000ac3 	bl	11ed8 <pp_atan2>
    f3c8:	e1a03001 	mov	r3, r1
    f3cc:	e1a02000 	mov	r2, r0
    f3d0:	e28f0014 	add	r0, pc, #20	; 0x14
    f3d4:	e8900003 	ldmia	r0, {r0, r1}
    f3d8:	eb000ba9 	bl	12284 <__subdf3>
    f3dc:	eb000e04 	bl	12bf4 <__truncdfsf2>
    f3e0:	e59f3020 	ldr	r3, [pc, #32]	; f408 <.text+0x7408>
    f3e4:	e5830000 	str	r0, [r3]
    f3e8:	e89da870 	ldmia	sp, {r4, r5, r6, fp, sp, pc}
    f3ec:	3ff921fb 	swicc	0x00f921fb
    f3f0:	54442d18 	strplb	r2, [r4], #-3352
    f3f4:	00013538 	andeq	r3, r1, r8, lsr r5
    f3f8:	00013bec 	andeq	r3, r1, ip, ror #23
    f3fc:	00013b84 	andeq	r3, r1, r4, lsl #23
    f400:	00013b7c 	andeq	r3, r1, ip, ror fp
    f404:	00013bd8 	ldreqd	r3, [r1], -r8
    f408:	0001377c 	andeq	r3, r1, ip, ror r7

0000f40c <route_to>:
    f40c:	e1a0c00d 	mov	ip, sp
    f410:	e92ddff0 	stmdb	sp!, {r4, r5, r6, r7, r8, r9, sl, fp, ip, lr, pc}
    f414:	e20030ff 	and	r3, r0, #255	; 0xff
    f418:	e24cb004 	sub	fp, ip, #4	; 0x4
    f41c:	e59f2244 	ldr	r2, [pc, #580]	; f668 <.text+0x7668>
    f420:	e24dd008 	sub	sp, sp, #8	; 0x8
    f424:	e0833083 	add	r3, r3, r3, lsl #1
    f428:	e1a03103 	mov	r3, r3, lsl #2
    f42c:	e20140ff 	and	r4, r1, #255	; 0xff
    f430:	e0844084 	add	r4, r4, r4, lsl #1
    f434:	e7931002 	ldr	r1, [r3, r2]
    f438:	e0833002 	add	r3, r3, r2
    f43c:	e5933004 	ldr	r3, [r3, #4]
    f440:	e1a04104 	mov	r4, r4, lsl #2
    f444:	e7940002 	ldr	r0, [r4, r2]
    f448:	e50b3030 	str	r3, [fp, #-48]
    f44c:	e0844002 	add	r4, r4, r2
    f450:	e50b102c 	str	r1, [fp, #-44]
    f454:	eb000e24 	bl	12cec <__subsf3>
    f458:	e51b1030 	ldr	r1, [fp, #-48]
    f45c:	e1a0a000 	mov	sl, r0
    f460:	e5940004 	ldr	r0, [r4, #4]
    f464:	eb000e20 	bl	12cec <__subsf3>
    f468:	e1a0100a 	mov	r1, sl
    f46c:	e1a09000 	mov	r9, r0
    f470:	e1a0000a 	mov	r0, sl
    f474:	eb000ea2 	bl	12f04 <__mulsf3>
    f478:	e1a01009 	mov	r1, r9
    f47c:	e1a04000 	mov	r4, r0
    f480:	e1a00009 	mov	r0, r9
    f484:	eb000e9e 	bl	12f04 <__mulsf3>
    f488:	e1a01000 	mov	r1, r0
    f48c:	e1a00004 	mov	r0, r4
    f490:	eb000e16 	bl	12cf0 <__addsf3>
    f494:	e59f31d0 	ldr	r3, [pc, #464]	; f66c <.text+0x766c>
    f498:	e1a06000 	mov	r6, r0
    f49c:	e51b102c 	ldr	r1, [fp, #-44]
    f4a0:	e5930000 	ldr	r0, [r3]
    f4a4:	eb000e10 	bl	12cec <__subsf3>
    f4a8:	e1a0100a 	mov	r1, sl
    f4ac:	eb000e94 	bl	12f04 <__mulsf3>
    f4b0:	e59f31b8 	ldr	r3, [pc, #440]	; f670 <.text+0x7670>
    f4b4:	e1a04000 	mov	r4, r0
    f4b8:	e51b1030 	ldr	r1, [fp, #-48]
    f4bc:	e5930000 	ldr	r0, [r3]
    f4c0:	eb000e09 	bl	12cec <__subsf3>
    f4c4:	e1a01009 	mov	r1, r9
    f4c8:	eb000e8d 	bl	12f04 <__mulsf3>
    f4cc:	e1a01000 	mov	r1, r0
    f4d0:	e1a00004 	mov	r0, r4
    f4d4:	eb000e05 	bl	12cf0 <__addsf3>
    f4d8:	e1a01006 	mov	r1, r6
    f4dc:	eb000eec 	bl	13094 <__divsf3>
    f4e0:	e3a01000 	mov	r1, #0	; 0x0
    f4e4:	e1a04000 	mov	r4, r0
    f4e8:	eb000f51 	bl	13234 <__gesf2>
    f4ec:	e3a05000 	mov	r5, #0	; 0x0
    f4f0:	e3500000 	cmp	r0, #0	; 0x0
    f4f4:	e59f8178 	ldr	r8, [pc, #376]	; f674 <.text+0x7674>
    f4f8:	b1a04005 	movlt	r4, r5
    f4fc:	e1a00006 	mov	r0, r6
    f500:	e5884000 	str	r4, [r8]
    f504:	eb000c2d 	bl	125c0 <__extendsfdf2>
    f508:	eb000b5c 	bl	12280 <pp_sqrt>
    f50c:	eb000db8 	bl	12bf4 <__truncdfsf2>
    f510:	e59f3160 	ldr	r3, [pc, #352]	; f678 <.text+0x7678>
    f514:	e1a04000 	mov	r4, r0
    f518:	e5834000 	str	r4, [r3]
    f51c:	e5980000 	ldr	r0, [r8]
    f520:	eb000c26 	bl	125c0 <__extendsfdf2>
    f524:	e59f3150 	ldr	r3, [pc, #336]	; f67c <.text+0x767c>
    f528:	e1a07001 	mov	r7, r1
    f52c:	e1a06000 	mov	r6, r0
    f530:	e1a01004 	mov	r1, r4
    f534:	e5930000 	ldr	r0, [r3]
    f538:	eb000ed5 	bl	13094 <__divsf3>
    f53c:	e1a01005 	mov	r1, r5
    f540:	e1a04000 	mov	r4, r0
    f544:	eb000f3a 	bl	13234 <__gesf2>
    f548:	e3500000 	cmp	r0, #0	; 0x0
    f54c:	e1a05008 	mov	r5, r8
    f550:	ba00003b 	blt	f644 <route_to+0x238>
    f554:	e1a00004 	mov	r0, r4
    f558:	eb000c18 	bl	125c0 <__extendsfdf2>
    f55c:	e1a03001 	mov	r3, r1
    f560:	e1a02000 	mov	r2, r0
    f564:	e1a01007 	mov	r1, r7
    f568:	e1a00006 	mov	r0, r6
    f56c:	eb000b45 	bl	12288 <__adddf3>
    f570:	eb000d9f 	bl	12bf4 <__truncdfsf2>
    f574:	e5850000 	str	r0, [r5]
    f578:	e5984000 	ldr	r4, [r8]
    f57c:	e3a015fe 	mov	r1, #1065353216	; 0x3f800000
    f580:	e1a00004 	mov	r0, r4
    f584:	eb000f2a 	bl	13234 <__gesf2>
    f588:	e3a035fe 	mov	r3, #1065353216	; 0x3f800000
    f58c:	e3500000 	cmp	r0, #0	; 0x0
    f590:	a1a04003 	movge	r4, r3
    f594:	e59f30d8 	ldr	r3, [pc, #216]	; f674 <.text+0x7674>
    f598:	e1a0100a 	mov	r1, sl
    f59c:	e5834000 	str	r4, [r3]
    f5a0:	e1a00004 	mov	r0, r4
    f5a4:	eb000e56 	bl	12f04 <__mulsf3>
    f5a8:	e51b102c 	ldr	r1, [fp, #-44]
    f5ac:	eb000dcf 	bl	12cf0 <__addsf3>
    f5b0:	e1a01009 	mov	r1, r9
    f5b4:	e1a06000 	mov	r6, r0
    f5b8:	e1a00004 	mov	r0, r4
    f5bc:	eb000e50 	bl	12f04 <__mulsf3>
    f5c0:	e51b1030 	ldr	r1, [fp, #-48]
    f5c4:	eb000dc9 	bl	12cf0 <__addsf3>
    f5c8:	e59f30a0 	ldr	r3, [pc, #160]	; f670 <.text+0x7670>
    f5cc:	e59f20ac 	ldr	r2, [pc, #172]	; f680 <.text+0x7680>
    f5d0:	e5931000 	ldr	r1, [r3]
    f5d4:	e59f30a8 	ldr	r3, [pc, #168]	; f684 <.text+0x7684>
    f5d8:	e1a0c000 	mov	ip, r0
    f5dc:	e582c000 	str	ip, [r2]
    f5e0:	e5836000 	str	r6, [r3]
    f5e4:	eb000dc0 	bl	12cec <__subsf3>
    f5e8:	eb000bf4 	bl	125c0 <__extendsfdf2>
    f5ec:	e59f3078 	ldr	r3, [pc, #120]	; f66c <.text+0x766c>
    f5f0:	e1a05001 	mov	r5, r1
    f5f4:	e1a04000 	mov	r4, r0
    f5f8:	e5931000 	ldr	r1, [r3]
    f5fc:	e1a00006 	mov	r0, r6
    f600:	eb000db9 	bl	12cec <__subsf3>
    f604:	eb000bed 	bl	125c0 <__extendsfdf2>
    f608:	e1a03001 	mov	r3, r1
    f60c:	e1a02000 	mov	r2, r0
    f610:	e1a01005 	mov	r1, r5
    f614:	e1a00004 	mov	r0, r4
    f618:	eb000a2e 	bl	11ed8 <pp_atan2>
    f61c:	e1a03001 	mov	r3, r1
    f620:	e1a02000 	mov	r2, r0
    f624:	e28f002c 	add	r0, pc, #44	; 0x2c
    f628:	e8900003 	ldmia	r0, {r0, r1}
    f62c:	eb000b14 	bl	12284 <__subdf3>
    f630:	eb000d6f 	bl	12bf4 <__truncdfsf2>
    f634:	e59f304c 	ldr	r3, [pc, #76]	; f688 <.text+0x7688>
    f638:	e5830000 	str	r0, [r3]
    f63c:	e24bd028 	sub	sp, fp, #40	; 0x28
    f640:	e89daff0 	ldmia	sp, {r4, r5, r6, r7, r8, r9, sl, fp, sp, pc}
    f644:	e28f2014 	add	r2, pc, #20	; 0x14
    f648:	e892000c 	ldmia	r2, {r2, r3}
    f64c:	e1a01007 	mov	r1, r7
    f650:	e1a00006 	mov	r0, r6
    f654:	eaffffc4 	b	f56c <route_to+0x160>
    f658:	3ff921fb 	swicc	0x00f921fb
    f65c:	54442d18 	strplb	r2, [r4], #-3352
	...
    f668:	00013538 	andeq	r3, r1, r8, lsr r5
    f66c:	00013bd8 	ldreqd	r3, [r1], -r8
    f670:	00013bec 	andeq	r3, r1, ip, ror #23
    f674:	000137b0 	streqh	r3, [r1], -r0
    f678:	000137b4 	streqh	r3, [r1], -r4
    f67c:	000137ac 	andeq	r3, r1, ip, lsr #15
    f680:	00013b84 	andeq	r3, r1, r4, lsl #23
    f684:	00013b7c 	andeq	r3, r1, ip, ror fp
    f688:	0001377c 	andeq	r3, r1, ip, ror r7

0000f68c <nav_home>:
    f68c:	e1a0c00d 	mov	ip, sp
    f690:	e92ddff0 	stmdb	sp!, {r4, r5, r6, r7, r8, r9, sl, fp, ip, lr, pc}
    f694:	e59f3320 	ldr	r3, [pc, #800]	; f9bc <.text+0x79bc>
    f698:	e59fa320 	ldr	sl, [pc, #800]	; f9c0 <.text+0x79c0>
    f69c:	e24cb004 	sub	fp, ip, #4	; 0x4
    f6a0:	e5930000 	ldr	r0, [r3]
    f6a4:	e59a1004 	ldr	r1, [sl, #4]
    f6a8:	eb000d8f 	bl	12cec <__subsf3>
    f6ac:	eb000bc3 	bl	125c0 <__extendsfdf2>
    f6b0:	e59f930c 	ldr	r9, [pc, #780]	; f9c4 <.text+0x79c4>
    f6b4:	e1a05001 	mov	r5, r1
    f6b8:	e1a04000 	mov	r4, r0
    f6bc:	e59a1000 	ldr	r1, [sl]
    f6c0:	e5990000 	ldr	r0, [r9]
    f6c4:	eb000d88 	bl	12cec <__subsf3>
    f6c8:	eb000bbc 	bl	125c0 <__extendsfdf2>
    f6cc:	e1a03001 	mov	r3, r1
    f6d0:	e1a02000 	mov	r2, r0
    f6d4:	e1a01005 	mov	r1, r5
    f6d8:	e1a00004 	mov	r0, r4
    f6dc:	eb0009fd 	bl	11ed8 <pp_atan2>
    f6e0:	eb000d43 	bl	12bf4 <__truncdfsf2>
    f6e4:	eb000bb5 	bl	125c0 <__extendsfdf2>
    f6e8:	e59f32d8 	ldr	r3, [pc, #728]	; f9c8 <.text+0x79c8>
    f6ec:	e1a05001 	mov	r5, r1
    f6f0:	e1a04000 	mov	r4, r0
    f6f4:	e3a014c2 	mov	r1, #-1040187392	; 0xc2000000
    f6f8:	e5930000 	ldr	r0, [r3]
    f6fc:	e2811712 	add	r1, r1, #4718592	; 0x480000
    f700:	eb000dff 	bl	12f04 <__mulsf3>
    f704:	eb000bad 	bl	125c0 <__extendsfdf2>
    f708:	e1a03001 	mov	r3, r1
    f70c:	e1a02000 	mov	r2, r0
    f710:	e28f0f9f 	add	r0, pc, #636	; 0x27c
    f714:	e8900003 	ldmia	r0, {r0, r1}
    f718:	eb000c51 	bl	12864 <__divdf3>
    f71c:	e1a03001 	mov	r3, r1
    f720:	e1a02000 	mov	r2, r0
    f724:	e1a01005 	mov	r1, r5
    f728:	e1a00004 	mov	r0, r4
    f72c:	eb000ad5 	bl	12288 <__adddf3>
    f730:	eb000d2f 	bl	12bf4 <__truncdfsf2>
    f734:	e1a04000 	mov	r4, r0
    f738:	e59a0000 	ldr	r0, [sl]
    f73c:	eb000b9f 	bl	125c0 <__extendsfdf2>
    f740:	e1a06001 	mov	r6, r1
    f744:	e1a05000 	mov	r5, r0
    f748:	e1a00004 	mov	r0, r4
    f74c:	eb000b9b 	bl	125c0 <__extendsfdf2>
    f750:	e28f2f91 	add	r2, pc, #580	; 0x244
    f754:	e892000c 	ldmia	r2, {r2, r3}
    f758:	e1a08001 	mov	r8, r1
    f75c:	e1a07000 	mov	r7, r0
    f760:	eb000ac8 	bl	12288 <__adddf3>
    f764:	eb000a4f 	bl	120a8 <pp_sin>
    f768:	e28f2f8d 	add	r2, pc, #564	; 0x234
    f76c:	e892000c 	ldmia	r2, {r2, r3}
    f770:	eb000ba5 	bl	1260c <__muldf3>
    f774:	e1a03001 	mov	r3, r1
    f778:	e1a02000 	mov	r2, r0
    f77c:	e1a01006 	mov	r1, r6
    f780:	e1a00005 	mov	r0, r5
    f784:	eb000abf 	bl	12288 <__adddf3>
    f788:	eb000d19 	bl	12bf4 <__truncdfsf2>
    f78c:	e1a06000 	mov	r6, r0
    f790:	e59a0004 	ldr	r0, [sl, #4]
    f794:	eb000b89 	bl	125c0 <__extendsfdf2>
    f798:	e1a05001 	mov	r5, r1
    f79c:	e1a04000 	mov	r4, r0
    f7a0:	e1a01008 	mov	r1, r8
    f7a4:	e1a00007 	mov	r0, r7
    f7a8:	eb000a3e 	bl	120a8 <pp_sin>
    f7ac:	e28f2e1f 	add	r2, pc, #496	; 0x1f0
    f7b0:	e892000c 	ldmia	r2, {r2, r3}
    f7b4:	eb000b94 	bl	1260c <__muldf3>
    f7b8:	e1a03001 	mov	r3, r1
    f7bc:	e1a02000 	mov	r2, r0
    f7c0:	e1a01005 	mov	r1, r5
    f7c4:	e1a00004 	mov	r0, r4
    f7c8:	eb000aae 	bl	12288 <__adddf3>
    f7cc:	eb000d08 	bl	12bf4 <__truncdfsf2>
    f7d0:	e59f31e4 	ldr	r3, [pc, #484]	; f9bc <.text+0x79bc>
    f7d4:	e59f21f0 	ldr	r2, [pc, #496]	; f9cc <.text+0x79cc>
    f7d8:	e5931000 	ldr	r1, [r3]
    f7dc:	e59f31ec 	ldr	r3, [pc, #492]	; f9d0 <.text+0x79d0>
    f7e0:	e1a0c000 	mov	ip, r0
    f7e4:	e582c000 	str	ip, [r2]
    f7e8:	e5836000 	str	r6, [r3]
    f7ec:	eb000d3e 	bl	12cec <__subsf3>
    f7f0:	eb000b72 	bl	125c0 <__extendsfdf2>
    f7f4:	e1a05001 	mov	r5, r1
    f7f8:	e1a04000 	mov	r4, r0
    f7fc:	e5991000 	ldr	r1, [r9]
    f800:	e1a00006 	mov	r0, r6
    f804:	eb000d38 	bl	12cec <__subsf3>
    f808:	eb000b6c 	bl	125c0 <__extendsfdf2>
    f80c:	e1a03001 	mov	r3, r1
    f810:	e1a02000 	mov	r2, r0
    f814:	e1a01005 	mov	r1, r5
    f818:	e1a00004 	mov	r0, r4
    f81c:	eb0009ad 	bl	11ed8 <pp_atan2>
    f820:	e1a03001 	mov	r3, r1
    f824:	e1a02000 	mov	r2, r0
    f828:	e28f0f5b 	add	r0, pc, #364	; 0x16c
    f82c:	e8900003 	ldmia	r0, {r0, r1}
    f830:	eb000a93 	bl	12284 <__subdf3>
    f834:	eb000cee 	bl	12bf4 <__truncdfsf2>
    f838:	e59f3194 	ldr	r3, [pc, #404]	; f9d4 <.text+0x79d4>
    f83c:	e5830000 	str	r0, [r3]
    f840:	e1a03008 	mov	r3, r8
    f844:	e1a02007 	mov	r2, r7
    f848:	e28f0f53 	add	r0, pc, #332	; 0x14c
    f84c:	e8900003 	ldmia	r0, {r0, r1}
    f850:	eb000a8b 	bl	12284 <__subdf3>
    f854:	e28f2e15 	add	r2, pc, #336	; 0x150
    f858:	e892000c 	ldmia	r2, {r2, r3}
    f85c:	eb000c00 	bl	12864 <__divdf3>
    f860:	e28f2f53 	add	r2, pc, #332	; 0x14c
    f864:	e892000c 	ldmia	r2, {r2, r3}
    f868:	eb000b67 	bl	1260c <__muldf3>
    f86c:	eb000ce0 	bl	12bf4 <__truncdfsf2>
    f870:	e59f5160 	ldr	r5, [pc, #352]	; f9d8 <.text+0x79d8>
    f874:	e5850000 	str	r0, [r5]
    f878:	e1a06005 	mov	r6, r5
    f87c:	ea000001 	b	f888 <nav_home+0x1fc>
    f880:	eb000d1a 	bl	12cf0 <__addsf3>
    f884:	e5860000 	str	r0, [r6]
    f888:	e5954000 	ldr	r4, [r5]
    f88c:	e3a01000 	mov	r1, #0	; 0x0
    f890:	e1a00004 	mov	r0, r4
    f894:	eb000e68 	bl	1323c <__lesf2>
    f898:	e3a01443 	mov	r1, #1124073472	; 0x43000000
    f89c:	e3500000 	cmp	r0, #0	; 0x0
    f8a0:	e281172d 	add	r1, r1, #11796480	; 0xb40000
    f8a4:	e1a00004 	mov	r0, r4
    f8a8:	bafffff4 	blt	f880 <nav_home+0x1f4>
    f8ac:	e59f6124 	ldr	r6, [pc, #292]	; f9d8 <.text+0x79d8>
    f8b0:	ea000001 	b	f8bc <nav_home+0x230>
    f8b4:	eb000d0c 	bl	12cec <__subsf3>
    f8b8:	e5860000 	str	r0, [r6]
    f8bc:	e5954000 	ldr	r4, [r5]
    f8c0:	e3a01443 	mov	r1, #1124073472	; 0x43000000
    f8c4:	e281172d 	add	r1, r1, #11796480	; 0xb40000
    f8c8:	e1a00004 	mov	r0, r4
    f8cc:	eb000e58 	bl	13234 <__gesf2>
    f8d0:	e3a01443 	mov	r1, #1124073472	; 0x43000000
    f8d4:	e3500000 	cmp	r0, #0	; 0x0
    f8d8:	e281172d 	add	r1, r1, #11796480	; 0xb40000
    f8dc:	e1a00004 	mov	r0, r4
    f8e0:	aafffff3 	bge	f8b4 <nav_home+0x228>
    f8e4:	e59f30f0 	ldr	r3, [pc, #240]	; f9dc <.text+0x79dc>
    f8e8:	e3a02000 	mov	r2, #0	; 0x0
    f8ec:	e59a0000 	ldr	r0, [sl]
    f8f0:	e5832000 	str	r2, [r3]
    f8f4:	e59f30e4 	ldr	r3, [pc, #228]	; f9e0 <.text+0x79e0>
    f8f8:	e3a0c003 	mov	ip, #3	; 0x3
    f8fc:	e5c3c000 	strb	ip, [r3]
    f900:	e3a02443 	mov	r2, #1124073472	; 0x43000000
    f904:	e59f30d8 	ldr	r3, [pc, #216]	; f9e4 <.text+0x79e4>
    f908:	e282282f 	add	r2, r2, #3080192	; 0x2f0000
    f90c:	e5832000 	str	r2, [r3]
    f910:	e5991000 	ldr	r1, [r9]
    f914:	eb000cf4 	bl	12cec <__subsf3>
    f918:	e59f309c 	ldr	r3, [pc, #156]	; f9bc <.text+0x79bc>
    f91c:	e1a04000 	mov	r4, r0
    f920:	e5931000 	ldr	r1, [r3]
    f924:	e59a0004 	ldr	r0, [sl, #4]
    f928:	eb000cef 	bl	12cec <__subsf3>
    f92c:	e1a01004 	mov	r1, r4
    f930:	e1a05000 	mov	r5, r0
    f934:	e1a00004 	mov	r0, r4
    f938:	eb000d71 	bl	12f04 <__mulsf3>
    f93c:	e1a01005 	mov	r1, r5
    f940:	e1a04000 	mov	r4, r0
    f944:	e1a00005 	mov	r0, r5
    f948:	eb000d6d 	bl	12f04 <__mulsf3>
    f94c:	e1a01000 	mov	r1, r0
    f950:	e1a00004 	mov	r0, r4
    f954:	eb000ce5 	bl	12cf0 <__addsf3>
    f958:	e59f3088 	ldr	r3, [pc, #136]	; f9e8 <.text+0x79e8>
    f95c:	e3a01312 	mov	r1, #1207959552	; 0x48000000
    f960:	e1a04000 	mov	r4, r0
    f964:	e281171d 	add	r1, r1, #7602176	; 0x740000
    f968:	e5834000 	str	r4, [r3]
    f96c:	e2811b09 	add	r1, r1, #9216	; 0x2400
    f970:	eb000e2f 	bl	13234 <__gesf2>
    f974:	e59f3070 	ldr	r3, [pc, #112]	; f9ec <.text+0x79ec>
    f978:	e3500000 	cmp	r0, #0	; 0x0
    f97c:	e3a02000 	mov	r2, #0	; 0x0
    f980:	c3a02001 	movgt	r2, #1	; 0x1
    f984:	e5c32000 	strb	r2, [r3]
    f988:	e59f2060 	ldr	r2, [pc, #96]	; f9f0 <.text+0x79f0>
    f98c:	e5824000 	str	r4, [r2]
    f990:	e89daff0 	ldmia	sp, {r4, r5, r6, r7, r8, r9, sl, fp, sp, pc}
    f994:	40140000 	andmis	r0, r4, r0
    f998:	00000000 	andeq	r0, r0, r0
    f99c:	3ff921fb 	swicc	0x00f921fb
    f9a0:	54442d18 	strplb	r2, [r4], #-3352
    f9a4:	40490000 	submi	r0, r9, r0
    f9a8:	00000000 	andeq	r0, r0, r0
    f9ac:	400921fb 	strmid	r2, [r9], -fp
    f9b0:	54442d18 	strplb	r2, [r4], #-3352
    f9b4:	40668000 	rsbmi	r8, r6, r0
    f9b8:	00000000 	andeq	r0, r0, r0
    f9bc:	00013bec 	andeq	r3, r1, ip, ror #23
    f9c0:	00013538 	andeq	r3, r1, r8, lsr r5
    f9c4:	00013bd8 	ldreqd	r3, [r1], -r8
    f9c8:	00013bc8 	andeq	r3, r1, r8, asr #23
    f9cc:	00013b84 	andeq	r3, r1, r4, lsl #23
    f9d0:	00013b7c 	andeq	r3, r1, ip, ror fp
    f9d4:	0001377c 	andeq	r3, r1, ip, ror r7
    f9d8:	000137a8 	andeq	r3, r1, r8, lsr #15
    f9dc:	00013790 	muleq	r1, r0, r7
    f9e0:	000135a3 	andeq	r3, r1, r3, lsr #11
    f9e4:	00013598 	muleq	r1, r8, r5
    f9e8:	00013b98 	muleq	r1, r8, fp
    f9ec:	00013b91 	muleq	r1, r1, fp
    f9f0:	00013b78 	andeq	r3, r1, r8, ror fp

0000f9f4 <nav_update>:
    f9f4:	e1a0c00d 	mov	ip, sp
    f9f8:	e92ddff0 	stmdb	sp!, {r4, r5, r6, r7, r8, r9, sl, fp, ip, lr, pc}
    f9fc:	e59f271c 	ldr	r2, [pc, #1820]	; 10120 <.text+0x8120>
    fa00:	e24cb004 	sub	fp, ip, #4	; 0x4
    fa04:	e24dd004 	sub	sp, sp, #4	; 0x4
    fa08:	e59f16fc 	ldr	r1, [pc, #1788]	; 1010c <.text+0x810c>
    fa0c:	e5929000 	ldr	r9, [r2]
    fa10:	e591a000 	ldr	sl, [r1]
    fa14:	e1a01009 	mov	r1, r9
    fa18:	e1a0000a 	mov	r0, sl
    fa1c:	eb000cb2 	bl	12cec <__subsf3>
    fa20:	e59f36e4 	ldr	r3, [pc, #1764]	; 1010c <.text+0x810c>
    fa24:	e59f16f8 	ldr	r1, [pc, #1784]	; 10124 <.text+0x8124>
    fa28:	e5936004 	ldr	r6, [r3, #4]
    fa2c:	e5918000 	ldr	r8, [r1]
    fa30:	e1a05000 	mov	r5, r0
    fa34:	e1a01008 	mov	r1, r8
    fa38:	e1a00006 	mov	r0, r6
    fa3c:	eb000caa 	bl	12cec <__subsf3>
    fa40:	e1a01005 	mov	r1, r5
    fa44:	e1a04000 	mov	r4, r0
    fa48:	e1a00005 	mov	r0, r5
    fa4c:	eb000d2c 	bl	12f04 <__mulsf3>
    fa50:	e1a01004 	mov	r1, r4
    fa54:	e1a05000 	mov	r5, r0
    fa58:	e1a00004 	mov	r0, r4
    fa5c:	eb000d28 	bl	12f04 <__mulsf3>
    fa60:	e1a01000 	mov	r1, r0
    fa64:	e1a00005 	mov	r0, r5
    fa68:	eb000ca0 	bl	12cf0 <__addsf3>
    fa6c:	e59f364c 	ldr	r3, [pc, #1612]	; 100c0 <.text+0x80c0>
    fa70:	e3a01312 	mov	r1, #1207959552	; 0x48000000
    fa74:	e1a02000 	mov	r2, r0
    fa78:	e281171d 	add	r1, r1, #7602176	; 0x740000
    fa7c:	e5832000 	str	r2, [r3]
    fa80:	e2811b09 	add	r1, r1, #9216	; 0x2400
    fa84:	eb000dea 	bl	13234 <__gesf2>
    fa88:	e59f7634 	ldr	r7, [pc, #1588]	; 100c4 <.text+0x80c4>
    fa8c:	e5d71000 	ldrb	r1, [r7]
    fa90:	e3500000 	cmp	r0, #0	; 0x0
    fa94:	e3a0c000 	mov	ip, #0	; 0x0
    fa98:	e20150ff 	and	r5, r1, #255	; 0xff
    fa9c:	e59f3624 	ldr	r3, [pc, #1572]	; 100c8 <.text+0x80c8>
    faa0:	e1a0200c 	mov	r2, ip
    faa4:	c3a02001 	movgt	r2, #1	; 0x1
    faa8:	e3550000 	cmp	r5, #0	; 0x0
    faac:	e5c32000 	strb	r2, [r3]
    fab0:	1a000018 	bne	fb18 <nav_update+0x124>
    fab4:	e59f2670 	ldr	r2, [pc, #1648]	; 1012c <.text+0x812c>
    fab8:	e5d24000 	ldrb	r4, [r2]
    fabc:	e3540000 	cmp	r4, #0	; 0x0
    fac0:	1a00002e 	bne	fb80 <nav_update+0x18c>
    fac4:	e59f3600 	ldr	r3, [pc, #1536]	; 100cc <.text+0x80cc>
    fac8:	e1d3e0b0 	ldrh	lr, [r3]
    facc:	e35e0000 	cmp	lr, #0	; 0x0
    fad0:	1a0000fe 	bne	fed0 <nav_update+0x4dc>
    fad4:	e59f2648 	ldr	r2, [pc, #1608]	; 10124 <.text+0x8124>
    fad8:	e59f3640 	ldr	r3, [pc, #1600]	; 10120 <.text+0x8120>
    fadc:	e5920000 	ldr	r0, [r2]
    fae0:	e59f2644 	ldr	r2, [pc, #1604]	; 1012c <.text+0x812c>
    fae4:	e5931000 	ldr	r1, [r3]
    fae8:	e28e3001 	add	r3, lr, #1	; 0x1
    faec:	e5c23000 	strb	r3, [r2]
    faf0:	e59f2638 	ldr	r2, [pc, #1592]	; 10130 <.text+0x8130>
    faf4:	e59f3638 	ldr	r3, [pc, #1592]	; 10134 <.text+0x8134>
    faf8:	e5821000 	str	r1, [r2]
    fafc:	e59f2634 	ldr	r2, [pc, #1588]	; 10138 <.text+0x8138>
    fb00:	e5830000 	str	r0, [r3]
    fb04:	e1c2e0b0 	strh	lr, [r2]
    fb08:	e59f362c 	ldr	r3, [pc, #1580]	; 1013c <.text+0x813c>
    fb0c:	e3a01000 	mov	r1, #0	; 0x0
    fb10:	e5831000 	str	r1, [r3]
    fb14:	e89daff8 	ldmia	sp, {r3, r4, r5, r6, r7, r8, r9, sl, fp, sp, pc}
    fb18:	e3550001 	cmp	r5, #1	; 0x1
    fb1c:	0a00002f 	beq	fbe0 <nav_update+0x1ec>
    fb20:	e3550002 	cmp	r5, #2	; 0x2
    fb24:	0a0000fe 	beq	ff24 <nav_update+0x530>
    fb28:	e3550003 	cmp	r5, #3	; 0x3
    fb2c:	0a000041 	beq	fc38 <nav_update+0x244>
    fb30:	e3550004 	cmp	r5, #4	; 0x4
    fb34:	0a000121 	beq	ffc0 <nav_update+0x5cc>
    fb38:	e3550005 	cmp	r5, #5	; 0x5
    fb3c:	189daff8 	ldmneia	sp, {r3, r4, r5, r6, r7, r8, r9, sl, fp, sp, pc}
    fb40:	e59f0588 	ldr	r0, [pc, #1416]	; 100d0 <.text+0x80d0>
    fb44:	e5d06000 	ldrb	r6, [r0]
    fb48:	e3560000 	cmp	r6, #0	; 0x0
    fb4c:	13a03001 	movne	r3, #1	; 0x1
    fb50:	1a0000f8 	bne	ff38 <nav_update+0x544>
    fb54:	e59fa5d0 	ldr	sl, [pc, #1488]	; 1012c <.text+0x812c>
    fb58:	e5da3000 	ldrb	r3, [sl]
    fb5c:	e3530000 	cmp	r3, #0	; 0x0
    fb60:	1a0001b3 	bne	10234 <.text+0x8234>
    fb64:	e5c75000 	strb	r5, [r7]
    fb68:	e59f35b4 	ldr	r3, [pc, #1460]	; 10124 <.text+0x8124>
    fb6c:	e59f25ac 	ldr	r2, [pc, #1452]	; 10120 <.text+0x8120>
    fb70:	e5930000 	ldr	r0, [r3]
    fb74:	e5921000 	ldr	r1, [r2]
    fb78:	e3a03001 	mov	r3, #1	; 0x1
    fb7c:	ea0000db 	b	fef0 <nav_update+0x4fc>
    fb80:	e3540001 	cmp	r4, #1	; 0x1
    fb84:	0affffce 	beq	fac4 <nav_update+0xd0>
    fb88:	e3540002 	cmp	r4, #2	; 0x2
    fb8c:	0a0000ce 	beq	fecc <nav_update+0x4d8>
    fb90:	e3540003 	cmp	r4, #3	; 0x3
    fb94:	0a000184 	beq	101ac <.text+0x81ac>
    fb98:	e3540004 	cmp	r4, #4	; 0x4
    fb9c:	02813001 	addeq	r3, r1, #1	; 0x1
    fba0:	189daff8 	ldmneia	sp, {r3, r4, r5, r6, r7, r8, r9, sl, fp, sp, pc}
    fba4:	e5c73000 	strb	r3, [r7]
    fba8:	e59f3584 	ldr	r3, [pc, #1412]	; 10134 <.text+0x8134>
    fbac:	e59f257c 	ldr	r2, [pc, #1404]	; 10130 <.text+0x8130>
    fbb0:	e5838000 	str	r8, [r3]
    fbb4:	e59f3580 	ldr	r3, [pc, #1408]	; 1013c <.text+0x813c>
    fbb8:	e3a01000 	mov	r1, #0	; 0x0
    fbbc:	e5829000 	str	r9, [r2]
    fbc0:	e5831000 	str	r1, [r3]
    fbc4:	e59f256c 	ldr	r2, [pc, #1388]	; 10138 <.text+0x8138>
    fbc8:	e59f355c 	ldr	r3, [pc, #1372]	; 1012c <.text+0x812c>
    fbcc:	e1c2c0b0 	strh	ip, [r2]
    fbd0:	e5c3c000 	strb	ip, [r3]
    fbd4:	e59f350c 	ldr	r3, [pc, #1292]	; 100e8 <.text+0x80e8>
    fbd8:	e1c3c0b0 	strh	ip, [r3]
    fbdc:	e89daff8 	ldmia	sp, {r3, r4, r5, r6, r7, r8, r9, sl, fp, sp, pc}
    fbe0:	e59f04e8 	ldr	r0, [pc, #1256]	; 100d0 <.text+0x80d0>
    fbe4:	e5d03000 	ldrb	r3, [r0]
    fbe8:	e3530000 	cmp	r3, #0	; 0x0
    fbec:	13a03002 	movne	r3, #2	; 0x2
    fbf0:	1a0000d0 	bne	ff38 <nav_update+0x544>
    fbf4:	e59f1530 	ldr	r1, [pc, #1328]	; 1012c <.text+0x812c>
    fbf8:	e5d14000 	ldrb	r4, [r1]
    fbfc:	e3540000 	cmp	r4, #0	; 0x0
    fc00:	0a00015a 	beq	10170 <.text+0x8170>
    fc04:	e3540001 	cmp	r4, #1	; 0x1
    fc08:	0a000269 	beq	105b4 <.text+0x85b4>
    fc0c:	e3540002 	cmp	r4, #2	; 0x2
    fc10:	0a00031c 	beq	10888 <.text+0x8888>
    fc14:	e3540003 	cmp	r4, #3	; 0x3
    fc18:	059f350c 	ldreq	r3, [pc, #1292]	; 1012c <.text+0x812c>
    fc1c:	05c75000 	streqb	r5, [r7]
    fc20:	05c34000 	streqb	r4, [r3]
    fc24:	0a000152 	beq	10174 <.text+0x8174>
    fc28:	e3540004 	cmp	r4, #4	; 0x4
    fc2c:	0a000252 	beq	1057c <.text+0x857c>
    fc30:	e5c75000 	strb	r5, [r7]
    fc34:	e89daff8 	ldmia	sp, {r3, r4, r5, r6, r7, r8, r9, sl, fp, sp, pc}
    fc38:	e59f0490 	ldr	r0, [pc, #1168]	; 100d0 <.text+0x80d0>
    fc3c:	e5d03000 	ldrb	r3, [r0]
    fc40:	e3530000 	cmp	r3, #0	; 0x0
    fc44:	13a03004 	movne	r3, #4	; 0x4
    fc48:	1a0000ba 	bne	ff38 <nav_update+0x544>
    fc4c:	e59f04d8 	ldr	r0, [pc, #1240]	; 1012c <.text+0x812c>
    fc50:	e5d03000 	ldrb	r3, [r0]
    fc54:	e3530000 	cmp	r3, #0	; 0x0
    fc58:	1a000166 	bne	101f8 <.text+0x81f8>
    fc5c:	e59f3470 	ldr	r3, [pc, #1136]	; 100d4 <.text+0x80d4>
    fc60:	e5d32000 	ldrb	r2, [r3]
    fc64:	e3520002 	cmp	r2, #2	; 0x2
    fc68:	e5c75000 	strb	r5, [r7]
    fc6c:	e5c0c000 	strb	ip, [r0]
    fc70:	159fa4cc 	ldrne	sl, [pc, #1228]	; 10144 <.text+0x8144>
    fc74:	159f945c 	ldrne	r9, [pc, #1116]	; 100d8 <.text+0x80d8>
    fc78:	0a00026c 	beq	10630 <.text+0x8630>
    fc7c:	e59f34a0 	ldr	r3, [pc, #1184]	; 10124 <.text+0x8124>
    fc80:	e5991000 	ldr	r1, [r9]
    fc84:	e5930000 	ldr	r0, [r3]
    fc88:	eb000c17 	bl	12cec <__subsf3>
    fc8c:	eb000a4b 	bl	125c0 <__extendsfdf2>
    fc90:	e59f2488 	ldr	r2, [pc, #1160]	; 10120 <.text+0x8120>
    fc94:	e1a05001 	mov	r5, r1
    fc98:	e1a04000 	mov	r4, r0
    fc9c:	e5920000 	ldr	r0, [r2]
    fca0:	e59a1000 	ldr	r1, [sl]
    fca4:	eb000c10 	bl	12cec <__subsf3>
    fca8:	eb000a44 	bl	125c0 <__extendsfdf2>
    fcac:	e1a03001 	mov	r3, r1
    fcb0:	e1a02000 	mov	r2, r0
    fcb4:	e1a01005 	mov	r1, r5
    fcb8:	e1a00004 	mov	r0, r4
    fcbc:	eb000885 	bl	11ed8 <pp_atan2>
    fcc0:	eb000bcb 	bl	12bf4 <__truncdfsf2>
    fcc4:	eb000a3d 	bl	125c0 <__extendsfdf2>
    fcc8:	e59f3438 	ldr	r3, [pc, #1080]	; 10108 <.text+0x8108>
    fccc:	e1a05001 	mov	r5, r1
    fcd0:	e1a04000 	mov	r4, r0
    fcd4:	e3a014c2 	mov	r1, #-1040187392	; 0xc2000000
    fcd8:	e5930000 	ldr	r0, [r3]
    fcdc:	e2811712 	add	r1, r1, #4718592	; 0x480000
    fce0:	eb000c87 	bl	12f04 <__mulsf3>
    fce4:	eb000a35 	bl	125c0 <__extendsfdf2>
    fce8:	e1a03001 	mov	r3, r1
    fcec:	e1a02000 	mov	r2, r0
    fcf0:	e28f0e3b 	add	r0, pc, #944	; 0x3b0
    fcf4:	e8900003 	ldmia	r0, {r0, r1}
    fcf8:	eb000ad9 	bl	12864 <__divdf3>
    fcfc:	e1a03001 	mov	r3, r1
    fd00:	e1a02000 	mov	r2, r0
    fd04:	e1a01005 	mov	r1, r5
    fd08:	e1a00004 	mov	r0, r4
    fd0c:	eb00095d 	bl	12288 <__adddf3>
    fd10:	eb000bb7 	bl	12bf4 <__truncdfsf2>
    fd14:	e1a04000 	mov	r4, r0
    fd18:	e59a0000 	ldr	r0, [sl]
    fd1c:	eb000a27 	bl	125c0 <__extendsfdf2>
    fd20:	e1a06001 	mov	r6, r1
    fd24:	e1a05000 	mov	r5, r0
    fd28:	e1a00004 	mov	r0, r4
    fd2c:	eb000a23 	bl	125c0 <__extendsfdf2>
    fd30:	e28f2fde 	add	r2, pc, #888	; 0x378
    fd34:	e892000c 	ldmia	r2, {r2, r3}
    fd38:	e1a08001 	mov	r8, r1
    fd3c:	e1a07000 	mov	r7, r0
    fd40:	eb000950 	bl	12288 <__adddf3>
    fd44:	eb0008d7 	bl	120a8 <pp_sin>
    fd48:	e28f2fda 	add	r2, pc, #872	; 0x368
    fd4c:	e892000c 	ldmia	r2, {r2, r3}
    fd50:	eb000a2d 	bl	1260c <__muldf3>
    fd54:	e1a03001 	mov	r3, r1
    fd58:	e1a02000 	mov	r2, r0
    fd5c:	e1a01006 	mov	r1, r6
    fd60:	e1a00005 	mov	r0, r5
    fd64:	eb000947 	bl	12288 <__adddf3>
    fd68:	eb000ba1 	bl	12bf4 <__truncdfsf2>
    fd6c:	e1a06000 	mov	r6, r0
    fd70:	e5990000 	ldr	r0, [r9]
    fd74:	eb000a11 	bl	125c0 <__extendsfdf2>
    fd78:	e1a05001 	mov	r5, r1
    fd7c:	e1a04000 	mov	r4, r0
    fd80:	e1a01008 	mov	r1, r8
    fd84:	e1a00007 	mov	r0, r7
    fd88:	eb0008c6 	bl	120a8 <pp_sin>
    fd8c:	e28f2fc9 	add	r2, pc, #804	; 0x324
    fd90:	e892000c 	ldmia	r2, {r2, r3}
    fd94:	eb000a1c 	bl	1260c <__muldf3>
    fd98:	e1a03001 	mov	r3, r1
    fd9c:	e1a02000 	mov	r2, r0
    fda0:	e1a01005 	mov	r1, r5
    fda4:	e1a00004 	mov	r0, r4
    fda8:	eb000936 	bl	12288 <__adddf3>
    fdac:	eb000b90 	bl	12bf4 <__truncdfsf2>
    fdb0:	e59f336c 	ldr	r3, [pc, #876]	; 10124 <.text+0x8124>
    fdb4:	e59f2354 	ldr	r2, [pc, #852]	; 10110 <.text+0x8110>
    fdb8:	e5931000 	ldr	r1, [r3]
    fdbc:	e59f3350 	ldr	r3, [pc, #848]	; 10114 <.text+0x8114>
    fdc0:	e1a0e000 	mov	lr, r0
    fdc4:	e582e000 	str	lr, [r2]
    fdc8:	e5836000 	str	r6, [r3]
    fdcc:	eb000bc6 	bl	12cec <__subsf3>
    fdd0:	eb0009fa 	bl	125c0 <__extendsfdf2>
    fdd4:	e59f2344 	ldr	r2, [pc, #836]	; 10120 <.text+0x8120>
    fdd8:	e1a05001 	mov	r5, r1
    fddc:	e1a04000 	mov	r4, r0
    fde0:	e5921000 	ldr	r1, [r2]
    fde4:	e1a00006 	mov	r0, r6
    fde8:	eb000bbf 	bl	12cec <__subsf3>
    fdec:	eb0009f3 	bl	125c0 <__extendsfdf2>
    fdf0:	e1a03001 	mov	r3, r1
    fdf4:	e1a02000 	mov	r2, r0
    fdf8:	e1a01005 	mov	r1, r5
    fdfc:	e1a00004 	mov	r0, r4
    fe00:	eb000834 	bl	11ed8 <pp_atan2>
    fe04:	e1a03001 	mov	r3, r1
    fe08:	e1a02000 	mov	r2, r0
    fe0c:	e28f0fa7 	add	r0, pc, #668	; 0x29c
    fe10:	e8900003 	ldmia	r0, {r0, r1}
    fe14:	eb00091a 	bl	12284 <__subdf3>
    fe18:	eb000b75 	bl	12bf4 <__truncdfsf2>
    fe1c:	e59f32f4 	ldr	r3, [pc, #756]	; 10118 <.text+0x8118>
    fe20:	e5830000 	str	r0, [r3]
    fe24:	e1a03008 	mov	r3, r8
    fe28:	e1a02007 	mov	r2, r7
    fe2c:	e28f0f9f 	add	r0, pc, #636	; 0x27c
    fe30:	e8900003 	ldmia	r0, {r0, r1}
    fe34:	eb000912 	bl	12284 <__subdf3>
    fe38:	e28f2e32 	add	r2, pc, #800	; 0x320
    fe3c:	e892000c 	ldmia	r2, {r2, r3}
    fe40:	eb000a87 	bl	12864 <__divdf3>
    fe44:	e28f2fc7 	add	r2, pc, #796	; 0x31c
    fe48:	e892000c 	ldmia	r2, {r2, r3}
    fe4c:	eb0009ee 	bl	1260c <__muldf3>
    fe50:	eb000b67 	bl	12bf4 <__truncdfsf2>
    fe54:	e59f62c0 	ldr	r6, [pc, #704]	; 1011c <.text+0x811c>
    fe58:	e5860000 	str	r0, [r6]
    fe5c:	e1a05006 	mov	r5, r6
    fe60:	ea000001 	b	fe6c <nav_update+0x478>
    fe64:	eb000ba1 	bl	12cf0 <__addsf3>
    fe68:	e5850000 	str	r0, [r5]
    fe6c:	e5964000 	ldr	r4, [r6]
    fe70:	e3a01000 	mov	r1, #0	; 0x0
    fe74:	e1a00004 	mov	r0, r4
    fe78:	eb000cef 	bl	1323c <__lesf2>
    fe7c:	e3a01443 	mov	r1, #1124073472	; 0x43000000
    fe80:	e3500000 	cmp	r0, #0	; 0x0
    fe84:	e281172d 	add	r1, r1, #11796480	; 0xb40000
    fe88:	e1a00004 	mov	r0, r4
    fe8c:	bafffff4 	blt	fe64 <nav_update+0x470>
    fe90:	e59f5284 	ldr	r5, [pc, #644]	; 1011c <.text+0x811c>
    fe94:	ea000001 	b	fea0 <nav_update+0x4ac>
    fe98:	eb000b93 	bl	12cec <__subsf3>
    fe9c:	e5850000 	str	r0, [r5]
    fea0:	e5964000 	ldr	r4, [r6]
    fea4:	e3a01443 	mov	r1, #1124073472	; 0x43000000
    fea8:	e281172d 	add	r1, r1, #11796480	; 0xb40000
    feac:	e1a00004 	mov	r0, r4
    feb0:	eb000cdf 	bl	13234 <__gesf2>
    feb4:	e3a01443 	mov	r1, #1124073472	; 0x43000000
    feb8:	e3500000 	cmp	r0, #0	; 0x0
    febc:	e281172d 	add	r1, r1, #11796480	; 0xb40000
    fec0:	e1a00004 	mov	r0, r4
    fec4:	aafffff3 	bge	fe98 <nav_update+0x4a4>
    fec8:	e89daff8 	ldmia	sp, {r3, r4, r5, r6, r7, r8, r9, sl, fp, sp, pc}
    fecc:	e59f31f8 	ldr	r3, [pc, #504]	; 100cc <.text+0x80cc>
    fed0:	e1d330b0 	ldrh	r3, [r3]
    fed4:	e3530008 	cmp	r3, #8	; 0x8
    fed8:	9a000026 	bls	ff78 <nav_update+0x584>
    fedc:	e59f2240 	ldr	r2, [pc, #576]	; 10124 <.text+0x8124>
    fee0:	e59f3238 	ldr	r3, [pc, #568]	; 10120 <.text+0x8120>
    fee4:	e5920000 	ldr	r0, [r2]
    fee8:	e5931000 	ldr	r1, [r3]
    feec:	e3a03003 	mov	r3, #3	; 0x3
    fef0:	e59f2234 	ldr	r2, [pc, #564]	; 1012c <.text+0x812c>
    fef4:	e5c23000 	strb	r3, [r2]
    fef8:	e59f3234 	ldr	r3, [pc, #564]	; 10134 <.text+0x8134>
    fefc:	e59f222c 	ldr	r2, [pc, #556]	; 10130 <.text+0x8130>
    ff00:	e5830000 	str	r0, [r3]
    ff04:	e59f3230 	ldr	r3, [pc, #560]	; 1013c <.text+0x813c>
    ff08:	e5821000 	str	r1, [r2]
    ff0c:	e3a01000 	mov	r1, #0	; 0x0
    ff10:	e59f2220 	ldr	r2, [pc, #544]	; 10138 <.text+0x8138>
    ff14:	e5831000 	str	r1, [r3]
    ff18:	e3a03000 	mov	r3, #0	; 0x0
    ff1c:	e1c230b0 	strh	r3, [r2]
    ff20:	e89daff8 	ldmia	sp, {r3, r4, r5, r6, r7, r8, r9, sl, fp, sp, pc}
    ff24:	e59f01a4 	ldr	r0, [pc, #420]	; 100d0 <.text+0x80d0>
    ff28:	e5d06000 	ldrb	r6, [r0]
    ff2c:	e3560000 	cmp	r6, #0	; 0x0
    ff30:	0a00002f 	beq	fff4 <nav_update+0x600>
    ff34:	e3a03003 	mov	r3, #3	; 0x3
    ff38:	e59f21f0 	ldr	r2, [pc, #496]	; 10130 <.text+0x8130>
    ff3c:	e5c73000 	strb	r3, [r7]
    ff40:	e59f31ec 	ldr	r3, [pc, #492]	; 10134 <.text+0x8134>
    ff44:	e5829000 	str	r9, [r2]
    ff48:	e5838000 	str	r8, [r3]
    ff4c:	e59f21e4 	ldr	r2, [pc, #484]	; 10138 <.text+0x8138>
    ff50:	e59f31e4 	ldr	r3, [pc, #484]	; 1013c <.text+0x813c>
    ff54:	e3a01000 	mov	r1, #0	; 0x0
    ff58:	e1c2c0b0 	strh	ip, [r2]
    ff5c:	e5831000 	str	r1, [r3]
    ff60:	e59f2180 	ldr	r2, [pc, #384]	; 100e8 <.text+0x80e8>
    ff64:	e59f31c0 	ldr	r3, [pc, #448]	; 1012c <.text+0x812c>
    ff68:	e5c0c000 	strb	ip, [r0]
    ff6c:	e5c3c000 	strb	ip, [r3]
    ff70:	e1c2c0b0 	strh	ip, [r2]
    ff74:	e89daff8 	ldmia	sp, {r3, r4, r5, r6, r7, r8, r9, sl, fp, sp, pc}
    ff78:	e59f11ac 	ldr	r1, [pc, #428]	; 1012c <.text+0x812c>
    ff7c:	e3a03002 	mov	r3, #2	; 0x2
    ff80:	e5c13000 	strb	r3, [r1]
    ff84:	e59f2160 	ldr	r2, [pc, #352]	; 100ec <.text+0x80ec>
    ff88:	e59f3188 	ldr	r3, [pc, #392]	; 10118 <.text+0x8118>
    ff8c:	e5832000 	str	r2, [r3]
    ff90:	e59f315c 	ldr	r3, [pc, #348]	; 100f4 <.text+0x80f4>
    ff94:	e3a01000 	mov	r1, #0	; 0x0
    ff98:	e5c31000 	strb	r1, [r3]
    ff9c:	e59f2138 	ldr	r2, [pc, #312]	; 100dc <.text+0x80dc>
    ffa0:	e59f315c 	ldr	r3, [pc, #348]	; 10104 <.text+0x8104>
    ffa4:	e5832000 	str	r2, [r3]
    ffa8:	e59f3148 	ldr	r3, [pc, #328]	; 100f8 <.text+0x80f8>
    ffac:	e2811001 	add	r1, r1, #1	; 0x1
    ffb0:	e59f2128 	ldr	r2, [pc, #296]	; 100e0 <.text+0x80e0>
    ffb4:	e5c31000 	strb	r1, [r3]
    ffb8:	e3a03c1e 	mov	r3, #7680	; 0x1e00
    ffbc:	eaffffd6 	b	ff1c <nav_update+0x528>
    ffc0:	e59f0108 	ldr	r0, [pc, #264]	; 100d0 <.text+0x80d0>
    ffc4:	e5d03000 	ldrb	r3, [r0]
    ffc8:	e3530000 	cmp	r3, #0	; 0x0
    ffcc:	13a03005 	movne	r3, #5	; 0x5
    ffd0:	1affffd8 	bne	ff38 <nav_update+0x544>
    ffd4:	e59f1150 	ldr	r1, [pc, #336]	; 1012c <.text+0x812c>
    ffd8:	e5d13000 	ldrb	r3, [r1]
    ffdc:	e3530000 	cmp	r3, #0	; 0x0
    ffe0:	0a0000c0 	beq	102e8 <.text+0x82e8>
    ffe4:	e3530001 	cmp	r3, #1	; 0x1
    ffe8:	1affff10 	bne	fc30 <nav_update+0x23c>
    ffec:	e2833004 	add	r3, r3, #4	; 0x4
    fff0:	eafffeeb 	b	fba4 <nav_update+0x1b0>
    fff4:	e59f2130 	ldr	r2, [pc, #304]	; 1012c <.text+0x812c>
    fff8:	e5d24000 	ldrb	r4, [r2]
    fffc:	e3540000 	cmp	r4, #0	; 0x0
   10000:	e5c75000 	strb	r5, [r7]
   10004:	0a000062 	beq	10194 <.text+0x8194>
   10008:	e3540001 	cmp	r4, #1	; 0x1
   1000c:	0a000237 	beq	108f0 <.text+0x88f0>
   10010:	e3540002 	cmp	r4, #2	; 0x2
   10014:	0a000246 	beq	10934 <.text+0x8934>
   10018:	e3540003 	cmp	r4, #3	; 0x3
   1001c:	0a000259 	beq	10988 <.text+0x8988>
   10020:	e3540004 	cmp	r4, #4	; 0x4
   10024:	0a0002a5 	beq	10ac0 <.text+0x8ac0>
   10028:	e3540005 	cmp	r4, #5	; 0x5
   1002c:	0a0002b4 	beq	10b04 <.text+0x8b04>
   10030:	e3540006 	cmp	r4, #6	; 0x6
   10034:	0a0002cb 	beq	10b68 <.text+0x8b68>
   10038:	e3540007 	cmp	r4, #7	; 0x7
   1003c:	059f20e8 	ldreq	r2, [pc, #232]	; 1012c <.text+0x812c>
   10040:	05c24000 	streqb	r4, [r2]
   10044:	0a000052 	beq	10194 <.text+0x8194>
   10048:	e3540008 	cmp	r4, #8	; 0x8
   1004c:	189daff8 	ldmneia	sp, {r3, r4, r5, r6, r7, r8, r9, sl, fp, sp, pc}
   10050:	e59f10c8 	ldr	r1, [pc, #200]	; 10120 <.text+0x8120>
   10054:	e5d72000 	ldrb	r2, [r7]
   10058:	e5910000 	ldr	r0, [r1]
   1005c:	e59f30cc 	ldr	r3, [pc, #204]	; 10130 <.text+0x8130>
   10060:	e59f10bc 	ldr	r1, [pc, #188]	; 10124 <.text+0x8124>
   10064:	e2822001 	add	r2, r2, #1	; 0x1
   10068:	e5830000 	str	r0, [r3]
   1006c:	e59f30c4 	ldr	r3, [pc, #196]	; 10138 <.text+0x8138>
   10070:	e591e000 	ldr	lr, [r1]
   10074:	e5c72000 	strb	r2, [r7]
   10078:	e3a01000 	mov	r1, #0	; 0x0
   1007c:	e59f20b0 	ldr	r2, [pc, #176]	; 10134 <.text+0x8134>
   10080:	e1c310b0 	strh	r1, [r3]
   10084:	e59f30b0 	ldr	r3, [pc, #176]	; 1013c <.text+0x813c>
   10088:	e582e000 	str	lr, [r2]
   1008c:	e3a02000 	mov	r2, #0	; 0x0
   10090:	e5832000 	str	r2, [r3]
   10094:	e59f2090 	ldr	r2, [pc, #144]	; 1012c <.text+0x812c>
   10098:	e59f3048 	ldr	r3, [pc, #72]	; 100e8 <.text+0x80e8>
   1009c:	e5c21000 	strb	r1, [r2]
   100a0:	e1c310b0 	strh	r1, [r3]
   100a4:	e89daff8 	ldmia	sp, {r3, r4, r5, r6, r7, r8, r9, sl, fp, sp, pc}
   100a8:	40140000 	andmis	r0, r4, r0
   100ac:	00000000 	andeq	r0, r0, r0
   100b0:	3ff921fb 	swicc	0x00f921fb
   100b4:	54442d18 	strplb	r2, [r4], #-3352
   100b8:	40490000 	submi	r0, r9, r0
   100bc:	00000000 	andeq	r0, r0, r0
   100c0:	00013b98 	muleq	r1, r8, fp
   100c4:	00013b90 	muleq	r1, r0, fp
   100c8:	00013b91 	muleq	r1, r1, fp
   100cc:	00013ba8 	andeq	r3, r1, r8, lsr #23
   100d0:	000139e4 	andeq	r3, r1, r4, ror #19
   100d4:	000135a4 	andeq	r3, r1, r4, lsr #11
   100d8:	00013798 	muleq	r1, r8, r7
   100dc:	3e19999a 	mrccc	9, 0, r9, cr9, cr10, {4}
   100e0:	00013b88 	andeq	r3, r1, r8, lsl #23
   100e4:	00013bb4 	streqh	r3, [r1], -r4
   100e8:	00013ba0 	andeq	r3, r1, r0, lsr #23
   100ec:	4096cbe4 	addmis	ip, r6, r4, ror #23
   100f0:	00013778 	andeq	r3, r1, r8, ror r7
   100f4:	000135a1 	andeq	r3, r1, r1, lsr #11
   100f8:	000135a3 	andeq	r3, r1, r3, lsr #11
   100fc:	00013774 	andeq	r3, r1, r4, ror r7
   10100:	00013598 	muleq	r1, r8, r5
   10104:	00013790 	muleq	r1, r0, r7
   10108:	00013bc8 	andeq	r3, r1, r8, asr #23
   1010c:	00013538 	andeq	r3, r1, r8, lsr r5
   10110:	00013b84 	andeq	r3, r1, r4, lsl #23
   10114:	00013b7c 	andeq	r3, r1, ip, ror fp
   10118:	0001377c 	andeq	r3, r1, ip, ror r7
   1011c:	000137a8 	andeq	r3, r1, r8, lsr #15
   10120:	00013bd8 	ldreqd	r3, [r1], -r8
   10124:	00013bec 	andeq	r3, r1, ip, ror #23
   10128:	000137a4 	andeq	r3, r1, r4, lsr #15
   1012c:	00013b9c 	muleq	r1, ip, fp
   10130:	0001379c 	muleq	r1, ip, r7
   10134:	000137a0 	andeq	r3, r1, r0, lsr #15
   10138:	00013b9e 	muleq	r1, lr, fp
   1013c:	00013b80 	andeq	r3, r1, r0, lsl #23
   10140:	00013b10 	andeq	r3, r1, r0, lsl fp
   10144:	00013794 	muleq	r1, r4, r7
   10148:	40140000 	andmis	r0, r4, r0
   1014c:	00000000 	andeq	r0, r0, r0
   10150:	4062c000 	rsbmi	ip, r2, r0
   10154:	00000000 	andeq	r0, r0, r0
   10158:	3ff921fb 	swicc	0x00f921fb
   1015c:	54442d18 	strplb	r2, [r4], #-3352
   10160:	400921fb 	strmid	r2, [r9], -fp
   10164:	54442d18 	strplb	r2, [r4], #-3352
   10168:	40668000 	rsbmi	r8, r6, r0
   1016c:	00000000 	andeq	r0, r0, r0
   10170:	e5c75000 	strb	r5, [r7]
   10174:	e51f2050 	ldr	r2, [pc, #-80]	; 1012c <.text+0x812c>
   10178:	e5d23000 	ldrb	r3, [r2]
   1017c:	e51f2064 	ldr	r2, [pc, #-100]	; 10120 <.text+0x8120>
   10180:	e5921000 	ldr	r1, [r2]
   10184:	e51f2068 	ldr	r2, [pc, #-104]	; 10124 <.text+0x8124>
   10188:	e5920000 	ldr	r0, [r2]
   1018c:	e2833001 	add	r3, r3, #1	; 0x1
   10190:	eaffff56 	b	fef0 <nav_update+0x4fc>
   10194:	e51f307c 	ldr	r3, [pc, #-124]	; 10120 <.text+0x8120>
   10198:	e51f207c 	ldr	r2, [pc, #-124]	; 10124 <.text+0x8124>
   1019c:	e5931000 	ldr	r1, [r3]
   101a0:	e5920000 	ldr	r0, [r2]
   101a4:	e3a03001 	mov	r3, #1	; 0x1
   101a8:	eaffff50 	b	fef0 <nav_update+0x4fc>
   101ac:	e51f30d0 	ldr	r3, [pc, #-208]	; 100e4 <.text+0x80e4>
   101b0:	e3a01443 	mov	r1, #1124073472	; 0x43000000
   101b4:	e5930000 	ldr	r0, [r3]
   101b8:	e2811816 	add	r1, r1, #1441792	; 0x160000
   101bc:	e50bc02c 	str	ip, [fp, #-44]
   101c0:	eb000c1b 	bl	13234 <__gesf2>
   101c4:	e3500000 	cmp	r0, #0	; 0x0
   101c8:	e51bc02c 	ldr	ip, [fp, #-44]
   101cc:	da000035 	ble	102a8 <.text+0x82a8>
   101d0:	e51f20a8 	ldr	r2, [pc, #-168]	; 10130 <.text+0x8130>
   101d4:	e51f10b0 	ldr	r1, [pc, #-176]	; 1012c <.text+0x812c>
   101d8:	e3a03004 	mov	r3, #4	; 0x4
   101dc:	e5c13000 	strb	r3, [r1]
   101e0:	e5829000 	str	r9, [r2]
   101e4:	e51f30b8 	ldr	r3, [pc, #-184]	; 10134 <.text+0x8134>
   101e8:	e51f20b8 	ldr	r2, [pc, #-184]	; 10138 <.text+0x8138>
   101ec:	e5838000 	str	r8, [r3]
   101f0:	e1c2c0b0 	strh	ip, [r2]
   101f4:	eafffe43 	b	fb08 <nav_update+0x114>
   101f8:	e3530001 	cmp	r3, #1	; 0x1
   101fc:	1afffe8b 	bne	fc30 <nav_update+0x23c>
   10200:	e2833003 	add	r3, r3, #3	; 0x3
   10204:	e51f20dc 	ldr	r2, [pc, #-220]	; 10130 <.text+0x8130>
   10208:	e5c73000 	strb	r3, [r7]
   1020c:	e51f30e0 	ldr	r3, [pc, #-224]	; 10134 <.text+0x8134>
   10210:	e5829000 	str	r9, [r2]
   10214:	e5838000 	str	r8, [r3]
   10218:	e51f20e8 	ldr	r2, [pc, #-232]	; 10138 <.text+0x8138>
   1021c:	e51f30e8 	ldr	r3, [pc, #-232]	; 1013c <.text+0x813c>
   10220:	e3a01000 	mov	r1, #0	; 0x0
   10224:	e1c2c0b0 	strh	ip, [r2]
   10228:	e5831000 	str	r1, [r3]
   1022c:	e5c0c000 	strb	ip, [r0]
   10230:	eafffe67 	b	fbd4 <nav_update+0x1e0>
   10234:	e3530001 	cmp	r3, #1	; 0x1
   10238:	0a000263 	beq	10bcc <.text+0x8bcc>
   1023c:	e3530002 	cmp	r3, #2	; 0x2
   10240:	0a000318 	beq	10ea8 <.text+0x8ea8>
   10244:	e3530003 	cmp	r3, #3	; 0x3
   10248:	05c75000 	streqb	r5, [r7]
   1024c:	05ca3000 	streqb	r3, [sl]
   10250:	0afffe44 	beq	fb68 <nav_update+0x174>
   10254:	e3530004 	cmp	r3, #4	; 0x4
   10258:	1afffe74 	bne	fc30 <nav_update+0x23c>
   1025c:	e51f3140 	ldr	r3, [pc, #-320]	; 10124 <.text+0x8124>
   10260:	e51f2148 	ldr	r2, [pc, #-328]	; 10120 <.text+0x8120>
   10264:	e5930000 	ldr	r0, [r3]
   10268:	e3a03006 	mov	r3, #6	; 0x6
   1026c:	e5c73000 	strb	r3, [r7]
   10270:	e51f3144 	ldr	r3, [pc, #-324]	; 10134 <.text+0x8134>
   10274:	e5921000 	ldr	r1, [r2]
   10278:	e51f2150 	ldr	r2, [pc, #-336]	; 10130 <.text+0x8130>
   1027c:	e5830000 	str	r0, [r3]
   10280:	e51f314c 	ldr	r3, [pc, #-332]	; 1013c <.text+0x813c>
   10284:	e5821000 	str	r1, [r2]
   10288:	e3a01000 	mov	r1, #0	; 0x0
   1028c:	e51f215c 	ldr	r2, [pc, #-348]	; 10138 <.text+0x8138>
   10290:	e5831000 	str	r1, [r3]
   10294:	e51f31b4 	ldr	r3, [pc, #-436]	; 100e8 <.text+0x80e8>
   10298:	e1c260b0 	strh	r6, [r2]
   1029c:	e5ca6000 	strb	r6, [sl]
   102a0:	e1c360b0 	strh	r6, [r3]
   102a4:	e89daff8 	ldmia	sp, {r3, r4, r5, r6, r7, r8, r9, sl, fp, sp, pc}
   102a8:	e51f11c4 	ldr	r1, [pc, #-452]	; 100ec <.text+0x80ec>
   102ac:	e51f319c 	ldr	r3, [pc, #-412]	; 10118 <.text+0x8118>
   102b0:	e51f218c 	ldr	r2, [pc, #-396]	; 1012c <.text+0x812c>
   102b4:	e5831000 	str	r1, [r3]
   102b8:	e51f31bc 	ldr	r3, [pc, #-444]	; 10104 <.text+0x8104>
   102bc:	e3a01000 	mov	r1, #0	; 0x0
   102c0:	e5c24000 	strb	r4, [r2]
   102c4:	e51f21d8 	ldr	r2, [pc, #-472]	; 100f4 <.text+0x80f4>
   102c8:	e5831000 	str	r1, [r3]
   102cc:	e51f31dc 	ldr	r3, [pc, #-476]	; 100f8 <.text+0x80f8>
   102d0:	e5c2c000 	strb	ip, [r2]
   102d4:	e3a02002 	mov	r2, #2	; 0x2
   102d8:	e5c32000 	strb	r2, [r3]
   102dc:	e51f31f4 	ldr	r3, [pc, #-500]	; 100f0 <.text+0x80f0>
   102e0:	e3a01441 	mov	r1, #1090519040	; 0x41000000
   102e4:	eafffe09 	b	fb10 <nav_update+0x11c>
   102e8:	e51f21e4 	ldr	r2, [pc, #-484]	; 1010c <.text+0x810c>
   102ec:	e51f3200 	ldr	r3, [pc, #-512]	; 100f4 <.text+0x80f4>
   102f0:	e592e008 	ldr	lr, [r2, #8]
   102f4:	e5c3c000 	strb	ip, [r3]
   102f8:	e51f3208 	ldr	r3, [pc, #-520]	; 100f8 <.text+0x80f8>
   102fc:	e3a02003 	mov	r2, #3	; 0x3
   10300:	e5c32000 	strb	r2, [r3]
   10304:	e51f3210 	ldr	r3, [pc, #-528]	; 100fc <.text+0x80fc>
   10308:	e3a04000 	mov	r4, #0	; 0x0
   1030c:	e5834000 	str	r4, [r3]
   10310:	e51f31ec 	ldr	r3, [pc, #-492]	; 1012c <.text+0x812c>
   10314:	e51f221c 	ldr	r2, [pc, #-540]	; 10100 <.text+0x8100>
   10318:	e5c3c000 	strb	ip, [r3]
   1031c:	e51f3220 	ldr	r3, [pc, #-544]	; 10104 <.text+0x8104>
   10320:	e582e000 	str	lr, [r2]
   10324:	e5834000 	str	r4, [r3]
   10328:	e1a01006 	mov	r1, r6
   1032c:	e5c75000 	strb	r5, [r7]
   10330:	e1a00008 	mov	r0, r8
   10334:	eb000a6c 	bl	12cec <__subsf3>
   10338:	eb0008a0 	bl	125c0 <__extendsfdf2>
   1033c:	e1a05001 	mov	r5, r1
   10340:	e1a04000 	mov	r4, r0
   10344:	e1a0100a 	mov	r1, sl
   10348:	e1a00009 	mov	r0, r9
   1034c:	eb000a66 	bl	12cec <__subsf3>
   10350:	eb00089a 	bl	125c0 <__extendsfdf2>
   10354:	e1a03001 	mov	r3, r1
   10358:	e1a02000 	mov	r2, r0
   1035c:	e1a01005 	mov	r1, r5
   10360:	e1a00004 	mov	r0, r4
   10364:	eb0006db 	bl	11ed8 <pp_atan2>
   10368:	eb000a21 	bl	12bf4 <__truncdfsf2>
   1036c:	eb000893 	bl	125c0 <__extendsfdf2>
   10370:	e51f3270 	ldr	r3, [pc, #-624]	; 10108 <.text+0x8108>
   10374:	e1a05001 	mov	r5, r1
   10378:	e1a04000 	mov	r4, r0
   1037c:	e3a014c3 	mov	r1, #-1023410176	; 0xc3000000
   10380:	e5930000 	ldr	r0, [r3]
   10384:	e2811816 	add	r1, r1, #1441792	; 0x160000
   10388:	eb000add 	bl	12f04 <__mulsf3>
   1038c:	eb00088b 	bl	125c0 <__extendsfdf2>
   10390:	e1a03001 	mov	r3, r1
   10394:	e1a02000 	mov	r2, r0
   10398:	e24f0f96 	sub	r0, pc, #600	; 0x258
   1039c:	e8900003 	ldmia	r0, {r0, r1}
   103a0:	eb00092f 	bl	12864 <__divdf3>
   103a4:	e1a03001 	mov	r3, r1
   103a8:	e1a02000 	mov	r2, r0
   103ac:	e1a01005 	mov	r1, r5
   103b0:	e1a00004 	mov	r0, r4
   103b4:	eb0007b3 	bl	12288 <__adddf3>
   103b8:	eb000a0d 	bl	12bf4 <__truncdfsf2>
   103bc:	e51f12b8 	ldr	r1, [pc, #-696]	; 1010c <.text+0x810c>
   103c0:	e1a04000 	mov	r4, r0
   103c4:	e5910000 	ldr	r0, [r1]
   103c8:	eb00087c 	bl	125c0 <__extendsfdf2>
   103cc:	e1a06001 	mov	r6, r1
   103d0:	e1a05000 	mov	r5, r0
   103d4:	e1a00004 	mov	r0, r4
   103d8:	eb000878 	bl	125c0 <__extendsfdf2>
   103dc:	e24f2fa3 	sub	r2, pc, #652	; 0x28c
   103e0:	e892000c 	ldmia	r2, {r2, r3}
   103e4:	e1a08001 	mov	r8, r1
   103e8:	e1a07000 	mov	r7, r0
   103ec:	eb0007a5 	bl	12288 <__adddf3>
   103f0:	eb00072c 	bl	120a8 <pp_sin>
   103f4:	e24f2fab 	sub	r2, pc, #684	; 0x2ac
   103f8:	e892000c 	ldmia	r2, {r2, r3}
   103fc:	eb000882 	bl	1260c <__muldf3>
   10400:	e1a03001 	mov	r3, r1
   10404:	e1a02000 	mov	r2, r0
   10408:	e1a01006 	mov	r1, r6
   1040c:	e1a00005 	mov	r0, r5
   10410:	eb00079c 	bl	12288 <__adddf3>
   10414:	eb0009f6 	bl	12bf4 <__truncdfsf2>
   10418:	e51f2314 	ldr	r2, [pc, #-788]	; 1010c <.text+0x810c>
   1041c:	e1a06000 	mov	r6, r0
   10420:	e5920004 	ldr	r0, [r2, #4]
   10424:	eb000865 	bl	125c0 <__extendsfdf2>
   10428:	e1a05001 	mov	r5, r1
   1042c:	e1a04000 	mov	r4, r0
   10430:	e1a01008 	mov	r1, r8
   10434:	e1a00007 	mov	r0, r7
   10438:	eb00071a 	bl	120a8 <pp_sin>
   1043c:	e24f2fbd 	sub	r2, pc, #756	; 0x2f4
   10440:	e892000c 	ldmia	r2, {r2, r3}
   10444:	eb000870 	bl	1260c <__muldf3>
   10448:	e1a03001 	mov	r3, r1
   1044c:	e1a02000 	mov	r2, r0
   10450:	e1a01005 	mov	r1, r5
   10454:	e1a00004 	mov	r0, r4
   10458:	eb00078a 	bl	12288 <__adddf3>
   1045c:	eb0009e4 	bl	12bf4 <__truncdfsf2>
   10460:	e51f3344 	ldr	r3, [pc, #-836]	; 10124 <.text+0x8124>
   10464:	e51f235c 	ldr	r2, [pc, #-860]	; 10110 <.text+0x8110>
   10468:	e5931000 	ldr	r1, [r3]
   1046c:	e51f3360 	ldr	r3, [pc, #-864]	; 10114 <.text+0x8114>
   10470:	e1a0e000 	mov	lr, r0
   10474:	e582e000 	str	lr, [r2]
   10478:	e5836000 	str	r6, [r3]
   1047c:	eb000a1a 	bl	12cec <__subsf3>
   10480:	eb00084e 	bl	125c0 <__extendsfdf2>
   10484:	e51f236c 	ldr	r2, [pc, #-876]	; 10120 <.text+0x8120>
   10488:	e1a05001 	mov	r5, r1
   1048c:	e1a04000 	mov	r4, r0
   10490:	e5921000 	ldr	r1, [r2]
   10494:	e1a00006 	mov	r0, r6
   10498:	eb000a13 	bl	12cec <__subsf3>
   1049c:	eb000847 	bl	125c0 <__extendsfdf2>
   104a0:	e1a03001 	mov	r3, r1
   104a4:	e1a02000 	mov	r2, r0
   104a8:	e1a01005 	mov	r1, r5
   104ac:	e1a00004 	mov	r0, r4
   104b0:	eb000688 	bl	11ed8 <pp_atan2>
   104b4:	e1a03001 	mov	r3, r1
   104b8:	e1a02000 	mov	r2, r0
   104bc:	e24f0fdb 	sub	r0, pc, #876	; 0x36c
   104c0:	e8900003 	ldmia	r0, {r0, r1}
   104c4:	eb00076e 	bl	12284 <__subdf3>
   104c8:	eb0009c9 	bl	12bf4 <__truncdfsf2>
   104cc:	e51f33bc 	ldr	r3, [pc, #-956]	; 10118 <.text+0x8118>
   104d0:	e5830000 	str	r0, [r3]
   104d4:	e1a03008 	mov	r3, r8
   104d8:	e1a02007 	mov	r2, r7
   104dc:	e24f0fe3 	sub	r0, pc, #908	; 0x38c
   104e0:	e8900003 	ldmia	r0, {r0, r1}
   104e4:	eb000766 	bl	12284 <__subdf3>
   104e8:	e24f2e39 	sub	r2, pc, #912	; 0x390
   104ec:	e892000c 	ldmia	r2, {r2, r3}
   104f0:	eb0008db 	bl	12864 <__divdf3>
   104f4:	e24f2fe5 	sub	r2, pc, #916	; 0x394
   104f8:	e892000c 	ldmia	r2, {r2, r3}
   104fc:	eb000842 	bl	1260c <__muldf3>
   10500:	eb0009bb 	bl	12bf4 <__truncdfsf2>
   10504:	e51f63f0 	ldr	r6, [pc, #-1008]	; 1011c <.text+0x811c>
   10508:	e5860000 	str	r0, [r6]
   1050c:	e1a05006 	mov	r5, r6
   10510:	ea000001 	b	1051c <.text+0x851c>
   10514:	eb0009f5 	bl	12cf0 <__addsf3>
   10518:	e5850000 	str	r0, [r5]
   1051c:	e5964000 	ldr	r4, [r6]
   10520:	e3a01000 	mov	r1, #0	; 0x0
   10524:	e1a00004 	mov	r0, r4
   10528:	eb000b43 	bl	1323c <__lesf2>
   1052c:	e3a01443 	mov	r1, #1124073472	; 0x43000000
   10530:	e3500000 	cmp	r0, #0	; 0x0
   10534:	e281172d 	add	r1, r1, #11796480	; 0xb40000
   10538:	e1a00004 	mov	r0, r4
   1053c:	bafffff4 	blt	10514 <.text+0x8514>
   10540:	e51f542c 	ldr	r5, [pc, #-1068]	; 1011c <.text+0x811c>
   10544:	ea000001 	b	10550 <.text+0x8550>
   10548:	eb0009e7 	bl	12cec <__subsf3>
   1054c:	e5850000 	str	r0, [r5]
   10550:	e5964000 	ldr	r4, [r6]
   10554:	e3a01443 	mov	r1, #1124073472	; 0x43000000
   10558:	e281172d 	add	r1, r1, #11796480	; 0xb40000
   1055c:	e1a00004 	mov	r0, r4
   10560:	eb000b33 	bl	13234 <__gesf2>
   10564:	e3a01443 	mov	r1, #1124073472	; 0x43000000
   10568:	e3500000 	cmp	r0, #0	; 0x0
   1056c:	e281172d 	add	r1, r1, #11796480	; 0xb40000
   10570:	e1a00004 	mov	r0, r4
   10574:	aafffff3 	bge	10548 <.text+0x8548>
   10578:	e89daff8 	ldmia	sp, {r3, r4, r5, r6, r7, r8, r9, sl, fp, sp, pc}
   1057c:	e3a03002 	mov	r3, #2	; 0x2
   10580:	e5c73000 	strb	r3, [r7]
   10584:	e51f3458 	ldr	r3, [pc, #-1112]	; 10134 <.text+0x8134>
   10588:	e51f2460 	ldr	r2, [pc, #-1120]	; 10130 <.text+0x8130>
   1058c:	e5838000 	str	r8, [r3]
   10590:	e51f345c 	ldr	r3, [pc, #-1116]	; 1013c <.text+0x813c>
   10594:	e3a01000 	mov	r1, #0	; 0x0
   10598:	e5829000 	str	r9, [r2]
   1059c:	e5831000 	str	r1, [r3]
   105a0:	e51f2470 	ldr	r2, [pc, #-1136]	; 10138 <.text+0x8138>
   105a4:	e51f1480 	ldr	r1, [pc, #-1152]	; 1012c <.text+0x812c>
   105a8:	e1c2c0b0 	strh	ip, [r2]
   105ac:	e5c1c000 	strb	ip, [r1]
   105b0:	eafffd87 	b	fbd4 <nav_update+0x1e0>
   105b4:	e51f1490 	ldr	r1, [pc, #-1168]	; 1012c <.text+0x812c>
   105b8:	e5c75000 	strb	r5, [r7]
   105bc:	e5c14000 	strb	r4, [r1]
   105c0:	e1a00005 	mov	r0, r5
   105c4:	e50bc02c 	str	ip, [fp, #-44]
   105c8:	ebfffb08 	bl	f1f0 <approaching>
   105cc:	e31000ff 	tst	r0, #255	; 0xff
   105d0:	e51bc02c 	ldr	ip, [fp, #-44]
   105d4:	01a00004 	moveq	r0, r4
   105d8:	0a000105 	beq	109f4 <.text+0x89f4>
   105dc:	e51f34b8 	ldr	r3, [pc, #-1208]	; 1012c <.text+0x812c>
   105e0:	e5d32000 	ldrb	r2, [r3]
   105e4:	e51f34cc 	ldr	r3, [pc, #-1228]	; 10120 <.text+0x8120>
   105e8:	e5931000 	ldr	r1, [r3]
   105ec:	e51f34d0 	ldr	r3, [pc, #-1232]	; 10124 <.text+0x8124>
   105f0:	e5930000 	ldr	r0, [r3]
   105f4:	e51f34d4 	ldr	r3, [pc, #-1236]	; 10128 <.text+0x8128>
   105f8:	e5c35000 	strb	r5, [r3]
   105fc:	e51f34d8 	ldr	r3, [pc, #-1240]	; 1012c <.text+0x812c>
   10600:	e2822001 	add	r2, r2, #1	; 0x1
   10604:	e5c32000 	strb	r2, [r3]
   10608:	e51f34e0 	ldr	r3, [pc, #-1248]	; 10130 <.text+0x8130>
   1060c:	e51f24e0 	ldr	r2, [pc, #-1248]	; 10134 <.text+0x8134>
   10610:	e5831000 	str	r1, [r3]
   10614:	e5820000 	str	r0, [r2]
   10618:	e51f34e8 	ldr	r3, [pc, #-1256]	; 10138 <.text+0x8138>
   1061c:	e1c3c0b0 	strh	ip, [r3]
   10620:	e51f34ec 	ldr	r3, [pc, #-1260]	; 1013c <.text+0x813c>
   10624:	e3a02000 	mov	r2, #0	; 0x0
   10628:	e5832000 	str	r2, [r3]
   1062c:	e89daff8 	ldmia	sp, {r3, r4, r5, r6, r7, r8, r9, sl, fp, sp, pc}
   10630:	e51f84f8 	ldr	r8, [pc, #-1272]	; 10140 <.text+0x8140>
   10634:	e1d870b6 	ldrh	r7, [r8, #6]
   10638:	e2873e1e 	add	r3, r7, #480	; 0x1e0
   1063c:	e1a03803 	mov	r3, r3, lsl #16
   10640:	e353050f 	cmp	r3, #62914560	; 0x3c00000
   10644:	951fa508 	ldrls	sl, [pc, #-1288]	; 10144 <.text+0x8144>
   10648:	9a00002b 	bls	106fc <.text+0x86fc>
   1064c:	e51f6510 	ldr	r6, [pc, #-1296]	; 10144 <.text+0x8144>
   10650:	e5960000 	ldr	r0, [r6]
   10654:	eb0007d9 	bl	125c0 <__extendsfdf2>
   10658:	e1a05001 	mov	r5, r1
   1065c:	e1a04000 	mov	r4, r0
   10660:	e1a00807 	mov	r0, r7, lsl #16
   10664:	e1a00840 	mov	r0, r0, asr #16
   10668:	eb000a12 	bl	12eb8 <__floatsisf>
   1066c:	e3a01446 	mov	r1, #1174405120	; 0x46000000
   10670:	e2811816 	add	r1, r1, #1441792	; 0x160000
   10674:	eb000a86 	bl	13094 <__divsf3>
   10678:	eb0007d0 	bl	125c0 <__extendsfdf2>
   1067c:	e28f2fee 	add	r2, pc, #952	; 0x3b8
   10680:	e892000c 	ldmia	r2, {r2, r3}
   10684:	eb0007e0 	bl	1260c <__muldf3>
   10688:	e28f2fed 	add	r2, pc, #948	; 0x3b4
   1068c:	e892000c 	ldmia	r2, {r2, r3}
   10690:	eb0006fc 	bl	12288 <__adddf3>
   10694:	e1a03001 	mov	r3, r1
   10698:	e1a02000 	mov	r2, r0
   1069c:	e1a01005 	mov	r1, r5
   106a0:	e1a00004 	mov	r0, r4
   106a4:	eb0006f7 	bl	12288 <__adddf3>
   106a8:	eb000951 	bl	12bf4 <__truncdfsf2>
   106ac:	e3a01443 	mov	r1, #1124073472	; 0x43000000
   106b0:	e1a04000 	mov	r4, r0
   106b4:	e281187a 	add	r1, r1, #7995392	; 0x7a0000
   106b8:	e5864000 	str	r4, [r6]
   106bc:	eb000ade 	bl	1323c <__lesf2>
   106c0:	e3a03443 	mov	r3, #1124073472	; 0x43000000
   106c4:	e3500000 	cmp	r0, #0	; 0x0
   106c8:	e283387a 	add	r3, r3, #7995392	; 0x7a0000
   106cc:	c1a04003 	movgt	r4, r3
   106d0:	e3a014c3 	mov	r1, #-1023410176	; 0xc3000000
   106d4:	e5864000 	str	r4, [r6]
   106d8:	e1a00004 	mov	r0, r4
   106dc:	e281187a 	add	r1, r1, #7995392	; 0x7a0000
   106e0:	eb000ad3 	bl	13234 <__gesf2>
   106e4:	e3a034c3 	mov	r3, #-1023410176	; 0xc3000000
   106e8:	e3500000 	cmp	r0, #0	; 0x0
   106ec:	e283387a 	add	r3, r3, #7995392	; 0x7a0000
   106f0:	b1a04003 	movlt	r4, r3
   106f4:	e5864000 	str	r4, [r6]
   106f8:	e1a0a006 	mov	sl, r6
   106fc:	e1d870b4 	ldrh	r7, [r8, #4]
   10700:	e2873e1e 	add	r3, r7, #480	; 0x1e0
   10704:	e1a03803 	mov	r3, r3, lsl #16
   10708:	e353050f 	cmp	r3, #62914560	; 0x3c00000
   1070c:	959f9338 	ldrls	r9, [pc, #824]	; 10a4c <.text+0x8a4c>
   10710:	9a00002b 	bls	107c4 <.text+0x87c4>
   10714:	e59f6330 	ldr	r6, [pc, #816]	; 10a4c <.text+0x8a4c>
   10718:	e5960000 	ldr	r0, [r6]
   1071c:	eb0007a7 	bl	125c0 <__extendsfdf2>
   10720:	e1a05001 	mov	r5, r1
   10724:	e1a04000 	mov	r4, r0
   10728:	e1a00807 	mov	r0, r7, lsl #16
   1072c:	e1a00840 	mov	r0, r0, asr #16
   10730:	eb0009e0 	bl	12eb8 <__floatsisf>
   10734:	e3a01446 	mov	r1, #1174405120	; 0x46000000
   10738:	e2811816 	add	r1, r1, #1441792	; 0x160000
   1073c:	eb000a54 	bl	13094 <__divsf3>
   10740:	eb00079e 	bl	125c0 <__extendsfdf2>
   10744:	e28f2e2f 	add	r2, pc, #752	; 0x2f0
   10748:	e892000c 	ldmia	r2, {r2, r3}
   1074c:	eb0007ae 	bl	1260c <__muldf3>
   10750:	e28f2fbb 	add	r2, pc, #748	; 0x2ec
   10754:	e892000c 	ldmia	r2, {r2, r3}
   10758:	eb0006ca 	bl	12288 <__adddf3>
   1075c:	e1a03001 	mov	r3, r1
   10760:	e1a02000 	mov	r2, r0
   10764:	e1a01005 	mov	r1, r5
   10768:	e1a00004 	mov	r0, r4
   1076c:	eb0006c5 	bl	12288 <__adddf3>
   10770:	eb00091f 	bl	12bf4 <__truncdfsf2>
   10774:	e3a01443 	mov	r1, #1124073472	; 0x43000000
   10778:	e1a04000 	mov	r4, r0
   1077c:	e281187a 	add	r1, r1, #7995392	; 0x7a0000
   10780:	e5864000 	str	r4, [r6]
   10784:	eb000aac 	bl	1323c <__lesf2>
   10788:	e3a03443 	mov	r3, #1124073472	; 0x43000000
   1078c:	e3500000 	cmp	r0, #0	; 0x0
   10790:	e283387a 	add	r3, r3, #7995392	; 0x7a0000
   10794:	c1a04003 	movgt	r4, r3
   10798:	e3a014c3 	mov	r1, #-1023410176	; 0xc3000000
   1079c:	e5864000 	str	r4, [r6]
   107a0:	e1a00004 	mov	r0, r4
   107a4:	e281187a 	add	r1, r1, #7995392	; 0x7a0000
   107a8:	eb000aa1 	bl	13234 <__gesf2>
   107ac:	e3a034c3 	mov	r3, #-1023410176	; 0xc3000000
   107b0:	e3500000 	cmp	r0, #0	; 0x0
   107b4:	e283387a 	add	r3, r3, #7995392	; 0x7a0000
   107b8:	b1a04003 	movlt	r4, r3
   107bc:	e5864000 	str	r4, [r6]
   107c0:	e1a09006 	mov	r9, r6
   107c4:	e1d870b2 	ldrh	r7, [r8, #2]
   107c8:	e2873e1e 	add	r3, r7, #480	; 0x1e0
   107cc:	e1a03803 	mov	r3, r3, lsl #16
   107d0:	e353050f 	cmp	r3, #62914560	; 0x3c00000
   107d4:	e59f32a4 	ldr	r3, [pc, #676]	; 10a80 <.text+0x8a80>
   107d8:	e3a02003 	mov	r2, #3	; 0x3
   107dc:	e5c32000 	strb	r2, [r3]
   107e0:	9afffd25 	bls	fc7c <nav_update+0x288>
   107e4:	e59f6298 	ldr	r6, [pc, #664]	; 10a84 <.text+0x8a84>
   107e8:	e5960000 	ldr	r0, [r6]
   107ec:	eb000773 	bl	125c0 <__extendsfdf2>
   107f0:	e1a05001 	mov	r5, r1
   107f4:	e1a04000 	mov	r4, r0
   107f8:	e1a00807 	mov	r0, r7, lsl #16
   107fc:	e1a00840 	mov	r0, r0, asr #16
   10800:	eb0009ac 	bl	12eb8 <__floatsisf>
   10804:	e3a014c6 	mov	r1, #-973078528	; 0xc6000000
   10808:	e2811816 	add	r1, r1, #1441792	; 0x160000
   1080c:	eb000a20 	bl	13094 <__divsf3>
   10810:	eb00076a 	bl	125c0 <__extendsfdf2>
   10814:	e28f2f8a 	add	r2, pc, #552	; 0x228
   10818:	e892000c 	ldmia	r2, {r2, r3}
   1081c:	eb000699 	bl	12288 <__adddf3>
   10820:	e1a03001 	mov	r3, r1
   10824:	e1a02000 	mov	r2, r0
   10828:	e1a01005 	mov	r1, r5
   1082c:	e1a00004 	mov	r0, r4
   10830:	eb000694 	bl	12288 <__adddf3>
   10834:	eb0008ee 	bl	12bf4 <__truncdfsf2>
   10838:	e3a01443 	mov	r1, #1124073472	; 0x43000000
   1083c:	e281182f 	add	r1, r1, #3080192	; 0x2f0000
   10840:	e1a04000 	mov	r4, r0
   10844:	eb000a7a 	bl	13234 <__gesf2>
   10848:	e3a03443 	mov	r3, #1124073472	; 0x43000000
   1084c:	e3500000 	cmp	r0, #0	; 0x0
   10850:	e283382f 	add	r3, r3, #3080192	; 0x2f0000
   10854:	e3a01443 	mov	r1, #1124073472	; 0x43000000
   10858:	b1a04003 	movlt	r4, r3
   1085c:	e2811889 	add	r1, r1, #8978432	; 0x890000
   10860:	e1a00004 	mov	r0, r4
   10864:	e2811902 	add	r1, r1, #32768	; 0x8000
   10868:	eb000a73 	bl	1323c <__lesf2>
   1086c:	e3a03443 	mov	r3, #1124073472	; 0x43000000
   10870:	e2833889 	add	r3, r3, #8978432	; 0x890000
   10874:	e3500000 	cmp	r0, #0	; 0x0
   10878:	e2833902 	add	r3, r3, #32768	; 0x8000
   1087c:	c1a04003 	movgt	r4, r3
   10880:	e5864000 	str	r4, [r6]
   10884:	eafffcfc 	b	fc7c <nav_update+0x288>
   10888:	e59f21e8 	ldr	r2, [pc, #488]	; 10a78 <.text+0x8a78>
   1088c:	e5c75000 	strb	r5, [r7]
   10890:	e5c24000 	strb	r4, [r2]
   10894:	e3a00004 	mov	r0, #4	; 0x4
   10898:	e50bc02c 	str	ip, [fp, #-44]
   1089c:	ebfffa53 	bl	f1f0 <approaching>
   108a0:	e31000ff 	tst	r0, #255	; 0xff
   108a4:	e51bc02c 	ldr	ip, [fp, #-44]
   108a8:	0a0000c1 	beq	10bb4 <.text+0x8bb4>
   108ac:	e59f31c4 	ldr	r3, [pc, #452]	; 10a78 <.text+0x8a78>
   108b0:	e5d32000 	ldrb	r2, [r3]
   108b4:	e59f31a4 	ldr	r3, [pc, #420]	; 10a60 <.text+0x8a60>
   108b8:	e59f11ac 	ldr	r1, [pc, #428]	; 10a6c <.text+0x8a6c>
   108bc:	e593e000 	ldr	lr, [r3]
   108c0:	e5910000 	ldr	r0, [r1]
   108c4:	e2822001 	add	r2, r2, #1	; 0x1
   108c8:	e3a01004 	mov	r1, #4	; 0x4
   108cc:	e59f3188 	ldr	r3, [pc, #392]	; 10a5c <.text+0x8a5c>
   108d0:	e5c31000 	strb	r1, [r3]
   108d4:	e59f119c 	ldr	r1, [pc, #412]	; 10a78 <.text+0x8a78>
   108d8:	e5c12000 	strb	r2, [r1]
   108dc:	e59f316c 	ldr	r3, [pc, #364]	; 10a50 <.text+0x8a50>
   108e0:	e59f216c 	ldr	r2, [pc, #364]	; 10a54 <.text+0x8a54>
   108e4:	e5830000 	str	r0, [r3]
   108e8:	e582e000 	str	lr, [r2]
   108ec:	eaffff49 	b	10618 <.text+0x8618>
   108f0:	e59f1180 	ldr	r1, [pc, #384]	; 10a78 <.text+0x8a78>
   108f4:	e3a00006 	mov	r0, #6	; 0x6
   108f8:	e5c14000 	strb	r4, [r1]
   108fc:	e50bc02c 	str	ip, [fp, #-44]
   10900:	ebfffa3a 	bl	f1f0 <approaching>
   10904:	e31000ff 	tst	r0, #255	; 0xff
   10908:	e51bc02c 	ldr	ip, [fp, #-44]
   1090c:	0a00015f 	beq	10e90 <.text+0x8e90>
   10910:	e59f3160 	ldr	r3, [pc, #352]	; 10a78 <.text+0x8a78>
   10914:	e59f1150 	ldr	r1, [pc, #336]	; 10a6c <.text+0x8a6c>
   10918:	e5d32000 	ldrb	r2, [r3]
   1091c:	e59f313c 	ldr	r3, [pc, #316]	; 10a60 <.text+0x8a60>
   10920:	e5910000 	ldr	r0, [r1]
   10924:	e593e000 	ldr	lr, [r3]
   10928:	e2822001 	add	r2, r2, #1	; 0x1
   1092c:	e3a01006 	mov	r1, #6	; 0x6
   10930:	eaffffe5 	b	108cc <.text+0x88cc>
   10934:	e59f313c 	ldr	r3, [pc, #316]	; 10a78 <.text+0x8a78>
   10938:	e3a00001 	mov	r0, #1	; 0x1
   1093c:	e5c34000 	strb	r4, [r3]
   10940:	e50bc02c 	str	ip, [fp, #-44]
   10944:	ebfffa29 	bl	f1f0 <approaching>
   10948:	e31000ff 	tst	r0, #255	; 0xff
   1094c:	e51bc02c 	ldr	ip, [fp, #-44]
   10950:	0a000026 	beq	109f0 <.text+0x89f0>
   10954:	e59f111c 	ldr	r1, [pc, #284]	; 10a78 <.text+0x8a78>
   10958:	e59f310c 	ldr	r3, [pc, #268]	; 10a6c <.text+0x8a6c>
   1095c:	e5d12000 	ldrb	r2, [r1]
   10960:	e59f10f8 	ldr	r1, [pc, #248]	; 10a60 <.text+0x8a60>
   10964:	e5930000 	ldr	r0, [r3]
   10968:	e591e000 	ldr	lr, [r1]
   1096c:	e2822001 	add	r2, r2, #1	; 0x1
   10970:	e3a01001 	mov	r1, #1	; 0x1
   10974:	e59f30e0 	ldr	r3, [pc, #224]	; 10a5c <.text+0x8a5c>
   10978:	e5c31000 	strb	r1, [r3]
   1097c:	e59f30f4 	ldr	r3, [pc, #244]	; 10a78 <.text+0x8a78>
   10980:	e5c32000 	strb	r2, [r3]
   10984:	eaffffd4 	b	108dc <.text+0x88dc>
   10988:	e59f20e8 	ldr	r2, [pc, #232]	; 10a78 <.text+0x8a78>
   1098c:	e1a00005 	mov	r0, r5
   10990:	e5c24000 	strb	r4, [r2]
   10994:	e50bc02c 	str	ip, [fp, #-44]
   10998:	ebfffa14 	bl	f1f0 <approaching>
   1099c:	e21060ff 	ands	r6, r0, #255	; 0xff
   109a0:	e51bc02c 	ldr	ip, [fp, #-44]
   109a4:	1affff0c 	bne	105dc <.text+0x85dc>
   109a8:	e59f30ac 	ldr	r3, [pc, #172]	; 10a5c <.text+0x8a5c>
   109ac:	e1a01005 	mov	r1, r5
   109b0:	e5d30000 	ldrb	r0, [r3]
   109b4:	ebfffa94 	bl	f40c <route_to>
   109b8:	e59f20d0 	ldr	r2, [pc, #208]	; 10a90 <.text+0x8a90>
   109bc:	e59f30b8 	ldr	r3, [pc, #184]	; 10a7c <.text+0x8a7c>
   109c0:	e5921020 	ldr	r1, [r2, #32]
   109c4:	e59f20b4 	ldr	r2, [pc, #180]	; 10a80 <.text+0x8a80>
   109c8:	e5c36000 	strb	r6, [r3]
   109cc:	e59f30b0 	ldr	r3, [pc, #176]	; 10a84 <.text+0x8a84>
   109d0:	e5c24000 	strb	r4, [r2]
   109d4:	e5831000 	str	r1, [r3]
   109d8:	e59f20a8 	ldr	r2, [pc, #168]	; 10a88 <.text+0x8a88>
   109dc:	e59f30a8 	ldr	r3, [pc, #168]	; 10a8c <.text+0x8a8c>
   109e0:	e3a00000 	mov	r0, #0	; 0x0
   109e4:	e5820000 	str	r0, [r2]
   109e8:	e5830000 	str	r0, [r3]
   109ec:	e89daff8 	ldmia	sp, {r3, r4, r5, r6, r7, r8, r9, sl, fp, sp, pc}
   109f0:	e3a00001 	mov	r0, #1	; 0x1
   109f4:	e50bc02c 	str	ip, [fp, #-44]
   109f8:	ebfffa53 	bl	f34c <fly_to>
   109fc:	e59f108c 	ldr	r1, [pc, #140]	; 10a90 <.text+0x8a90>
   10a00:	e5910014 	ldr	r0, [r1, #20]
   10a04:	e59f3070 	ldr	r3, [pc, #112]	; 10a7c <.text+0x8a7c>
   10a08:	e51bc02c 	ldr	ip, [fp, #-44]
   10a0c:	e5c3c000 	strb	ip, [r3]
   10a10:	e3a0e000 	mov	lr, #0	; 0x0
   10a14:	e59f3064 	ldr	r3, [pc, #100]	; 10a80 <.text+0x8a80>
   10a18:	e59f2064 	ldr	r2, [pc, #100]	; 10a84 <.text+0x8a84>
   10a1c:	e3a01003 	mov	r1, #3	; 0x3
   10a20:	e5c31000 	strb	r1, [r3]
   10a24:	e5820000 	str	r0, [r2]
   10a28:	e59f3058 	ldr	r3, [pc, #88]	; 10a88 <.text+0x8a88>
   10a2c:	e59f2058 	ldr	r2, [pc, #88]	; 10a8c <.text+0x8a8c>
   10a30:	e583e000 	str	lr, [r3]
   10a34:	e582e000 	str	lr, [r2]
   10a38:	e89daff8 	ldmia	sp, {r3, r4, r5, r6, r7, r8, r9, sl, fp, sp, pc}
   10a3c:	c0340000 	eorgts	r0, r4, r0
	...
   10a4c:	00013798 	muleq	r1, r8, r7
   10a50:	0001379c 	muleq	r1, ip, r7
   10a54:	000137a0 	andeq	r3, r1, r0, lsr #15
   10a58:	00013b9e 	muleq	r1, lr, fp
   10a5c:	000137a4 	andeq	r3, r1, r4, lsr #15
   10a60:	00013bec 	andeq	r3, r1, ip, ror #23
   10a64:	00013b7c 	andeq	r3, r1, ip, ror fp
   10a68:	00013b84 	andeq	r3, r1, r4, lsl #23
   10a6c:	00013bd8 	ldreqd	r3, [r1], -r8
   10a70:	0001377c 	andeq	r3, r1, ip, ror r7
   10a74:	000137a8 	andeq	r3, r1, r8, lsr #15
   10a78:	00013b9c 	muleq	r1, ip, fp
   10a7c:	000135a1 	andeq	r3, r1, r1, lsr #11
   10a80:	000135a3 	andeq	r3, r1, r3, lsr #11
   10a84:	00013598 	muleq	r1, r8, r5
   10a88:	00013774 	andeq	r3, r1, r4, ror r7
   10a8c:	00013790 	muleq	r1, r0, r7
   10a90:	00013538 	andeq	r3, r1, r8, lsr r5
   10a94:	00013bc8 	andeq	r3, r1, r8, asr #23
   10a98:	40140000 	andmis	r0, r4, r0
   10a9c:	00000000 	andeq	r0, r0, r0
   10aa0:	40590000 	submis	r0, r9, r0
   10aa4:	00000000 	andeq	r0, r0, r0
   10aa8:	3ff921fb 	swicc	0x00f921fb
   10aac:	54442d18 	strplb	r2, [r4], #-3352
   10ab0:	400921fb 	strmid	r2, [r9], -fp
   10ab4:	54442d18 	strplb	r2, [r4], #-3352
   10ab8:	40668000 	rsbmi	r8, r6, r0
   10abc:	00000000 	andeq	r0, r0, r0
   10ac0:	e51f3050 	ldr	r3, [pc, #-80]	; 10a78 <.text+0x8a78>
   10ac4:	e3a00003 	mov	r0, #3	; 0x3
   10ac8:	e5c34000 	strb	r4, [r3]
   10acc:	e50bc02c 	str	ip, [fp, #-44]
   10ad0:	ebfff9c6 	bl	f1f0 <approaching>
   10ad4:	e21040ff 	ands	r4, r0, #255	; 0xff
   10ad8:	e51bc02c 	ldr	ip, [fp, #-44]
   10adc:	0a00019e 	beq	1115c <.text+0x915c>
   10ae0:	e51f1070 	ldr	r1, [pc, #-112]	; 10a78 <.text+0x8a78>
   10ae4:	e51f3080 	ldr	r3, [pc, #-128]	; 10a6c <.text+0x8a6c>
   10ae8:	e5d12000 	ldrb	r2, [r1]
   10aec:	e51f1094 	ldr	r1, [pc, #-148]	; 10a60 <.text+0x8a60>
   10af0:	e5930000 	ldr	r0, [r3]
   10af4:	e591e000 	ldr	lr, [r1]
   10af8:	e2822001 	add	r2, r2, #1	; 0x1
   10afc:	e3a01003 	mov	r1, #3	; 0x3
   10b00:	eaffff9b 	b	10974 <.text+0x8974>
   10b04:	e51f2094 	ldr	r2, [pc, #-148]	; 10a78 <.text+0x8a78>
   10b08:	e3a00004 	mov	r0, #4	; 0x4
   10b0c:	e5c24000 	strb	r4, [r2]
   10b10:	ebfff9b6 	bl	f1f0 <approaching>
   10b14:	e21040ff 	ands	r4, r0, #255	; 0xff
   10b18:	0a000197 	beq	1117c <.text+0x917c>
   10b1c:	e51f30ac 	ldr	r3, [pc, #-172]	; 10a78 <.text+0x8a78>
   10b20:	e5d32000 	ldrb	r2, [r3]
   10b24:	e51f30cc 	ldr	r3, [pc, #-204]	; 10a60 <.text+0x8a60>
   10b28:	e51f10c4 	ldr	r1, [pc, #-196]	; 10a6c <.text+0x8a6c>
   10b2c:	e593e000 	ldr	lr, [r3]
   10b30:	e51f30dc 	ldr	r3, [pc, #-220]	; 10a5c <.text+0x8a5c>
   10b34:	e5910000 	ldr	r0, [r1]
   10b38:	e3a01004 	mov	r1, #4	; 0x4
   10b3c:	e5c31000 	strb	r1, [r3]
   10b40:	e51f10d0 	ldr	r1, [pc, #-208]	; 10a78 <.text+0x8a78>
   10b44:	e2822001 	add	r2, r2, #1	; 0x1
   10b48:	e5c12000 	strb	r2, [r1]
   10b4c:	e51f3104 	ldr	r3, [pc, #-260]	; 10a50 <.text+0x8a50>
   10b50:	e51f2104 	ldr	r2, [pc, #-260]	; 10a54 <.text+0x8a54>
   10b54:	e5830000 	str	r0, [r3]
   10b58:	e51f3108 	ldr	r3, [pc, #-264]	; 10a58 <.text+0x8a58>
   10b5c:	e582e000 	str	lr, [r2]
   10b60:	e1c360b0 	strh	r6, [r3]
   10b64:	eafffead 	b	10620 <.text+0x8620>
   10b68:	e51f30f8 	ldr	r3, [pc, #-248]	; 10a78 <.text+0x8a78>
   10b6c:	e3a00005 	mov	r0, #5	; 0x5
   10b70:	e5c34000 	strb	r4, [r3]
   10b74:	ebfff99d 	bl	f1f0 <approaching>
   10b78:	e21040ff 	ands	r4, r0, #255	; 0xff
   10b7c:	0a000183 	beq	11190 <.text+0x9190>
   10b80:	e51f1110 	ldr	r1, [pc, #-272]	; 10a78 <.text+0x8a78>
   10b84:	e51f3120 	ldr	r3, [pc, #-288]	; 10a6c <.text+0x8a6c>
   10b88:	e5d12000 	ldrb	r2, [r1]
   10b8c:	e51f1134 	ldr	r1, [pc, #-308]	; 10a60 <.text+0x8a60>
   10b90:	e5930000 	ldr	r0, [r3]
   10b94:	e51f3140 	ldr	r3, [pc, #-320]	; 10a5c <.text+0x8a5c>
   10b98:	e591e000 	ldr	lr, [r1]
   10b9c:	e3a01005 	mov	r1, #5	; 0x5
   10ba0:	e5c31000 	strb	r1, [r3]
   10ba4:	e51f3134 	ldr	r3, [pc, #-308]	; 10a78 <.text+0x8a78>
   10ba8:	e2822001 	add	r2, r2, #1	; 0x1
   10bac:	e5c32000 	strb	r2, [r3]
   10bb0:	eaffffe5 	b	10b4c <.text+0x8b4c>
   10bb4:	e3a00004 	mov	r0, #4	; 0x4
   10bb8:	e50bc02c 	str	ip, [fp, #-44]
   10bbc:	ebfff9e2 	bl	f34c <fly_to>
   10bc0:	e51f2138 	ldr	r2, [pc, #-312]	; 10a90 <.text+0x8a90>
   10bc4:	e5920038 	ldr	r0, [r2, #56]
   10bc8:	eaffff8d 	b	10a04 <.text+0x8a04>
   10bcc:	e51f1144 	ldr	r1, [pc, #-324]	; 10a90 <.text+0x8a90>
   10bd0:	e591e014 	ldr	lr, [r1, #20]
   10bd4:	e5911010 	ldr	r1, [r1, #16]
   10bd8:	e5ca3000 	strb	r3, [sl]
   10bdc:	e51f3168 	ldr	r3, [pc, #-360]	; 10a7c <.text+0x8a7c>
   10be0:	e5c36000 	strb	r6, [r3]
   10be4:	e51f316c 	ldr	r3, [pc, #-364]	; 10a80 <.text+0x8a80>
   10be8:	e3a02003 	mov	r2, #3	; 0x3
   10bec:	e5c32000 	strb	r2, [r3]
   10bf0:	e51f2174 	ldr	r2, [pc, #-372]	; 10a84 <.text+0x8a84>
   10bf4:	e51f3174 	ldr	r3, [pc, #-372]	; 10a88 <.text+0x8a88>
   10bf8:	e582e000 	str	lr, [r2]
   10bfc:	e51f2178 	ldr	r2, [pc, #-376]	; 10a8c <.text+0x8a8c>
   10c00:	e3a04000 	mov	r4, #0	; 0x0
   10c04:	e5834000 	str	r4, [r3]
   10c08:	e5824000 	str	r4, [r2]
   10c0c:	e5c75000 	strb	r5, [r7]
   10c10:	e1a00008 	mov	r0, r8
   10c14:	eb000834 	bl	12cec <__subsf3>
   10c18:	eb000668 	bl	125c0 <__extendsfdf2>
   10c1c:	e51f2194 	ldr	r2, [pc, #-404]	; 10a90 <.text+0x8a90>
   10c20:	e1a05001 	mov	r5, r1
   10c24:	e1a04000 	mov	r4, r0
   10c28:	e592100c 	ldr	r1, [r2, #12]
   10c2c:	e1a00009 	mov	r0, r9
   10c30:	eb00082d 	bl	12cec <__subsf3>
   10c34:	eb000661 	bl	125c0 <__extendsfdf2>
   10c38:	e1a03001 	mov	r3, r1
   10c3c:	e1a02000 	mov	r2, r0
   10c40:	e1a01005 	mov	r1, r5
   10c44:	e1a00004 	mov	r0, r4
   10c48:	eb0004a2 	bl	11ed8 <pp_atan2>
   10c4c:	eb0007e8 	bl	12bf4 <__truncdfsf2>
   10c50:	eb00065a 	bl	125c0 <__extendsfdf2>
   10c54:	e51f31c8 	ldr	r3, [pc, #-456]	; 10a94 <.text+0x8a94>
   10c58:	e1a05001 	mov	r5, r1
   10c5c:	e1a04000 	mov	r4, r0
   10c60:	e3a014c2 	mov	r1, #-1040187392	; 0xc2000000
   10c64:	e5930000 	ldr	r0, [r3]
   10c68:	e2811732 	add	r1, r1, #13107200	; 0xc80000
   10c6c:	eb0008a4 	bl	12f04 <__mulsf3>
   10c70:	eb000652 	bl	125c0 <__extendsfdf2>
   10c74:	e1a03001 	mov	r3, r1
   10c78:	e1a02000 	mov	r2, r0
   10c7c:	e24f0f7b 	sub	r0, pc, #492	; 0x1ec
   10c80:	e8900003 	ldmia	r0, {r0, r1}
   10c84:	eb0006f6 	bl	12864 <__divdf3>
   10c88:	e1a03001 	mov	r3, r1
   10c8c:	e1a02000 	mov	r2, r0
   10c90:	e1a01005 	mov	r1, r5
   10c94:	e1a00004 	mov	r0, r4
   10c98:	eb00057a 	bl	12288 <__adddf3>
   10c9c:	eb0007d4 	bl	12bf4 <__truncdfsf2>
   10ca0:	e51f3218 	ldr	r3, [pc, #-536]	; 10a90 <.text+0x8a90>
   10ca4:	e1a04000 	mov	r4, r0
   10ca8:	e593000c 	ldr	r0, [r3, #12]
   10cac:	eb000643 	bl	125c0 <__extendsfdf2>
   10cb0:	e1a06001 	mov	r6, r1
   10cb4:	e1a05000 	mov	r5, r0
   10cb8:	e1a00004 	mov	r0, r4
   10cbc:	eb00063f 	bl	125c0 <__extendsfdf2>
   10cc0:	e24f2e22 	sub	r2, pc, #544	; 0x220
   10cc4:	e892000c 	ldmia	r2, {r2, r3}
   10cc8:	e1a08001 	mov	r8, r1
   10ccc:	e1a07000 	mov	r7, r0
   10cd0:	eb00056c 	bl	12288 <__adddf3>
   10cd4:	eb0004f3 	bl	120a8 <pp_sin>
   10cd8:	e24f2d09 	sub	r2, pc, #576	; 0x240
   10cdc:	e892000c 	ldmia	r2, {r2, r3}
   10ce0:	eb000649 	bl	1260c <__muldf3>
   10ce4:	e1a03001 	mov	r3, r1
   10ce8:	e1a02000 	mov	r2, r0
   10cec:	e1a01006 	mov	r1, r6
   10cf0:	e1a00005 	mov	r0, r5
   10cf4:	eb000563 	bl	12288 <__adddf3>
   10cf8:	eb0007bd 	bl	12bf4 <__truncdfsf2>
   10cfc:	e51f1274 	ldr	r1, [pc, #-628]	; 10a90 <.text+0x8a90>
   10d00:	e1a06000 	mov	r6, r0
   10d04:	e5910010 	ldr	r0, [r1, #16]
   10d08:	eb00062c 	bl	125c0 <__extendsfdf2>
   10d0c:	e1a05001 	mov	r5, r1
   10d10:	e1a04000 	mov	r4, r0
   10d14:	e1a01008 	mov	r1, r8
   10d18:	e1a00007 	mov	r0, r7
   10d1c:	eb0004e1 	bl	120a8 <pp_sin>
   10d20:	e24f2fa2 	sub	r2, pc, #648	; 0x288
   10d24:	e892000c 	ldmia	r2, {r2, r3}
   10d28:	eb000637 	bl	1260c <__muldf3>
   10d2c:	e1a03001 	mov	r3, r1
   10d30:	e1a02000 	mov	r2, r0
   10d34:	e1a01005 	mov	r1, r5
   10d38:	e1a00004 	mov	r0, r4
   10d3c:	eb000551 	bl	12288 <__adddf3>
   10d40:	eb0007ab 	bl	12bf4 <__truncdfsf2>
   10d44:	e51f22ec 	ldr	r2, [pc, #-748]	; 10a60 <.text+0x8a60>
   10d48:	e51f32ec 	ldr	r3, [pc, #-748]	; 10a64 <.text+0x8a64>
   10d4c:	e5921000 	ldr	r1, [r2]
   10d50:	e51f22f0 	ldr	r2, [pc, #-752]	; 10a68 <.text+0x8a68>
   10d54:	e1a0e000 	mov	lr, r0
   10d58:	e582e000 	str	lr, [r2]
   10d5c:	e5836000 	str	r6, [r3]
   10d60:	eb0007e1 	bl	12cec <__subsf3>
   10d64:	eb000615 	bl	125c0 <__extendsfdf2>
   10d68:	e51f3304 	ldr	r3, [pc, #-772]	; 10a6c <.text+0x8a6c>
   10d6c:	e1a05001 	mov	r5, r1
   10d70:	e1a04000 	mov	r4, r0
   10d74:	e5931000 	ldr	r1, [r3]
   10d78:	e1a00006 	mov	r0, r6
   10d7c:	eb0007da 	bl	12cec <__subsf3>
   10d80:	eb00060e 	bl	125c0 <__extendsfdf2>
   10d84:	e1a03001 	mov	r3, r1
   10d88:	e1a02000 	mov	r2, r0
   10d8c:	e1a01005 	mov	r1, r5
   10d90:	e1a00004 	mov	r0, r4
   10d94:	eb00044f 	bl	11ed8 <pp_atan2>
   10d98:	e1a03001 	mov	r3, r1
   10d9c:	e1a02000 	mov	r2, r0
   10da0:	e24f0c03 	sub	r0, pc, #768	; 0x300
   10da4:	e8900003 	ldmia	r0, {r0, r1}
   10da8:	eb000535 	bl	12284 <__subdf3>
   10dac:	eb000790 	bl	12bf4 <__truncdfsf2>
   10db0:	e51f3348 	ldr	r3, [pc, #-840]	; 10a70 <.text+0x8a70>
   10db4:	e5830000 	str	r0, [r3]
   10db8:	e1a03008 	mov	r3, r8
   10dbc:	e1a02007 	mov	r2, r7
   10dc0:	e24f0e32 	sub	r0, pc, #800	; 0x320
   10dc4:	e8900003 	ldmia	r0, {r0, r1}
   10dc8:	eb00052d 	bl	12284 <__subdf3>
   10dcc:	e24f2fc9 	sub	r2, pc, #804	; 0x324
   10dd0:	e892000c 	ldmia	r2, {r2, r3}
   10dd4:	eb0006a2 	bl	12864 <__divdf3>
   10dd8:	e24f2fca 	sub	r2, pc, #808	; 0x328
   10ddc:	e892000c 	ldmia	r2, {r2, r3}
   10de0:	eb000609 	bl	1260c <__muldf3>
   10de4:	eb000782 	bl	12bf4 <__truncdfsf2>
   10de8:	e51f637c 	ldr	r6, [pc, #-892]	; 10a74 <.text+0x8a74>
   10dec:	e5860000 	str	r0, [r6]
   10df0:	e1a05006 	mov	r5, r6
   10df4:	ea000001 	b	10e00 <.text+0x8e00>
   10df8:	eb0007bc 	bl	12cf0 <__addsf3>
   10dfc:	e5850000 	str	r0, [r5]
   10e00:	e5964000 	ldr	r4, [r6]
   10e04:	e3a01000 	mov	r1, #0	; 0x0
   10e08:	e1a00004 	mov	r0, r4
   10e0c:	eb00090a 	bl	1323c <__lesf2>
   10e10:	e3a01443 	mov	r1, #1124073472	; 0x43000000
   10e14:	e3500000 	cmp	r0, #0	; 0x0
   10e18:	e281172d 	add	r1, r1, #11796480	; 0xb40000
   10e1c:	e1a00004 	mov	r0, r4
   10e20:	bafffff4 	blt	10df8 <.text+0x8df8>
   10e24:	e51f53b8 	ldr	r5, [pc, #-952]	; 10a74 <.text+0x8a74>
   10e28:	ea000001 	b	10e34 <.text+0x8e34>
   10e2c:	eb0007ae 	bl	12cec <__subsf3>
   10e30:	e5850000 	str	r0, [r5]
   10e34:	e5964000 	ldr	r4, [r6]
   10e38:	e3a01443 	mov	r1, #1124073472	; 0x43000000
   10e3c:	e281172d 	add	r1, r1, #11796480	; 0xb40000
   10e40:	e1a00004 	mov	r0, r4
   10e44:	eb0008fa 	bl	13234 <__gesf2>
   10e48:	e3a01443 	mov	r1, #1124073472	; 0x43000000
   10e4c:	e3500000 	cmp	r0, #0	; 0x0
   10e50:	e281172d 	add	r1, r1, #11796480	; 0xb40000
   10e54:	e1a00004 	mov	r0, r4
   10e58:	aafffff3 	bge	10e2c <.text+0x8e2c>
   10e5c:	e3a01000 	mov	r1, #0	; 0x0
   10e60:	eb0008f3 	bl	13234 <__gesf2>
   10e64:	e3500000 	cmp	r0, #0	; 0x0
   10e68:	c3a01441 	movgt	r1, #1090519040	; 0x41000000
   10e6c:	c1a00004 	movgt	r0, r4
   10e70:	c2811602 	addgt	r1, r1, #2097152	; 0x200000
   10e74:	d89daff8 	ldmleia	sp, {r3, r4, r5, r6, r7, r8, r9, sl, fp, sp, pc}
   10e78:	eb0008ef 	bl	1323c <__lesf2>
   10e7c:	e3500000 	cmp	r0, #0	; 0x0
   10e80:	a89daff8 	ldmgeia	sp, {r3, r4, r5, r6, r7, r8, r9, sl, fp, sp, pc}
   10e84:	e51f1414 	ldr	r1, [pc, #-1044]	; 10a78 <.text+0x8a78>
   10e88:	e5d13000 	ldrb	r3, [r1]
   10e8c:	eafffcba 	b	1017c <.text+0x817c>
   10e90:	e3a00006 	mov	r0, #6	; 0x6
   10e94:	e50bc02c 	str	ip, [fp, #-44]
   10e98:	ebfff92b 	bl	f34c <fly_to>
   10e9c:	e51f2414 	ldr	r2, [pc, #-1044]	; 10a90 <.text+0x8a90>
   10ea0:	e5920050 	ldr	r0, [r2, #80]
   10ea4:	eafffed6 	b	10a04 <.text+0x8a04>
   10ea8:	e51f1420 	ldr	r1, [pc, #-1056]	; 10a90 <.text+0x8a90>
   10eac:	e591e038 	ldr	lr, [r1, #56]
   10eb0:	e5911034 	ldr	r1, [r1, #52]
   10eb4:	e5ca3000 	strb	r3, [sl]
   10eb8:	e51f3444 	ldr	r3, [pc, #-1092]	; 10a7c <.text+0x8a7c>
   10ebc:	e5c36000 	strb	r6, [r3]
   10ec0:	e51f3448 	ldr	r3, [pc, #-1096]	; 10a80 <.text+0x8a80>
   10ec4:	e3a02003 	mov	r2, #3	; 0x3
   10ec8:	e5c32000 	strb	r2, [r3]
   10ecc:	e51f2450 	ldr	r2, [pc, #-1104]	; 10a84 <.text+0x8a84>
   10ed0:	e51f3450 	ldr	r3, [pc, #-1104]	; 10a88 <.text+0x8a88>
   10ed4:	e582e000 	str	lr, [r2]
   10ed8:	e51f2454 	ldr	r2, [pc, #-1108]	; 10a8c <.text+0x8a8c>
   10edc:	e3a04000 	mov	r4, #0	; 0x0
   10ee0:	e5834000 	str	r4, [r3]
   10ee4:	e5824000 	str	r4, [r2]
   10ee8:	e5c75000 	strb	r5, [r7]
   10eec:	e1a00008 	mov	r0, r8
   10ef0:	eb00077d 	bl	12cec <__subsf3>
   10ef4:	eb0005b1 	bl	125c0 <__extendsfdf2>
   10ef8:	e51f2470 	ldr	r2, [pc, #-1136]	; 10a90 <.text+0x8a90>
   10efc:	e1a05001 	mov	r5, r1
   10f00:	e1a04000 	mov	r4, r0
   10f04:	e5921030 	ldr	r1, [r2, #48]
   10f08:	e1a00009 	mov	r0, r9
   10f0c:	eb000776 	bl	12cec <__subsf3>
   10f10:	eb0005aa 	bl	125c0 <__extendsfdf2>
   10f14:	e1a03001 	mov	r3, r1
   10f18:	e1a02000 	mov	r2, r0
   10f1c:	e1a01005 	mov	r1, r5
   10f20:	e1a00004 	mov	r0, r4
   10f24:	eb0003eb 	bl	11ed8 <pp_atan2>
   10f28:	eb000731 	bl	12bf4 <__truncdfsf2>
   10f2c:	eb0005a3 	bl	125c0 <__extendsfdf2>
   10f30:	e51f34a4 	ldr	r3, [pc, #-1188]	; 10a94 <.text+0x8a94>
   10f34:	e1a05001 	mov	r5, r1
   10f38:	e1a04000 	mov	r4, r0
   10f3c:	e3a014c2 	mov	r1, #-1040187392	; 0xc2000000
   10f40:	e5930000 	ldr	r0, [r3]
   10f44:	e2811732 	add	r1, r1, #13107200	; 0xc80000
   10f48:	eb0007ed 	bl	12f04 <__mulsf3>
   10f4c:	eb00059b 	bl	125c0 <__extendsfdf2>
   10f50:	e1a03001 	mov	r3, r1
   10f54:	e1a02000 	mov	r2, r0
   10f58:	e28f0f93 	add	r0, pc, #588	; 0x24c
   10f5c:	e8900003 	ldmia	r0, {r0, r1}
   10f60:	eb00063f 	bl	12864 <__divdf3>
   10f64:	e1a03001 	mov	r3, r1
   10f68:	e1a02000 	mov	r2, r0
   10f6c:	e1a01005 	mov	r1, r5
   10f70:	e1a00004 	mov	r0, r4
   10f74:	eb0004c3 	bl	12288 <__adddf3>
   10f78:	eb00071d 	bl	12bf4 <__truncdfsf2>
   10f7c:	e59f3250 	ldr	r3, [pc, #592]	; 111d4 <.text+0x91d4>
   10f80:	e1a04000 	mov	r4, r0
   10f84:	e5930030 	ldr	r0, [r3, #48]
   10f88:	eb00058c 	bl	125c0 <__extendsfdf2>
   10f8c:	e1a06001 	mov	r6, r1
   10f90:	e1a05000 	mov	r5, r0
   10f94:	e1a00004 	mov	r0, r4
   10f98:	eb000588 	bl	125c0 <__extendsfdf2>
   10f9c:	e28f2e21 	add	r2, pc, #528	; 0x210
   10fa0:	e892000c 	ldmia	r2, {r2, r3}
   10fa4:	e1a08001 	mov	r8, r1
   10fa8:	e1a07000 	mov	r7, r0
   10fac:	eb0004b5 	bl	12288 <__adddf3>
   10fb0:	eb00043c 	bl	120a8 <pp_sin>
   10fb4:	e28f2c02 	add	r2, pc, #512	; 0x200
   10fb8:	e892000c 	ldmia	r2, {r2, r3}
   10fbc:	eb000592 	bl	1260c <__muldf3>
   10fc0:	e1a03001 	mov	r3, r1
   10fc4:	e1a02000 	mov	r2, r0
   10fc8:	e1a01006 	mov	r1, r6
   10fcc:	e1a00005 	mov	r0, r5
   10fd0:	eb0004ac 	bl	12288 <__adddf3>
   10fd4:	eb000706 	bl	12bf4 <__truncdfsf2>
   10fd8:	e59f11f4 	ldr	r1, [pc, #500]	; 111d4 <.text+0x91d4>
   10fdc:	e1a06000 	mov	r6, r0
   10fe0:	e5910034 	ldr	r0, [r1, #52]
   10fe4:	eb000575 	bl	125c0 <__extendsfdf2>
   10fe8:	e1a05001 	mov	r5, r1
   10fec:	e1a04000 	mov	r4, r0
   10ff0:	e1a01008 	mov	r1, r8
   10ff4:	e1a00007 	mov	r0, r7
   10ff8:	eb00042a 	bl	120a8 <pp_sin>
   10ffc:	e28f2f6e 	add	r2, pc, #440	; 0x1b8
   11000:	e892000c 	ldmia	r2, {r2, r3}
   11004:	eb000580 	bl	1260c <__muldf3>
   11008:	e1a03001 	mov	r3, r1
   1100c:	e1a02000 	mov	r2, r0
   11010:	e1a01005 	mov	r1, r5
   11014:	e1a00004 	mov	r0, r4
   11018:	eb00049a 	bl	12288 <__adddf3>
   1101c:	eb0006f4 	bl	12bf4 <__truncdfsf2>
   11020:	e59f21b0 	ldr	r2, [pc, #432]	; 111d8 <.text+0x91d8>
   11024:	e59f31b0 	ldr	r3, [pc, #432]	; 111dc <.text+0x91dc>
   11028:	e5921000 	ldr	r1, [r2]
   1102c:	e59f21ac 	ldr	r2, [pc, #428]	; 111e0 <.text+0x91e0>
   11030:	e1a0e000 	mov	lr, r0
   11034:	e582e000 	str	lr, [r2]
   11038:	e5836000 	str	r6, [r3]
   1103c:	eb00072a 	bl	12cec <__subsf3>
   11040:	eb00055e 	bl	125c0 <__extendsfdf2>
   11044:	e59f3198 	ldr	r3, [pc, #408]	; 111e4 <.text+0x91e4>
   11048:	e1a05001 	mov	r5, r1
   1104c:	e1a04000 	mov	r4, r0
   11050:	e5931000 	ldr	r1, [r3]
   11054:	e1a00006 	mov	r0, r6
   11058:	eb000723 	bl	12cec <__subsf3>
   1105c:	eb000557 	bl	125c0 <__extendsfdf2>
   11060:	e1a03001 	mov	r3, r1
   11064:	e1a02000 	mov	r2, r0
   11068:	e1a01005 	mov	r1, r5
   1106c:	e1a00004 	mov	r0, r4
   11070:	eb000398 	bl	11ed8 <pp_atan2>
   11074:	e1a03001 	mov	r3, r1
   11078:	e1a02000 	mov	r2, r0
   1107c:	e28f0e13 	add	r0, pc, #304	; 0x130
   11080:	e8900003 	ldmia	r0, {r0, r1}
   11084:	eb00047e 	bl	12284 <__subdf3>
   11088:	eb0006d9 	bl	12bf4 <__truncdfsf2>
   1108c:	e59f3154 	ldr	r3, [pc, #340]	; 111e8 <.text+0x91e8>
   11090:	e5830000 	str	r0, [r3]
   11094:	e1a03008 	mov	r3, r8
   11098:	e1a02007 	mov	r2, r7
   1109c:	e28f0e11 	add	r0, pc, #272	; 0x110
   110a0:	e8900003 	ldmia	r0, {r0, r1}
   110a4:	eb000476 	bl	12284 <__subdf3>
   110a8:	e28f2f45 	add	r2, pc, #276	; 0x114
   110ac:	e892000c 	ldmia	r2, {r2, r3}
   110b0:	eb0005eb 	bl	12864 <__divdf3>
   110b4:	e28f2e11 	add	r2, pc, #272	; 0x110
   110b8:	e892000c 	ldmia	r2, {r2, r3}
   110bc:	eb000552 	bl	1260c <__muldf3>
   110c0:	eb0006cb 	bl	12bf4 <__truncdfsf2>
   110c4:	e59f6120 	ldr	r6, [pc, #288]	; 111ec <.text+0x91ec>
   110c8:	e5860000 	str	r0, [r6]
   110cc:	e1a05006 	mov	r5, r6
   110d0:	ea000001 	b	110dc <.text+0x90dc>
   110d4:	eb000705 	bl	12cf0 <__addsf3>
   110d8:	e5850000 	str	r0, [r5]
   110dc:	e5964000 	ldr	r4, [r6]
   110e0:	e3a01000 	mov	r1, #0	; 0x0
   110e4:	e1a00004 	mov	r0, r4
   110e8:	eb000853 	bl	1323c <__lesf2>
   110ec:	e3a01443 	mov	r1, #1124073472	; 0x43000000
   110f0:	e3500000 	cmp	r0, #0	; 0x0
   110f4:	e281172d 	add	r1, r1, #11796480	; 0xb40000
   110f8:	e1a00004 	mov	r0, r4
   110fc:	bafffff4 	blt	110d4 <.text+0x90d4>
   11100:	e59f50e4 	ldr	r5, [pc, #228]	; 111ec <.text+0x91ec>
   11104:	ea000001 	b	11110 <.text+0x9110>
   11108:	eb0006f7 	bl	12cec <__subsf3>
   1110c:	e5850000 	str	r0, [r5]
   11110:	e5964000 	ldr	r4, [r6]
   11114:	e3a01443 	mov	r1, #1124073472	; 0x43000000
   11118:	e281172d 	add	r1, r1, #11796480	; 0xb40000
   1111c:	e1a00004 	mov	r0, r4
   11120:	eb000843 	bl	13234 <__gesf2>
   11124:	e3a01443 	mov	r1, #1124073472	; 0x43000000
   11128:	e3500000 	cmp	r0, #0	; 0x0
   1112c:	e281172d 	add	r1, r1, #11796480	; 0xb40000
   11130:	e1a00004 	mov	r0, r4
   11134:	aafffff3 	bge	11108 <.text+0x9108>
   11138:	e3a01443 	mov	r1, #1124073472	; 0x43000000
   1113c:	e281170d 	add	r1, r1, #3407872	; 0x340000
   11140:	eb00083b 	bl	13234 <__gesf2>
   11144:	e3500000 	cmp	r0, #0	; 0x0
   11148:	d89daff8 	ldmleia	sp, {r3, r4, r5, r6, r7, r8, r9, sl, fp, sp, pc}
   1114c:	e3a01443 	mov	r1, #1124073472	; 0x43000000
   11150:	e1a00004 	mov	r0, r4
   11154:	e281183e 	add	r1, r1, #4063232	; 0x3e0000
   11158:	eaffff46 	b	10e78 <.text+0x8e78>
   1115c:	e3a00003 	mov	r0, #3	; 0x3
   11160:	ebfff879 	bl	f34c <fly_to>
   11164:	e59f1068 	ldr	r1, [pc, #104]	; 111d4 <.text+0x91d4>
   11168:	e591002c 	ldr	r0, [r1, #44]
   1116c:	e59f307c 	ldr	r3, [pc, #124]	; 111f0 <.text+0x91f0>
   11170:	e3a0e000 	mov	lr, #0	; 0x0
   11174:	e5c34000 	strb	r4, [r3]
   11178:	eafffe25 	b	10a14 <.text+0x8a14>
   1117c:	e3a00004 	mov	r0, #4	; 0x4
   11180:	ebfff871 	bl	f34c <fly_to>
   11184:	e59f2048 	ldr	r2, [pc, #72]	; 111d4 <.text+0x91d4>
   11188:	e5920038 	ldr	r0, [r2, #56]
   1118c:	eafffff6 	b	1116c <.text+0x916c>
   11190:	e59f305c 	ldr	r3, [pc, #92]	; 111f4 <.text+0x91f4>
   11194:	e3a01005 	mov	r1, #5	; 0x5
   11198:	e5d30000 	ldrb	r0, [r3]
   1119c:	ebfff89a 	bl	f40c <route_to>
   111a0:	e59f102c 	ldr	r1, [pc, #44]	; 111d4 <.text+0x91d4>
   111a4:	e5910044 	ldr	r0, [r1, #68]
   111a8:	eaffffef 	b	1116c <.text+0x916c>
   111ac:	40140000 	andmis	r0, r4, r0
   111b0:	00000000 	andeq	r0, r0, r0
   111b4:	3ff921fb 	swicc	0x00f921fb
   111b8:	54442d18 	strplb	r2, [r4], #-3352
   111bc:	40590000 	submis	r0, r9, r0
   111c0:	00000000 	andeq	r0, r0, r0
   111c4:	400921fb 	strmid	r2, [r9], -fp
   111c8:	54442d18 	strplb	r2, [r4], #-3352
   111cc:	40668000 	rsbmi	r8, r6, r0
   111d0:	00000000 	andeq	r0, r0, r0
   111d4:	00013538 	andeq	r3, r1, r8, lsr r5
   111d8:	00013bec 	andeq	r3, r1, ip, ror #23
   111dc:	00013b7c 	andeq	r3, r1, ip, ror fp
   111e0:	00013b84 	andeq	r3, r1, r4, lsl #23
   111e4:	00013bd8 	ldreqd	r3, [r1], -r8
   111e8:	0001377c 	andeq	r3, r1, ip, ror r7
   111ec:	000137a8 	andeq	r3, r1, r8, lsr #15
   111f0:	000135a1 	andeq	r3, r1, r1, lsr #11
   111f4:	000137a4 	andeq	r3, r1, r4, lsr #15

000111f8 <nav_init>:
   111f8:	e59f2010 	ldr	r2, [pc, #16]	; 11210 <.text+0x9210>
   111fc:	e59f1010 	ldr	r1, [pc, #16]	; 11214 <.text+0x9214>
   11200:	e3a03000 	mov	r3, #0	; 0x0
   11204:	e5c23000 	strb	r3, [r2]
   11208:	e5c13000 	strb	r3, [r1]
   1120c:	e1a0f00e 	mov	pc, lr
   11210:	00013b9c 	muleq	r1, ip, fp
   11214:	00013b90 	muleq	r1, r0, fp

00011218 <uart0_transmit>:
   11218:	e52de004 	str	lr, [sp, #-4]!
   1121c:	e3a0102a 	mov	r1, #42	; 0x2a
   11220:	e5d13000 	ldrb	r3, [r1]
   11224:	e3130040 	tst	r3, #64	; 0x40
   11228:	e59fe048 	ldr	lr, [pc, #72]	; 11278 <.text+0x9278>
   1122c:	e20000ff 	and	r0, r0, #255	; 0xff
   11230:	0a00000a 	beq	11260 <uart0_transmit+0x48>
   11234:	e5de2000 	ldrb	r2, [lr]
   11238:	e59f303c 	ldr	r3, [pc, #60]	; 1127c <.text+0x927c>
   1123c:	e202c0ff 	and	ip, r2, #255	; 0xff
   11240:	e5d31000 	ldrb	r1, [r3]
   11244:	e28c3001 	add	r3, ip, #1	; 0x1
   11248:	e1510003 	cmp	r1, r3
   1124c:	159f302c 	ldrne	r3, [pc, #44]	; 11280 <.text+0x9280>
   11250:	e2822001 	add	r2, r2, #1	; 0x1
   11254:	17c3000c 	strneb	r0, [r3, ip]
   11258:	15ce2000 	strneb	r2, [lr]
   1125c:	e49df004 	ldr	pc, [sp], #4
   11260:	e3a0202c 	mov	r2, #44	; 0x2c
   11264:	e5c20000 	strb	r0, [r2]
   11268:	e5d13000 	ldrb	r3, [r1]
   1126c:	e3833040 	orr	r3, r3, #64	; 0x40
   11270:	e5c13000 	strb	r3, [r1]
   11274:	e49df004 	ldr	pc, [sp], #4
   11278:	000137b8 	streqh	r3, [r1], -r8
   1127c:	000137b9 	streqh	r3, [r1], -r9
   11280:	000137ba 	streqh	r3, [r1], -sl

00011284 <uart1_transmit>:
   11284:	e52de004 	str	lr, [sp, #-4]!
   11288:	e3a0109a 	mov	r1, #154	; 0x9a
   1128c:	e5d13000 	ldrb	r3, [r1]
   11290:	e3130040 	tst	r3, #64	; 0x40
   11294:	e59fe048 	ldr	lr, [pc, #72]	; 112e4 <.text+0x92e4>
   11298:	e20000ff 	and	r0, r0, #255	; 0xff
   1129c:	0a00000a 	beq	112cc <uart1_transmit+0x48>
   112a0:	e5de2000 	ldrb	r2, [lr]
   112a4:	e59f303c 	ldr	r3, [pc, #60]	; 112e8 <.text+0x92e8>
   112a8:	e202c0ff 	and	ip, r2, #255	; 0xff
   112ac:	e5d31000 	ldrb	r1, [r3]
   112b0:	e28c3001 	add	r3, ip, #1	; 0x1
   112b4:	e1510003 	cmp	r1, r3
   112b8:	159f302c 	ldrne	r3, [pc, #44]	; 112ec <.text+0x92ec>
   112bc:	e2822001 	add	r2, r2, #1	; 0x1
   112c0:	17c3000c 	strneb	r0, [r3, ip]
   112c4:	15ce2000 	strneb	r2, [lr]
   112c8:	e49df004 	ldr	pc, [sp], #4
   112cc:	e3a0209c 	mov	r2, #156	; 0x9c
   112d0:	e5c20000 	strb	r0, [r2]
   112d4:	e5d13000 	ldrb	r3, [r1]
   112d8:	e3833040 	orr	r3, r3, #64	; 0x40
   112dc:	e5c13000 	strb	r3, [r1]
   112e0:	e49df004 	ldr	pc, [sp], #4
   112e4:	000138ba 	streqh	r3, [r1], -sl
   112e8:	000138bb 	streqh	r3, [r1], -fp
   112ec:	000138bc 	streqh	r3, [r1], -ip

000112f0 <uart0_print_string>:
   112f0:	e1a0c00d 	mov	ip, sp
   112f4:	e92dd830 	stmdb	sp!, {r4, r5, fp, ip, lr, pc}
   112f8:	e1a05000 	mov	r5, r0
   112fc:	e5d00000 	ldrb	r0, [r0]
   11300:	e3500000 	cmp	r0, #0	; 0x0
   11304:	e24cb004 	sub	fp, ip, #4	; 0x4
   11308:	e3a04000 	mov	r4, #0	; 0x0
   1130c:	089da830 	ldmeqia	sp, {r4, r5, fp, sp, pc}
   11310:	ebffffc0 	bl	11218 <uart0_transmit>
   11314:	e2843001 	add	r3, r4, #1	; 0x1
   11318:	e20340ff 	and	r4, r3, #255	; 0xff
   1131c:	e7d40005 	ldrb	r0, [r4, r5]
   11320:	e3500000 	cmp	r0, #0	; 0x0
   11324:	1afffff9 	bne	11310 <uart0_print_string+0x20>
   11328:	e89da830 	ldmia	sp, {r4, r5, fp, sp, pc}

0001132c <uart0_print_hex>:
   1132c:	e1a0c00d 	mov	ip, sp
   11330:	e92dd810 	stmdb	sp!, {r4, fp, ip, lr, pc}
   11334:	e24cb004 	sub	fp, ip, #4	; 0x4
   11338:	e24dd010 	sub	sp, sp, #16	; 0x10
   1133c:	e1a04000 	mov	r4, r0
   11340:	e59f1038 	ldr	r1, [pc, #56]	; 11380 <.text+0x9380>
   11344:	e3a02010 	mov	r2, #16	; 0x10
   11348:	e24b0020 	sub	r0, fp, #32	; 0x20
   1134c:	eb0007f9 	bl	13338 <memcpy>
   11350:	e20430f0 	and	r3, r4, #240	; 0xf0
   11354:	e24b1010 	sub	r1, fp, #16	; 0x10
   11358:	e0812223 	add	r2, r1, r3, lsr #4
   1135c:	e5520010 	ldrb	r0, [r2, #-16]
   11360:	ebffffac 	bl	11218 <uart0_transmit>
   11364:	e204400f 	and	r4, r4, #15	; 0xf
   11368:	e24b2010 	sub	r2, fp, #16	; 0x10
   1136c:	e0823004 	add	r3, r2, r4
   11370:	e5530010 	ldrb	r0, [r3, #-16]
   11374:	ebffffa7 	bl	11218 <uart0_transmit>
   11378:	e24bd010 	sub	sp, fp, #16	; 0x10
   1137c:	e89da810 	ldmia	sp, {r4, fp, sp, pc}
   11380:	000133e8 	andeq	r3, r1, r8, ror #7

00011384 <__vector_20>:
   11384:	e59f3044 	ldr	r3, [pc, #68]	; 113d0 <.text+0x93d0>
   11388:	e59fc044 	ldr	ip, [pc, #68]	; 113d4 <.text+0x93d4>
   1138c:	e5d31000 	ldrb	r1, [r3]
   11390:	e5dc2000 	ldrb	r2, [ip]
   11394:	e3a0002a 	mov	r0, #42	; 0x2a
   11398:	e1510002 	cmp	r1, r2
   1139c:	05d03000 	ldreqb	r3, [r0]
   113a0:	03c33040 	biceq	r3, r3, #64	; 0x40
   113a4:	05c03000 	streqb	r3, [r0]
   113a8:	01a0f00e 	moveq	pc, lr
   113ac:	e5dc1000 	ldrb	r1, [ip]
   113b0:	e59f3020 	ldr	r3, [pc, #32]	; 113d8 <.text+0x93d8>
   113b4:	e7d30001 	ldrb	r0, [r3, r1]
   113b8:	e3a0202c 	mov	r2, #44	; 0x2c
   113bc:	e5c20000 	strb	r0, [r2]
   113c0:	e5dc3000 	ldrb	r3, [ip]
   113c4:	e2833001 	add	r3, r3, #1	; 0x1
   113c8:	e5cc3000 	strb	r3, [ip]
   113cc:	e1a0f00e 	mov	pc, lr
   113d0:	000137b8 	streqh	r3, [r1], -r8
   113d4:	000137b9 	streqh	r3, [r1], -r9
   113d8:	000137ba 	streqh	r3, [r1], -sl

000113dc <__vector_32>:
   113dc:	e59f3044 	ldr	r3, [pc, #68]	; 11428 <.text+0x9428>
   113e0:	e59fc044 	ldr	ip, [pc, #68]	; 1142c <.text+0x942c>
   113e4:	e5d31000 	ldrb	r1, [r3]
   113e8:	e5dc2000 	ldrb	r2, [ip]
   113ec:	e3a0009a 	mov	r0, #154	; 0x9a
   113f0:	e1510002 	cmp	r1, r2
   113f4:	05d03000 	ldreqb	r3, [r0]
   113f8:	03c33040 	biceq	r3, r3, #64	; 0x40
   113fc:	05c03000 	streqb	r3, [r0]
   11400:	01a0f00e 	moveq	pc, lr
   11404:	e5dc1000 	ldrb	r1, [ip]
   11408:	e59f3020 	ldr	r3, [pc, #32]	; 11430 <.text+0x9430>
   1140c:	e7d30001 	ldrb	r0, [r3, r1]
   11410:	e3a0209c 	mov	r2, #156	; 0x9c
   11414:	e5c20000 	strb	r0, [r2]
   11418:	e5dc3000 	ldrb	r3, [ip]
   1141c:	e2833001 	add	r3, r3, #1	; 0x1
   11420:	e5cc3000 	strb	r3, [ip]
   11424:	e1a0f00e 	mov	pc, lr
   11428:	000138ba 	streqh	r3, [r1], -sl
   1142c:	000138bb 	streqh	r3, [r1], -fp
   11430:	000138bc 	streqh	r3, [r1], -ip

00011434 <uart0_init>:
   11434:	e3a0c000 	mov	ip, #0	; 0x0
   11438:	e3a03090 	mov	r3, #144	; 0x90
   1143c:	e5c3c000 	strb	ip, [r3]
   11440:	e3a01019 	mov	r1, #25	; 0x19
   11444:	e2433067 	sub	r3, r3, #103	; 0x67
   11448:	e3a0202b 	mov	r2, #43	; 0x2b
   1144c:	e5c31000 	strb	r1, [r3]
   11450:	e3a0002a 	mov	r0, #42	; 0x2a
   11454:	e5c2c000 	strb	ip, [r2]
   11458:	e2433011 	sub	r3, r3, #17	; 0x11
   1145c:	e2411013 	sub	r1, r1, #19	; 0x13
   11460:	e282206a 	add	r2, r2, #106	; 0x6a
   11464:	e5c03000 	strb	r3, [r0]
   11468:	e5c21000 	strb	r1, [r2]
   1146c:	e5d03000 	ldrb	r3, [r0]
   11470:	e1e03c83 	mvn	r3, r3, lsl #25
   11474:	e1e03ca3 	mvn	r3, r3, lsr #25
   11478:	e5c03000 	strb	r3, [r0]
   1147c:	e1a0f00e 	mov	pc, lr

00011480 <uart1_init>:
   11480:	e3a0c000 	mov	ip, #0	; 0x0
   11484:	e3a03098 	mov	r3, #152	; 0x98
   11488:	e5c3c000 	strb	ip, [r3]
   1148c:	e3a01019 	mov	r1, #25	; 0x19
   11490:	e2833001 	add	r3, r3, #1	; 0x1
   11494:	e3a0209b 	mov	r2, #155	; 0x9b
   11498:	e5c31000 	strb	r1, [r3]
   1149c:	e3a0009a 	mov	r0, #154	; 0x9a
   114a0:	e5c2c000 	strb	ip, [r2]
   114a4:	e2433081 	sub	r3, r3, #129	; 0x81
   114a8:	e2411013 	sub	r1, r1, #19	; 0x13
   114ac:	e2822002 	add	r2, r2, #2	; 0x2
   114b0:	e5c03000 	strb	r3, [r0]
   114b4:	e5c21000 	strb	r1, [r2]
   114b8:	e5d03000 	ldrb	r3, [r0]
   114bc:	e1e03c83 	mvn	r3, r3, lsl #25
   114c0:	e1e03ca3 	mvn	r3, r3, lsr #25
   114c4:	e5c03000 	strb	r3, [r0]
   114c8:	e1a0f00e 	mov	pc, lr

000114cc <estimator_init>:
   114cc:	e59f307c 	ldr	r3, [pc, #124]	; 11550 <.text+0x9550>
   114d0:	e5930000 	ldr	r0, [r3]
   114d4:	e59f3078 	ldr	r3, [pc, #120]	; 11554 <.text+0x9554>
   114d8:	e3a01000 	mov	r1, #0	; 0x0
   114dc:	e59f2074 	ldr	r2, [pc, #116]	; 11558 <.text+0x9558>
   114e0:	e5831000 	str	r1, [r3]
   114e4:	e59f3070 	ldr	r3, [pc, #112]	; 1155c <.text+0x955c>
   114e8:	e5820000 	str	r0, [r2]
   114ec:	e59f206c 	ldr	r2, [pc, #108]	; 11560 <.text+0x9560>
   114f0:	e5831000 	str	r1, [r3]
   114f4:	e59f3068 	ldr	r3, [pc, #104]	; 11564 <.text+0x9564>
   114f8:	e5821000 	str	r1, [r2]
   114fc:	e59f2064 	ldr	r2, [pc, #100]	; 11568 <.text+0x9568>
   11500:	e5831000 	str	r1, [r3]
   11504:	e59f3060 	ldr	r3, [pc, #96]	; 1156c <.text+0x956c>
   11508:	e5821000 	str	r1, [r2]
   1150c:	e59f205c 	ldr	r2, [pc, #92]	; 11570 <.text+0x9570>
   11510:	e5831000 	str	r1, [r3]
   11514:	e59f3058 	ldr	r3, [pc, #88]	; 11574 <.text+0x9574>
   11518:	e5821000 	str	r1, [r2]
   1151c:	e59f2054 	ldr	r2, [pc, #84]	; 11578 <.text+0x9578>
   11520:	e5831000 	str	r1, [r3]
   11524:	e59f3050 	ldr	r3, [pc, #80]	; 1157c <.text+0x957c>
   11528:	e5821000 	str	r1, [r2]
   1152c:	e59f204c 	ldr	r2, [pc, #76]	; 11580 <.text+0x9580>
   11530:	e5831000 	str	r1, [r3]
   11534:	e59f3048 	ldr	r3, [pc, #72]	; 11584 <.text+0x9584>
   11538:	e5821000 	str	r1, [r2]
   1153c:	e59f2044 	ldr	r2, [pc, #68]	; 11588 <.text+0x9588>
   11540:	e5831000 	str	r1, [r3]
   11544:	e3a03000 	mov	r3, #0	; 0x0
   11548:	e1c230b0 	strh	r3, [r2]
   1154c:	e1a0f00e 	mov	pc, lr
   11550:	00013504 	andeq	r3, r1, r4, lsl #10
   11554:	00013be8 	andeq	r3, r1, r8, ror #23
   11558:	00013bbc 	streqh	r3, [r1], -ip
   1155c:	00013bd8 	ldreqd	r3, [r1], -r8
   11560:	00013bec 	andeq	r3, r1, ip, ror #23
   11564:	00013bb4 	streqh	r3, [r1], -r4
   11568:	00013bcc 	andeq	r3, r1, ip, asr #23
   1156c:	00013bb0 	streqh	r3, [r1], -r0
   11570:	00013bc0 	andeq	r3, r1, r0, asr #23
   11574:	00013bc8 	andeq	r3, r1, r8, asr #23
   11578:	00013be0 	andeq	r3, r1, r0, ror #23
   1157c:	00013ba4 	andeq	r3, r1, r4, lsr #23
   11580:	00013bd0 	ldreqd	r3, [r1], -r0
   11584:	00013bac 	andeq	r3, r1, ip, lsr #23
   11588:	00013ba8 	andeq	r3, r1, r8, lsr #23

0001158c <estimator_update_state_infrared>:
   1158c:	e1a0c00d 	mov	ip, sp
   11590:	e92dd810 	stmdb	sp!, {r4, fp, ip, lr, pc}
   11594:	e59f3050 	ldr	r3, [pc, #80]	; 115ec <.text+0x95ec>
   11598:	e5d32000 	ldrb	r2, [r3]
   1159c:	e3520001 	cmp	r2, #1	; 0x1
   115a0:	059f3048 	ldreq	r3, [pc, #72]	; 115f0 <.text+0x95f0>
   115a4:	159f3048 	ldrne	r3, [pc, #72]	; 115f4 <.text+0x95f4>
   115a8:	e5934000 	ldr	r4, [r3]
   115ac:	e59f3044 	ldr	r3, [pc, #68]	; 115f8 <.text+0x95f8>
   115b0:	e24cb004 	sub	fp, ip, #4	; 0x4
   115b4:	e1d300f0 	ldrsh	r0, [r3]
   115b8:	eb00063e 	bl	12eb8 <__floatsisf>
   115bc:	e1a01004 	mov	r1, r4
   115c0:	eb00064f 	bl	12f04 <__mulsf3>
   115c4:	e59f3030 	ldr	r3, [pc, #48]	; 115fc <.text+0x95fc>
   115c8:	e59f2030 	ldr	r2, [pc, #48]	; 11600 <.text+0x9600>
   115cc:	e5830000 	str	r0, [r3]
   115d0:	e1d200f0 	ldrsh	r0, [r2]
   115d4:	eb000637 	bl	12eb8 <__floatsisf>
   115d8:	e1a01004 	mov	r1, r4
   115dc:	eb000648 	bl	12f04 <__mulsf3>
   115e0:	e59f301c 	ldr	r3, [pc, #28]	; 11604 <.text+0x9604>
   115e4:	e5830000 	str	r0, [r3]
   115e8:	e89da810 	ldmia	sp, {r4, fp, sp, pc}
   115ec:	00013500 	andeq	r3, r1, r0, lsl #10
   115f0:	00013bbc 	streqh	r3, [r1], -ip
   115f4:	00013504 	andeq	r3, r1, r4, lsl #10
   115f8:	00013b6e 	andeq	r3, r1, lr, ror #22
   115fc:	00013bcc 	andeq	r3, r1, ip, asr #23
   11600:	00013b6c 	andeq	r3, r1, ip, ror #22
   11604:	00013bc0 	andeq	r3, r1, r0, asr #23

00011608 <estimator_update_ir_estim>:
   11608:	e1a0c00d 	mov	ip, sp
   1160c:	e92ddff0 	stmdb	sp!, {r4, r5, r6, r7, r8, r9, sl, fp, ip, lr, pc}
   11610:	e59f13b8 	ldr	r1, [pc, #952]	; 119d0 <.text+0x99d0>
   11614:	e5d13000 	ldrb	r3, [r1]
   11618:	e3530000 	cmp	r3, #0	; 0x0
   1161c:	e24cb004 	sub	fp, ip, #4	; 0x4
   11620:	0a000021 	beq	116ac <estimator_update_ir_estim+0xa4>
   11624:	e59fa3a8 	ldr	sl, [pc, #936]	; 119d4 <.text+0x99d4>
   11628:	e59f93a8 	ldr	r9, [pc, #936]	; 119d8 <.text+0x99d8>
   1162c:	e59a0000 	ldr	r0, [sl]
   11630:	e5991000 	ldr	r1, [r9]
   11634:	eb0005ac 	bl	12cec <__subsf3>
   11638:	e1a07000 	mov	r7, r0
   1163c:	eb0003df 	bl	125c0 <__extendsfdf2>
   11640:	e28f2d0d 	add	r2, pc, #832	; 0x340
   11644:	e892000c 	ldmia	r2, {r2, r3}
   11648:	eb000520 	bl	12ad0 <__gedf2>
   1164c:	e3500000 	cmp	r0, #0	; 0x0
   11650:	da000037 	ble	11734 <estimator_update_ir_estim+0x12c>
   11654:	e59f1380 	ldr	r1, [pc, #896]	; 119dc <.text+0x99dc>
   11658:	e59f2380 	ldr	r2, [pc, #896]	; 119e0 <.text+0x99e0>
   1165c:	e5910000 	ldr	r0, [r1]
   11660:	e5921000 	ldr	r1, [r2]
   11664:	eb0005a0 	bl	12cec <__subsf3>
   11668:	ea000001 	b	11674 <estimator_update_ir_estim+0x6c>
   1166c:	eb000304 	bl	12284 <__subdf3>
   11670:	eb00055f 	bl	12bf4 <__truncdfsf2>
   11674:	e1a06000 	mov	r6, r0
   11678:	eb0003d0 	bl	125c0 <__extendsfdf2>
   1167c:	e28f2fc3 	add	r2, pc, #780	; 0x30c
   11680:	e892000c 	ldmia	r2, {r2, r3}
   11684:	e1a05001 	mov	r5, r1
   11688:	e1a04000 	mov	r4, r0
   1168c:	eb00050f 	bl	12ad0 <__gedf2>
   11690:	e3500000 	cmp	r0, #0	; 0x0
   11694:	e28f2fbf 	add	r2, pc, #764	; 0x2fc
   11698:	e892000c 	ldmia	r2, {r2, r3}
   1169c:	e1a01005 	mov	r1, r5
   116a0:	e1a00004 	mov	r0, r4
   116a4:	cafffff0 	bgt	1166c <estimator_update_ir_estim+0x64>
   116a8:	ea00002b 	b	1175c <estimator_update_ir_estim+0x154>
   116ac:	e59f3330 	ldr	r3, [pc, #816]	; 119e4 <.text+0x99e4>
   116b0:	e3a02001 	mov	r2, #1	; 0x1
   116b4:	e5c12000 	strb	r2, [r1]
   116b8:	e1d300f0 	ldrsh	r0, [r3]
   116bc:	eb0005fd 	bl	12eb8 <__floatsisf>
   116c0:	e1a01000 	mov	r1, r0
   116c4:	eb00060e 	bl	12f04 <__mulsf3>
   116c8:	e59f3318 	ldr	r3, [pc, #792]	; 119e8 <.text+0x99e8>
   116cc:	e1a06000 	mov	r6, r0
   116d0:	e5930000 	ldr	r0, [r3]
   116d4:	eb0003b9 	bl	125c0 <__extendsfdf2>
   116d8:	e28f2d0b 	add	r2, pc, #704	; 0x2c0
   116dc:	e892000c 	ldmia	r2, {r2, r3}
   116e0:	eb0003c9 	bl	1260c <__muldf3>
   116e4:	e1a05001 	mov	r5, r1
   116e8:	e1a04000 	mov	r4, r0
   116ec:	e1a00006 	mov	r0, r6
   116f0:	eb0003b2 	bl	125c0 <__extendsfdf2>
   116f4:	e1a03001 	mov	r3, r1
   116f8:	e1a02000 	mov	r2, r0
   116fc:	e1a01005 	mov	r1, r5
   11700:	e1a00004 	mov	r0, r4
   11704:	eb0003c0 	bl	1260c <__muldf3>
   11708:	eb000539 	bl	12bf4 <__truncdfsf2>
   1170c:	e59f32d8 	ldr	r3, [pc, #728]	; 119ec <.text+0x99ec>
   11710:	e3a01442 	mov	r1, #1107296256	; 0x42000000
   11714:	e5830000 	str	r0, [r3]
   11718:	e2811732 	add	r1, r1, #13107200	; 0xc80000
   1171c:	e1a00006 	mov	r0, r6
   11720:	eb0005f7 	bl	12f04 <__mulsf3>
   11724:	e59fa2a8 	ldr	sl, [pc, #680]	; 119d4 <.text+0x99d4>
   11728:	e59f92a8 	ldr	r9, [pc, #680]	; 119d8 <.text+0x99d8>
   1172c:	e59f32bc 	ldr	r3, [pc, #700]	; 119f0 <.text+0x99f0>
   11730:	e5830000 	str	r0, [r3]
   11734:	e59f12a0 	ldr	r1, [pc, #672]	; 119dc <.text+0x99dc>
   11738:	e59a2000 	ldr	r2, [sl]
   1173c:	e5913000 	ldr	r3, [r1]
   11740:	e59f1298 	ldr	r1, [pc, #664]	; 119e0 <.text+0x99e0>
   11744:	e5892000 	str	r2, [r9]
   11748:	e5813000 	str	r3, [r1]
   1174c:	e89daff0 	ldmia	sp, {r4, r5, r6, r7, r8, r9, sl, fp, sp, pc}
   11750:	eb0002cc 	bl	12288 <__adddf3>
   11754:	eb000526 	bl	12bf4 <__truncdfsf2>
   11758:	e1a06000 	mov	r6, r0
   1175c:	e1a00006 	mov	r0, r6
   11760:	eb000396 	bl	125c0 <__extendsfdf2>
   11764:	e28f2f8f 	add	r2, pc, #572	; 0x23c
   11768:	e892000c 	ldmia	r2, {r2, r3}
   1176c:	e1a05001 	mov	r5, r1
   11770:	e1a04000 	mov	r4, r0
   11774:	eb0004d7 	bl	12ad8 <__ledf2>
   11778:	e3500000 	cmp	r0, #0	; 0x0
   1177c:	e28f2f85 	add	r2, pc, #532	; 0x214
   11780:	e892000c 	ldmia	r2, {r2, r3}
   11784:	e1a01005 	mov	r1, r5
   11788:	e1a00004 	mov	r0, r4
   1178c:	baffffef 	blt	11750 <estimator_update_ir_estim+0x148>
   11790:	e1a01007 	mov	r1, r7
   11794:	e1a00006 	mov	r0, r6
   11798:	eb00063d 	bl	13094 <__divsf3>
   1179c:	eb000387 	bl	125c0 <__extendsfdf2>
   117a0:	e28f2f82 	add	r2, pc, #520	; 0x208
   117a4:	e892000c 	ldmia	r2, {r2, r3}
   117a8:	eb000397 	bl	1260c <__muldf3>
   117ac:	e28f2f81 	add	r2, pc, #516	; 0x204
   117b0:	e892000c 	ldmia	r2, {r2, r3}
   117b4:	eb00042a 	bl	12864 <__divdf3>
   117b8:	ea000000 	b	117c0 <estimator_update_ir_estim+0x1b8>
   117bc:	eb0002b0 	bl	12284 <__subdf3>
   117c0:	eb00050b 	bl	12bf4 <__truncdfsf2>
   117c4:	e1a06000 	mov	r6, r0
   117c8:	eb00037c 	bl	125c0 <__extendsfdf2>
   117cc:	e28f2f6f 	add	r2, pc, #444	; 0x1bc
   117d0:	e892000c 	ldmia	r2, {r2, r3}
   117d4:	e1a05001 	mov	r5, r1
   117d8:	e1a04000 	mov	r4, r0
   117dc:	eb0004bb 	bl	12ad0 <__gedf2>
   117e0:	e3500000 	cmp	r0, #0	; 0x0
   117e4:	e28f2f6b 	add	r2, pc, #428	; 0x1ac
   117e8:	e892000c 	ldmia	r2, {r2, r3}
   117ec:	e1a01005 	mov	r1, r5
   117f0:	e1a00004 	mov	r0, r4
   117f4:	cafffff0 	bgt	117bc <estimator_update_ir_estim+0x1b4>
   117f8:	ea000002 	b	11808 <estimator_update_ir_estim+0x200>
   117fc:	eb0002a1 	bl	12288 <__adddf3>
   11800:	eb0004fb 	bl	12bf4 <__truncdfsf2>
   11804:	e1a06000 	mov	r6, r0
   11808:	e1a00006 	mov	r0, r6
   1180c:	eb00036b 	bl	125c0 <__extendsfdf2>
   11810:	e28f2e19 	add	r2, pc, #400	; 0x190
   11814:	e892000c 	ldmia	r2, {r2, r3}
   11818:	e1a05001 	mov	r5, r1
   1181c:	e1a04000 	mov	r4, r0
   11820:	eb0004ac 	bl	12ad8 <__ledf2>
   11824:	e3500000 	cmp	r0, #0	; 0x0
   11828:	e28f2f5a 	add	r2, pc, #360	; 0x168
   1182c:	e892000c 	ldmia	r2, {r2, r3}
   11830:	e1a01005 	mov	r1, r5
   11834:	e1a00004 	mov	r0, r4
   11838:	baffffef 	blt	117fc <estimator_update_ir_estim+0x1f4>
   1183c:	e59f31b0 	ldr	r3, [pc, #432]	; 119f4 <.text+0x99f4>
   11840:	e1d370f0 	ldrsh	r7, [r3]
   11844:	e1a00007 	mov	r0, r7
   11848:	eb00059a 	bl	12eb8 <__floatsisf>
   1184c:	e59f31a4 	ldr	r3, [pc, #420]	; 119f8 <.text+0x99f8>
   11850:	e59f21a4 	ldr	r2, [pc, #420]	; 119fc <.text+0x99fc>
   11854:	e1a08000 	mov	r8, r0
   11858:	e3a01000 	mov	r1, #0	; 0x0
   1185c:	e5838000 	str	r8, [r3]
   11860:	e5826000 	str	r6, [r2]
   11864:	e1a00006 	mov	r0, r6
   11868:	eb000673 	bl	1323c <__lesf2>
   1186c:	e3500000 	cmp	r0, #0	; 0x0
   11870:	e1a04006 	mov	r4, r6
   11874:	b2264102 	eorlt	r4, r6, #-2147483648	; 0x80000000
   11878:	e1a00004 	mov	r0, r4
   1187c:	e3a015fe 	mov	r1, #1065353216	; 0x3f800000
   11880:	eb00066d 	bl	1323c <__lesf2>
   11884:	e3500000 	cmp	r0, #0	; 0x0
   11888:	aaffffa9 	bge	11734 <estimator_update_ir_estim+0x12c>
   1188c:	e1a00004 	mov	r0, r4
   11890:	eb00034a 	bl	125c0 <__extendsfdf2>
   11894:	e28f2f49 	add	r2, pc, #292	; 0x124
   11898:	e892000c 	ldmia	r2, {r2, r3}
   1189c:	eb00048b 	bl	12ad0 <__gedf2>
   118a0:	e3500000 	cmp	r0, #0	; 0x0
   118a4:	daffffa2 	ble	11734 <estimator_update_ir_estim+0x12c>
   118a8:	e59f3134 	ldr	r3, [pc, #308]	; 119e4 <.text+0x99e4>
   118ac:	e1d320b0 	ldrh	r2, [r3]
   118b0:	e1a01802 	mov	r1, r2, lsl #16
   118b4:	e1a02841 	mov	r2, r1, asr #16
   118b8:	e2623000 	rsb	r3, r2, #0	; 0x0
   118bc:	e0833fa3 	add	r3, r3, r3, lsr #31
   118c0:	e15700c3 	cmp	r7, r3, asr #1
   118c4:	daffff9a 	ble	11734 <estimator_update_ir_estim+0x12c>
   118c8:	e0823fa1 	add	r3, r2, r1, lsr #31
   118cc:	e15700c3 	cmp	r7, r3, asr #1
   118d0:	aaffff97 	bge	11734 <estimator_update_ir_estim+0x12c>
   118d4:	e1a00006 	mov	r0, r6
   118d8:	e1a01008 	mov	r1, r8
   118dc:	eb000588 	bl	12f04 <__mulsf3>
   118e0:	eb000336 	bl	125c0 <__extendsfdf2>
   118e4:	e59f6100 	ldr	r6, [pc, #256]	; 119ec <.text+0x99ec>
   118e8:	e1a05001 	mov	r5, r1
   118ec:	e1a04000 	mov	r4, r0
   118f0:	e5960000 	ldr	r0, [r6]
   118f4:	eb000331 	bl	125c0 <__extendsfdf2>
   118f8:	e28f20c8 	add	r2, pc, #200	; 0xc8
   118fc:	e892000c 	ldmia	r2, {r2, r3}
   11900:	eb000341 	bl	1260c <__muldf3>
   11904:	e1a03001 	mov	r3, r1
   11908:	e1a02000 	mov	r2, r0
   1190c:	e1a01005 	mov	r1, r5
   11910:	e1a00004 	mov	r0, r4
   11914:	eb00025b 	bl	12288 <__adddf3>
   11918:	eb0004b5 	bl	12bf4 <__truncdfsf2>
   1191c:	e1a07000 	mov	r7, r0
   11920:	e1a01008 	mov	r1, r8
   11924:	e5867000 	str	r7, [r6]
   11928:	e1a00008 	mov	r0, r8
   1192c:	eb000574 	bl	12f04 <__mulsf3>
   11930:	eb000322 	bl	125c0 <__extendsfdf2>
   11934:	e59f60b4 	ldr	r6, [pc, #180]	; 119f0 <.text+0x99f0>
   11938:	e1a05001 	mov	r5, r1
   1193c:	e1a04000 	mov	r4, r0
   11940:	e5960000 	ldr	r0, [r6]
   11944:	eb00031d 	bl	125c0 <__extendsfdf2>
   11948:	e28f2078 	add	r2, pc, #120	; 0x78
   1194c:	e892000c 	ldmia	r2, {r2, r3}
   11950:	eb00032d 	bl	1260c <__muldf3>
   11954:	e1a03001 	mov	r3, r1
   11958:	e1a02000 	mov	r2, r0
   1195c:	e1a01005 	mov	r1, r5
   11960:	e1a00004 	mov	r0, r4
   11964:	eb000247 	bl	12288 <__adddf3>
   11968:	eb0004a1 	bl	12bf4 <__truncdfsf2>
   1196c:	e1a03000 	mov	r3, r0
   11970:	e1a01000 	mov	r1, r0
   11974:	e5863000 	str	r3, [r6]
   11978:	e1a00007 	mov	r0, r7
   1197c:	eb0005c4 	bl	13094 <__divsf3>
   11980:	e59f3060 	ldr	r3, [pc, #96]	; 119e8 <.text+0x99e8>
   11984:	eaffff69 	b	11730 <estimator_update_ir_estim+0x128>
   11988:	3fb99999 	swicc	0x00b99999
   1198c:	9999999a 	ldmlsib	r9, {r1, r3, r4, r7, r8, fp, ip, pc}
   11990:	400921fb 	strmid	r2, [r9], -fp
   11994:	54442d18 	strplb	r2, [r4], #-3352
   11998:	401921fb 	ldrmish	r2, [r9], -fp
   1199c:	54442d18 	strplb	r2, [r4], #-3352
   119a0:	40590000 	submis	r0, r9, r0
   119a4:	00000000 	andeq	r0, r0, r0
   119a8:	c00921fb 	strgtd	r2, [r9], -fp
   119ac:	54442d18 	strplb	r2, [r4], #-3352
   119b0:	40240000 	eormi	r0, r4, r0
   119b4:	00000000 	andeq	r0, r0, r0
   119b8:	40239eb8 	strmih	r9, [r3], -r8
   119bc:	51eb851f 	mvnpl	r8, pc, lsl r5
   119c0:	3fa99999 	swicc	0x00a99999
   119c4:	9999999a 	ldmlsib	r9, {r1, r3, r4, r7, r8, fp, ip, pc}
   119c8:	3feff7ce 	swicc	0x00eff7ce
   119cc:	d916872b 	ldmledb	r6, {r0, r1, r3, r5, r8, r9, sl, pc}
   119d0:	000139c4 	andeq	r3, r1, r4, asr #19
   119d4:	00013b60 	andeq	r3, r1, r0, ror #22
   119d8:	000139c0 	andeq	r3, r1, r0, asr #19
   119dc:	00013be0 	andeq	r3, r1, r0, ror #23
   119e0:	000139bc 	streqh	r3, [r1], -ip
   119e4:	0001350c 	andeq	r3, r1, ip, lsl #10
   119e8:	00013bbc 	streqh	r3, [r1], -ip
   119ec:	000139c8 	andeq	r3, r1, r8, asr #19
   119f0:	000139cc 	andeq	r3, r1, ip, asr #19
   119f4:	00013b6e 	andeq	r3, r1, lr, ror #22
   119f8:	00013bc4 	andeq	r3, r1, r4, asr #23
   119fc:	00013bdc 	ldreqd	r3, [r1], -ip

00011a00 <estimator_update_state_gps>:
   11a00:	e92d4070 	stmdb	sp!, {r4, r5, r6, lr}
   11a04:	e59f3080 	ldr	r3, [pc, #128]	; 11a8c <.text+0x9a8c>
   11a08:	e5d32000 	ldrb	r2, [r3]
   11a0c:	e3520003 	cmp	r2, #3	; 0x3
   11a10:	18bd8070 	ldmneia	sp!, {r4, r5, r6, pc}
   11a14:	e59f3074 	ldr	r3, [pc, #116]	; 11a90 <.text+0x9a90>
   11a18:	e59f2074 	ldr	r2, [pc, #116]	; 11a94 <.text+0x9a94>
   11a1c:	e1d310b0 	ldrh	r1, [r3]
   11a20:	e59f3070 	ldr	r3, [pc, #112]	; 11a98 <.text+0x9a98>
   11a24:	e5920000 	ldr	r0, [r2]
   11a28:	e593c000 	ldr	ip, [r3]
   11a2c:	e59f2068 	ldr	r2, [pc, #104]	; 11a9c <.text+0x9a9c>
   11a30:	e59f3068 	ldr	r3, [pc, #104]	; 11aa0 <.text+0x9aa0>
   11a34:	e592e000 	ldr	lr, [r2]
   11a38:	e5934000 	ldr	r4, [r3]
   11a3c:	e59f2060 	ldr	r2, [pc, #96]	; 11aa4 <.text+0x9aa4>
   11a40:	e59f3060 	ldr	r3, [pc, #96]	; 11aa8 <.text+0x9aa8>
   11a44:	e5925000 	ldr	r5, [r2]
   11a48:	e5936000 	ldr	r6, [r3]
   11a4c:	e59f2058 	ldr	r2, [pc, #88]	; 11aac <.text+0x9aac>
   11a50:	e59f3058 	ldr	r3, [pc, #88]	; 11ab0 <.text+0x9ab0>
   11a54:	e582c000 	str	ip, [r2]
   11a58:	e5830000 	str	r0, [r3]
   11a5c:	e59f2050 	ldr	r2, [pc, #80]	; 11ab4 <.text+0x9ab4>
   11a60:	e59f3050 	ldr	r3, [pc, #80]	; 11ab8 <.text+0x9ab8>
   11a64:	e5824000 	str	r4, [r2]
   11a68:	e583e000 	str	lr, [r3]
   11a6c:	e59f2048 	ldr	r2, [pc, #72]	; 11abc <.text+0x9abc>
   11a70:	e59f3048 	ldr	r3, [pc, #72]	; 11ac0 <.text+0x9ac0>
   11a74:	e3510000 	cmp	r1, #0	; 0x0
   11a78:	e5835000 	str	r5, [r3]
   11a7c:	e5826000 	str	r6, [r2]
   11a80:	08bd8070 	ldmeqia	sp!, {r4, r5, r6, pc}
   11a84:	e8bd4070 	ldmia	sp!, {r4, r5, r6, lr}
   11a88:	eafffede 	b	11608 <estimator_update_ir_estim>
   11a8c:	00013b64 	andeq	r3, r1, r4, ror #22
   11a90:	00013ba8 	andeq	r3, r1, r8, lsr #23
   11a94:	00013b3c 	andeq	r3, r1, ip, lsr fp
   11a98:	00013b48 	andeq	r3, r1, r8, asr #22
   11a9c:	00013b40 	andeq	r3, r1, r0, asr #22
   11aa0:	00013b58 	andeq	r3, r1, r8, asr fp
   11aa4:	00013b54 	andeq	r3, r1, r4, asr fp
   11aa8:	00013b68 	andeq	r3, r1, r8, ror #22
   11aac:	00013bec 	andeq	r3, r1, ip, ror #23
   11ab0:	00013bd8 	ldreqd	r3, [r1], -r8
   11ab4:	00013bc8 	andeq	r3, r1, r8, asr #23
   11ab8:	00013bb4 	streqh	r3, [r1], -r4
   11abc:	00013ba4 	andeq	r3, r1, r4, lsr #23
   11ac0:	00013be0 	andeq	r3, r1, r0, ror #23

00011ac4 <estimator_propagate_state>:
   11ac4:	e1a0f00e 	mov	pc, lr

00011ac8 <inflight_calib>:
   11ac8:	e1a0c00d 	mov	ip, sp
   11acc:	e92ddff0 	stmdb	sp!, {r4, r5, r6, r7, r8, r9, sl, fp, ip, lr, pc}
   11ad0:	e59f42c4 	ldr	r4, [pc, #708]	; 11d9c <.text+0x9d9c>
   11ad4:	e5d43000 	ldrb	r3, [r4]
   11ad8:	e3530001 	cmp	r3, #1	; 0x1
   11adc:	e24cb004 	sub	fp, ip, #4	; 0x4
   11ae0:	e20060ff 	and	r6, r0, #255	; 0xff
   11ae4:	0a00004e 	beq	11c24 <inflight_calib+0x15c>
   11ae8:	e5d43000 	ldrb	r3, [r4]
   11aec:	e3530002 	cmp	r3, #2	; 0x2
   11af0:	189daff0 	ldmneia	sp, {r4, r5, r6, r7, r8, r9, sl, fp, sp, pc}
   11af4:	e59f72a4 	ldr	r7, [pc, #676]	; 11da0 <.text+0x9da0>
   11af8:	e5d73000 	ldrb	r3, [r7]
   11afc:	e3530002 	cmp	r3, #2	; 0x2
   11b00:	189daff0 	ldmneia	sp, {r4, r5, r6, r7, r8, r9, sl, fp, sp, pc}
   11b04:	e3560000 	cmp	r6, #0	; 0x0
   11b08:	059fa294 	ldreq	sl, [pc, #660]	; 11da4 <.text+0x9da4>
   11b0c:	059f9294 	ldreq	r9, [pc, #660]	; 11da8 <.text+0x9da8>
   11b10:	059f0294 	ldreq	r0, [pc, #660]	; 11dac <.text+0x9dac>
   11b14:	059f8294 	ldreq	r8, [pc, #660]	; 11db0 <.text+0x9db0>
   11b18:	1a000083 	bne	11d2c <inflight_calib+0x264>
   11b1c:	e5900000 	ldr	r0, [r0]
   11b20:	eb0002a6 	bl	125c0 <__extendsfdf2>
   11b24:	e1d930fa 	ldrsh	r3, [r9, #10]
   11b28:	e1a05001 	mov	r5, r1
   11b2c:	e1a04000 	mov	r4, r0
   11b30:	e1da00f0 	ldrsh	r0, [sl]
   11b34:	e0600003 	rsb	r0, r0, r3
   11b38:	eb0004de 	bl	12eb8 <__floatsisf>
   11b3c:	eb00029f 	bl	125c0 <__extendsfdf2>
   11b40:	e28f2f8b 	add	r2, pc, #556	; 0x22c
   11b44:	e892000c 	ldmia	r2, {r2, r3}
   11b48:	eb0002af 	bl	1260c <__muldf3>
   11b4c:	e28f2f8a 	add	r2, pc, #552	; 0x228
   11b50:	e892000c 	ldmia	r2, {r2, r3}
   11b54:	eb000342 	bl	12864 <__divdf3>
   11b58:	e1a03001 	mov	r3, r1
   11b5c:	e1a02000 	mov	r2, r0
   11b60:	e1a01005 	mov	r1, r5
   11b64:	e1a00004 	mov	r0, r4
   11b68:	eb0001c6 	bl	12288 <__adddf3>
   11b6c:	eb000420 	bl	12bf4 <__truncdfsf2>
   11b70:	e5d73000 	ldrb	r3, [r7]
   11b74:	e59f2238 	ldr	r2, [pc, #568]	; 11db4 <.text+0x9db4>
   11b78:	e3530002 	cmp	r3, #2	; 0x2
   11b7c:	e5820000 	str	r0, [r2]
   11b80:	e5880000 	str	r0, [r8]
   11b84:	189daff0 	ldmneia	sp, {r4, r5, r6, r7, r8, r9, sl, fp, sp, pc}
   11b88:	e3560000 	cmp	r6, #0	; 0x0
   11b8c:	059f9214 	ldreq	r9, [pc, #532]	; 11da8 <.text+0x9da8>
   11b90:	059f8220 	ldreq	r8, [pc, #544]	; 11db8 <.text+0x9db8>
   11b94:	059f0220 	ldreq	r0, [pc, #544]	; 11dbc <.text+0x9dbc>
   11b98:	059f6220 	ldreq	r6, [pc, #544]	; 11dc0 <.text+0x9dc0>
   11b9c:	0a000007 	beq	11bc0 <inflight_calib+0xf8>
   11ba0:	e59f6218 	ldr	r6, [pc, #536]	; 11dc0 <.text+0x9dc0>
   11ba4:	e59f0210 	ldr	r0, [pc, #528]	; 11dbc <.text+0x9dbc>
   11ba8:	e5963000 	ldr	r3, [r6]
   11bac:	e59f91f4 	ldr	r9, [pc, #500]	; 11da8 <.text+0x9da8>
   11bb0:	e59f8200 	ldr	r8, [pc, #512]	; 11db8 <.text+0x9db8>
   11bb4:	e5803000 	str	r3, [r0]
   11bb8:	e1d930bc 	ldrh	r3, [r9, #12]
   11bbc:	e1c830b0 	strh	r3, [r8]
   11bc0:	e5900000 	ldr	r0, [r0]
   11bc4:	eb00027d 	bl	125c0 <__extendsfdf2>
   11bc8:	e1d930fc 	ldrsh	r3, [r9, #12]
   11bcc:	e1a05001 	mov	r5, r1
   11bd0:	e1a04000 	mov	r4, r0
   11bd4:	e1d800f0 	ldrsh	r0, [r8]
   11bd8:	e0600003 	rsb	r0, r0, r3
   11bdc:	eb0004b5 	bl	12eb8 <__floatsisf>
   11be0:	eb000276 	bl	125c0 <__extendsfdf2>
   11be4:	e28f2f66 	add	r2, pc, #408	; 0x198
   11be8:	e892000c 	ldmia	r2, {r2, r3}
   11bec:	eb000286 	bl	1260c <__muldf3>
   11bf0:	e28f2f61 	add	r2, pc, #388	; 0x184
   11bf4:	e892000c 	ldmia	r2, {r2, r3}
   11bf8:	eb000319 	bl	12864 <__divdf3>
   11bfc:	e1a03001 	mov	r3, r1
   11c00:	e1a02000 	mov	r2, r0
   11c04:	e1a01005 	mov	r1, r5
   11c08:	e1a00004 	mov	r0, r4
   11c0c:	eb00019d 	bl	12288 <__adddf3>
   11c10:	eb0003f7 	bl	12bf4 <__truncdfsf2>
   11c14:	e59f31a8 	ldr	r3, [pc, #424]	; 11dc4 <.text+0x9dc4>
   11c18:	e5860000 	str	r0, [r6]
   11c1c:	e5830000 	str	r0, [r3]
   11c20:	e89daff0 	ldmia	sp, {r4, r5, r6, r7, r8, r9, sl, fp, sp, pc}
   11c24:	e59f7174 	ldr	r7, [pc, #372]	; 11da0 <.text+0x9da0>
   11c28:	e5d73000 	ldrb	r3, [r7]
   11c2c:	e3530002 	cmp	r3, #2	; 0x2
   11c30:	1affffac 	bne	11ae8 <inflight_calib+0x20>
   11c34:	e3560000 	cmp	r6, #0	; 0x0
   11c38:	059f8188 	ldreq	r8, [pc, #392]	; 11dc8 <.text+0x9dc8>
   11c3c:	059f5188 	ldreq	r5, [pc, #392]	; 11dcc <.text+0x9dcc>
   11c40:	059fa15c 	ldreq	sl, [pc, #348]	; 11da4 <.text+0x9da4>
   11c44:	059f915c 	ldreq	r9, [pc, #348]	; 11da8 <.text+0x9da8>
   11c48:	1a000040 	bne	11d50 <inflight_calib+0x288>
   11c4c:	e1d930fa 	ldrsh	r3, [r9, #10]
   11c50:	e1da00f0 	ldrsh	r0, [sl]
   11c54:	e0600003 	rsb	r0, r0, r3
   11c58:	eb000496 	bl	12eb8 <__floatsisf>
   11c5c:	eb000257 	bl	125c0 <__extendsfdf2>
   11c60:	e28f2f49 	add	r2, pc, #292	; 0x124
   11c64:	e892000c 	ldmia	r2, {r2, r3}
   11c68:	eb000267 	bl	1260c <__muldf3>
   11c6c:	e28f2f42 	add	r2, pc, #264	; 0x108
   11c70:	e892000c 	ldmia	r2, {r2, r3}
   11c74:	eb0002fa 	bl	12864 <__divdf3>
   11c78:	eb0003bd 	bl	12b74 <__fixdfsi>
   11c7c:	e1d830b0 	ldrh	r3, [r8]
   11c80:	e0800003 	add	r0, r0, r3
   11c84:	e1c500b0 	strh	r0, [r5]
   11c88:	e1d500f0 	ldrsh	r0, [r5]
   11c8c:	eb000489 	bl	12eb8 <__floatsisf>
   11c90:	e5d73000 	ldrb	r3, [r7]
   11c94:	e59f2118 	ldr	r2, [pc, #280]	; 11db4 <.text+0x9db4>
   11c98:	e3530002 	cmp	r3, #2	; 0x2
   11c9c:	e5820000 	str	r0, [r2]
   11ca0:	1affff90 	bne	11ae8 <inflight_calib+0x20>
   11ca4:	e3560000 	cmp	r6, #0	; 0x0
   11ca8:	059f90f8 	ldreq	r9, [pc, #248]	; 11da8 <.text+0x9da8>
   11cac:	059f511c 	ldreq	r5, [pc, #284]	; 11dd0 <.text+0x9dd0>
   11cb0:	059f711c 	ldreq	r7, [pc, #284]	; 11dd4 <.text+0x9dd4>
   11cb4:	059f80fc 	ldreq	r8, [pc, #252]	; 11db8 <.text+0x9db8>
   11cb8:	0a000007 	beq	11cdc <inflight_calib+0x214>
   11cbc:	e59f7110 	ldr	r7, [pc, #272]	; 11dd4 <.text+0x9dd4>
   11cc0:	e59f5108 	ldr	r5, [pc, #264]	; 11dd0 <.text+0x9dd0>
   11cc4:	e1d730b0 	ldrh	r3, [r7]
   11cc8:	e59f90d8 	ldr	r9, [pc, #216]	; 11da8 <.text+0x9da8>
   11ccc:	e59f80e4 	ldr	r8, [pc, #228]	; 11db8 <.text+0x9db8>
   11cd0:	e1c530b0 	strh	r3, [r5]
   11cd4:	e1d930bc 	ldrh	r3, [r9, #12]
   11cd8:	e1c830b0 	strh	r3, [r8]
   11cdc:	e1d930fc 	ldrsh	r3, [r9, #12]
   11ce0:	e1d800f0 	ldrsh	r0, [r8]
   11ce4:	e0600003 	rsb	r0, r0, r3
   11ce8:	eb000472 	bl	12eb8 <__floatsisf>
   11cec:	eb000233 	bl	125c0 <__extendsfdf2>
   11cf0:	e28f209c 	add	r2, pc, #156	; 0x9c
   11cf4:	e892000c 	ldmia	r2, {r2, r3}
   11cf8:	eb000243 	bl	1260c <__muldf3>
   11cfc:	e28f2078 	add	r2, pc, #120	; 0x78
   11d00:	e892000c 	ldmia	r2, {r2, r3}
   11d04:	eb0002d6 	bl	12864 <__divdf3>
   11d08:	eb000399 	bl	12b74 <__fixdfsi>
   11d0c:	e1d530b0 	ldrh	r3, [r5]
   11d10:	e0800003 	add	r0, r0, r3
   11d14:	e1c700b0 	strh	r0, [r7]
   11d18:	e1d700f0 	ldrsh	r0, [r7]
   11d1c:	eb000465 	bl	12eb8 <__floatsisf>
   11d20:	e59f309c 	ldr	r3, [pc, #156]	; 11dc4 <.text+0x9dc4>
   11d24:	e5830000 	str	r0, [r3]
   11d28:	eaffff6e 	b	11ae8 <inflight_calib+0x20>
   11d2c:	e59f807c 	ldr	r8, [pc, #124]	; 11db0 <.text+0x9db0>
   11d30:	e59f0074 	ldr	r0, [pc, #116]	; 11dac <.text+0x9dac>
   11d34:	e5983000 	ldr	r3, [r8]
   11d38:	e59f9068 	ldr	r9, [pc, #104]	; 11da8 <.text+0x9da8>
   11d3c:	e59fa060 	ldr	sl, [pc, #96]	; 11da4 <.text+0x9da4>
   11d40:	e5803000 	str	r3, [r0]
   11d44:	e1d930ba 	ldrh	r3, [r9, #10]
   11d48:	e1ca30b0 	strh	r3, [sl]
   11d4c:	eaffff72 	b	11b1c <inflight_calib+0x54>
   11d50:	e59f5074 	ldr	r5, [pc, #116]	; 11dcc <.text+0x9dcc>
   11d54:	e59f806c 	ldr	r8, [pc, #108]	; 11dc8 <.text+0x9dc8>
   11d58:	e1d530b0 	ldrh	r3, [r5]
   11d5c:	e59f9044 	ldr	r9, [pc, #68]	; 11da8 <.text+0x9da8>
   11d60:	e59fa03c 	ldr	sl, [pc, #60]	; 11da4 <.text+0x9da4>
   11d64:	e1c830b0 	strh	r3, [r8]
   11d68:	e1d930ba 	ldrh	r3, [r9, #10]
   11d6c:	e1ca30b0 	strh	r3, [sl]
   11d70:	eaffffb5 	b	11c4c <inflight_calib+0x184>
   11d74:	3fb99999 	swicc	0x00b99999
   11d78:	9999999a 	ldmlsib	r9, {r1, r3, r4, r7, r8, fp, ip, pc}
   11d7c:	40c2c000 	sbcmi	ip, r2, r0
   11d80:	00000000 	andeq	r0, r0, r0
   11d84:	bfc99999 	swilt	0x00c99999
   11d88:	9999999a 	ldmlsib	r9, {r1, r3, r4, r7, r8, fp, ip, pc}
   11d8c:	404e0000 	submi	r0, lr, r0
   11d90:	00000000 	andeq	r0, r0, r0
   11d94:	c04e0000 	subgt	r0, lr, r0
   11d98:	00000000 	andeq	r0, r0, r0
   11d9c:	000135a4 	andeq	r3, r1, r4, lsr #11
   11da0:	000139d0 	ldreqd	r3, [r1], -r0
   11da4:	000139e0 	andeq	r3, r1, r0, ror #19
   11da8:	00013b10 	andeq	r3, r1, r0, lsl fp
   11dac:	000139d8 	ldreqd	r3, [r1], -r8
   11db0:	00013528 	andeq	r3, r1, r8, lsr #10
   11db4:	000139ec 	andeq	r3, r1, ip, ror #19
   11db8:	000139e2 	andeq	r3, r1, r2, ror #19
   11dbc:	000139dc 	ldreqd	r3, [r1], -ip
   11dc0:	00013524 	andeq	r3, r1, r4, lsr #10
   11dc4:	000139e8 	andeq	r3, r1, r8, ror #19
   11dc8:	000139d2 	ldreqd	r3, [r1], -r2
   11dcc:	00013508 	andeq	r3, r1, r8, lsl #10
   11dd0:	000139d4 	ldreqd	r3, [r1], -r4
   11dd4:	0001350a 	andeq	r3, r1, sl, lsl #10

00011dd8 <main>:
   11dd8:	e1a0c00d 	mov	ip, sp
   11ddc:	e3a02000 	mov	r2, #0	; 0x0
   11de0:	e3a0304f 	mov	r3, #79	; 0x4f
   11de4:	e92dd830 	stmdb	sp!, {r4, r5, fp, ip, lr, pc}
   11de8:	e3a01001 	mov	r1, #1	; 0x1
   11dec:	e4432001 	strb	r2, [r3], #-1
   11df0:	e5c31000 	strb	r1, [r3]
   11df4:	e2822005 	add	r2, r2, #5	; 0x5
   11df8:	e2433009 	sub	r3, r3, #9	; 0x9
   11dfc:	e5c32000 	strb	r2, [r3]
   11e00:	e24cb004 	sub	fp, ip, #4	; 0x4
   11e04:	ebfff0c2 	bl	e114 <modem_init>
   11e08:	ebfff1e5 	bl	e5a4 <adc_init>
   11e0c:	ebfff1b8 	bl	e4f4 <spi_init>
   11e10:	ebfff11f 	bl	e294 <link_fbw_init>
   11e14:	ebfff225 	bl	e6b0 <gps_init>
   11e18:	ebfffcf6 	bl	111f8 <nav_init>
   11e1c:	ebfff32f 	bl	eae0 <ir_init>
   11e20:	ebfffda9 	bl	114cc <estimator_init>
   11e24:	e3a0201e 	mov	r2, #30	; 0x1e
   11e28:	e3a01056 	mov	r1, #86	; 0x56
   11e2c:	e3a00040 	mov	r0, #64	; 0x40
   11e30:	e5d13000 	ldrb	r3, [r1]
   11e34:	e1a03323 	mov	r3, r3, lsr #6
   11e38:	e2133001 	ands	r3, r3, #1	; 0x1
   11e3c:	13a03001 	movne	r3, #1	; 0x1
   11e40:	15c10000 	strneb	r0, [r1]
   11e44:	e3530000 	cmp	r3, #0	; 0x0
   11e48:	e2423001 	sub	r3, r2, #1	; 0x1
   11e4c:	120320ff 	andne	r2, r3, #255	; 0xff
   11e50:	e3520000 	cmp	r2, #0	; 0x0
   11e54:	1afffff5 	bne	11e30 <main+0x58>
   11e58:	e59f5070 	ldr	r5, [pc, #112]	; 11ed0 <.text+0x9ed0>
   11e5c:	e59f4070 	ldr	r4, [pc, #112]	; 11ed4 <.text+0x9ed4>
   11e60:	e3a02056 	mov	r2, #86	; 0x56
   11e64:	e5d23000 	ldrb	r3, [r2]
   11e68:	e1a03323 	mov	r3, r3, lsr #6
   11e6c:	e2133001 	ands	r3, r3, #1	; 0x1
   11e70:	13a03040 	movne	r3, #64	; 0x40
   11e74:	15c23000 	strneb	r3, [r2]
   11e78:	1243303f 	subne	r3, r3, #63	; 0x3f
   11e7c:	e3530000 	cmp	r3, #0	; 0x0
   11e80:	1a000009 	bne	11eac <main+0xd4>
   11e84:	e5d53000 	ldrb	r3, [r5]
   11e88:	e3530000 	cmp	r3, #0	; 0x0
   11e8c:	1a00000a 	bne	11ebc <main+0xe4>
   11e90:	e5d43000 	ldrb	r3, [r4]
   11e94:	e3530000 	cmp	r3, #0	; 0x0
   11e98:	0afffff0 	beq	11e60 <main+0x88>
   11e9c:	e3a03000 	mov	r3, #0	; 0x0
   11ea0:	e5c43000 	strb	r3, [r4]
   11ea4:	ebffe597 	bl	b508 <radio_control_task>
   11ea8:	eaffffec 	b	11e60 <main+0x88>
   11eac:	ebffebe2 	bl	ce3c <periodic_task>
   11eb0:	e5d53000 	ldrb	r3, [r5]
   11eb4:	e3530000 	cmp	r3, #0	; 0x0
   11eb8:	0afffff4 	beq	11e90 <main+0xb8>
   11ebc:	ebfff204 	bl	e6d4 <parse_gps_msg>
   11ec0:	ebffec84 	bl	d0d8 <send_gps_pos>
   11ec4:	ebffeea9 	bl	d970 <send_radIR>
   11ec8:	ebffeffe 	bl	dec8 <send_takeOff>
   11ecc:	eaffffef 	b	11e90 <main+0xb8>
   11ed0:	00013b44 	andeq	r3, r1, r4, asr #22
   11ed4:	00013502 	andeq	r3, r1, r2, lsl #10

00011ed8 <pp_atan2>:
   11ed8:	e1a0c00d 	mov	ip, sp
   11edc:	e92ddbf0 	stmdb	sp!, {r4, r5, r6, r7, r8, r9, fp, ip, lr, pc}
   11ee0:	e24cb004 	sub	fp, ip, #4	; 0x4
   11ee4:	e24bc030 	sub	ip, fp, #48	; 0x30
   11ee8:	e24dd008 	sub	sp, sp, #8	; 0x8
   11eec:	e98c000c 	stmib	ip, {r2, r3}
   11ef0:	e1a09001 	mov	r9, r1
   11ef4:	e1a08000 	mov	r8, r0
   11ef8:	e28f2d06 	add	r2, pc, #384	; 0x180
   11efc:	e892000c 	ldmia	r2, {r2, r3}
   11f00:	e99c0003 	ldmib	ip, {r0, r1}
   11f04:	eb0002f3 	bl	12ad8 <__ledf2>
   11f08:	e24b1030 	sub	r1, fp, #48	; 0x30
   11f0c:	e3500000 	cmp	r0, #0	; 0x0
   11f10:	e991000c 	ldmib	r1, {r2, r3}
   11f14:	e28f0f5b 	add	r0, pc, #364	; 0x16c
   11f18:	e8900003 	ldmia	r0, {r0, r1}
   11f1c:	ba000035 	blt	11ff8 <pp_atan2+0x120>
   11f20:	e24b3030 	sub	r3, fp, #48	; 0x30
   11f24:	e9930003 	ldmib	r3, {r0, r1}
   11f28:	e28f2f56 	add	r2, pc, #344	; 0x158
   11f2c:	e892000c 	ldmia	r2, {r2, r3}
   11f30:	eb0000d4 	bl	12288 <__adddf3>
   11f34:	e1a07001 	mov	r7, r1
   11f38:	e1a06000 	mov	r6, r0
   11f3c:	e28f2f4f 	add	r2, pc, #316	; 0x13c
   11f40:	e892000c 	ldmia	r2, {r2, r3}
   11f44:	e1a01009 	mov	r1, r9
   11f48:	e1a00008 	mov	r0, r8
   11f4c:	eb0002df 	bl	12ad0 <__gedf2>
   11f50:	e3500000 	cmp	r0, #0	; 0x0
   11f54:	e1a03007 	mov	r3, r7
   11f58:	e1a02006 	mov	r2, r6
   11f5c:	e1a01009 	mov	r1, r9
   11f60:	e1a00008 	mov	r0, r8
   11f64:	da00002a 	ble	12014 <pp_atan2+0x13c>
   11f68:	eb0000c5 	bl	12284 <__subdf3>
   11f6c:	e1a03007 	mov	r3, r7
   11f70:	e1a02006 	mov	r2, r6
   11f74:	e1a05001 	mov	r5, r1
   11f78:	e1a04000 	mov	r4, r0
   11f7c:	e1a01009 	mov	r1, r9
   11f80:	e1a00008 	mov	r0, r8
   11f84:	eb0000bf 	bl	12288 <__adddf3>
   11f88:	e1a03001 	mov	r3, r1
   11f8c:	e1a02000 	mov	r2, r0
   11f90:	e1a01005 	mov	r1, r5
   11f94:	e1a00004 	mov	r0, r4
   11f98:	eb000231 	bl	12864 <__divdf3>
   11f9c:	e1a03001 	mov	r3, r1
   11fa0:	e1a02000 	mov	r2, r0
   11fa4:	e28f00e4 	add	r0, pc, #228	; 0xe4
   11fa8:	e8900003 	ldmia	r0, {r0, r1}
   11fac:	eb000196 	bl	1260c <__muldf3>
   11fb0:	e1a03001 	mov	r3, r1
   11fb4:	e1a02000 	mov	r2, r0
   11fb8:	e28f00d0 	add	r0, pc, #208	; 0xd0
   11fbc:	e8900003 	ldmia	r0, {r0, r1}
   11fc0:	eb0000af 	bl	12284 <__subdf3>
   11fc4:	e24bc030 	sub	ip, fp, #48	; 0x30
   11fc8:	e1a06001 	mov	r6, r1
   11fcc:	e1a05000 	mov	r5, r0
   11fd0:	e28f20a8 	add	r2, pc, #168	; 0xa8
   11fd4:	e892000c 	ldmia	r2, {r2, r3}
   11fd8:	e99c0003 	ldmib	ip, {r0, r1}
   11fdc:	eb0002bd 	bl	12ad8 <__ledf2>
   11fe0:	e3500000 	cmp	r0, #0	; 0x0
   11fe4:	ba000005 	blt	12000 <pp_atan2+0x128>
   11fe8:	e1a01006 	mov	r1, r6
   11fec:	e1a00005 	mov	r0, r5
   11ff0:	e24bd024 	sub	sp, fp, #36	; 0x24
   11ff4:	e89dabf0 	ldmia	sp, {r4, r5, r6, r7, r8, r9, fp, sp, pc}
   11ff8:	eb0000a1 	bl	12284 <__subdf3>
   11ffc:	eaffffcc 	b	11f34 <pp_atan2+0x5c>
   12000:	e28f3090 	add	r3, pc, #144	; 0x90
   12004:	e8930018 	ldmia	r3, {r3, r4}
   12008:	e0230005 	eor	r0, r3, r5
   1200c:	e0241006 	eor	r1, r4, r6
   12010:	eafffff6 	b	11ff0 <pp_atan2+0x118>
   12014:	e1a03007 	mov	r3, r7
   12018:	e1a02006 	mov	r2, r6
   1201c:	e1a01009 	mov	r1, r9
   12020:	e1a00008 	mov	r0, r8
   12024:	eb000097 	bl	12288 <__adddf3>
   12028:	e1a03009 	mov	r3, r9
   1202c:	e1a02008 	mov	r2, r8
   12030:	e1a05001 	mov	r5, r1
   12034:	e1a04000 	mov	r4, r0
   12038:	e1a01007 	mov	r1, r7
   1203c:	e1a00006 	mov	r0, r6
   12040:	eb00008f 	bl	12284 <__subdf3>
   12044:	e1a03001 	mov	r3, r1
   12048:	e1a02000 	mov	r2, r0
   1204c:	e1a01005 	mov	r1, r5
   12050:	e1a00004 	mov	r0, r4
   12054:	eb000202 	bl	12864 <__divdf3>
   12058:	e1a03001 	mov	r3, r1
   1205c:	e1a02000 	mov	r2, r0
   12060:	e28f0028 	add	r0, pc, #40	; 0x28
   12064:	e8900003 	ldmia	r0, {r0, r1}
   12068:	eb000167 	bl	1260c <__muldf3>
   1206c:	e1a03001 	mov	r3, r1
   12070:	e1a02000 	mov	r2, r0
   12074:	e28f0024 	add	r0, pc, #36	; 0x24
   12078:	e8900003 	ldmia	r0, {r0, r1}
   1207c:	eaffffcf 	b	11fc0 <pp_atan2+0xe8>
	...
   12088:	3ddb7cdf 	ldcccl	12, cr7, [fp, #892]
   1208c:	d9d7bdbb 	ldmleib	r7, {r0, r1, r3, r4, r5, r7, r8, sl, fp, ip, sp, pc}^
   12090:	3fe921fb 	swicc	0x00e921fb
   12094:	54442d18 	strplb	r2, [r4], #-3352
   12098:	80000000 	andhi	r0, r0, r0
   1209c:	00000000 	andeq	r0, r0, r0
   120a0:	4002d97c 	andmi	sp, r2, ip, ror r9
   120a4:	7f3321d2 	swivc	0x003321d2

000120a8 <pp_sin>:
   120a8:	e1a0c00d 	mov	ip, sp
   120ac:	e92dd9f0 	stmdb	sp!, {r4, r5, r6, r7, r8, fp, ip, lr, pc}
   120b0:	e24cb004 	sub	fp, ip, #4	; 0x4
   120b4:	e1a05001 	mov	r5, r1
   120b8:	e1a04000 	mov	r4, r0
   120bc:	e3a08001 	mov	r8, #1	; 0x1
   120c0:	ea000002 	b	120d0 <pp_sin+0x28>
   120c4:	eb00006f 	bl	12288 <__adddf3>
   120c8:	e1a05001 	mov	r5, r1
   120cc:	e1a04000 	mov	r4, r0
   120d0:	e1a01005 	mov	r1, r5
   120d4:	e1a00004 	mov	r0, r4
   120d8:	e28f2d05 	add	r2, pc, #320	; 0x140
   120dc:	e892000c 	ldmia	r2, {r2, r3}
   120e0:	eb00027c 	bl	12ad8 <__ledf2>
   120e4:	e3500000 	cmp	r0, #0	; 0x0
   120e8:	e28f2f4e 	add	r2, pc, #312	; 0x138
   120ec:	e892000c 	ldmia	r2, {r2, r3}
   120f0:	e1a01005 	mov	r1, r5
   120f4:	e1a00004 	mov	r0, r4
   120f8:	bafffff1 	blt	120c4 <pp_sin+0x1c>
   120fc:	ea000002 	b	1210c <pp_sin+0x64>
   12100:	eb00005f 	bl	12284 <__subdf3>
   12104:	e1a05001 	mov	r5, r1
   12108:	e1a04000 	mov	r4, r0
   1210c:	e1a01005 	mov	r1, r5
   12110:	e1a00004 	mov	r0, r4
   12114:	e28f2f45 	add	r2, pc, #276	; 0x114
   12118:	e892000c 	ldmia	r2, {r2, r3}
   1211c:	eb00026b 	bl	12ad0 <__gedf2>
   12120:	e3500000 	cmp	r0, #0	; 0x0
   12124:	e28f20fc 	add	r2, pc, #252	; 0xfc
   12128:	e892000c 	ldmia	r2, {r2, r3}
   1212c:	e1a01005 	mov	r1, r5
   12130:	e1a00004 	mov	r0, r4
   12134:	cafffff1 	bgt	12100 <pp_sin+0x58>
   12138:	e28f20f8 	add	r2, pc, #248	; 0xf8
   1213c:	e892000c 	ldmia	r2, {r2, r3}
   12140:	eb000262 	bl	12ad0 <__gedf2>
   12144:	e3500000 	cmp	r0, #0	; 0x0
   12148:	da000007 	ble	1216c <pp_sin+0xc4>
   1214c:	e1a01005 	mov	r1, r5
   12150:	e1a00004 	mov	r0, r4
   12154:	e28f20e4 	add	r2, pc, #228	; 0xe4
   12158:	e892000c 	ldmia	r2, {r2, r3}
   1215c:	eb000048 	bl	12284 <__subdf3>
   12160:	e3e08000 	mvn	r8, #0	; 0x0
   12164:	e1a05001 	mov	r5, r1
   12168:	e1a04000 	mov	r4, r0
   1216c:	e1a01005 	mov	r1, r5
   12170:	e1a00004 	mov	r0, r4
   12174:	e28f20cc 	add	r2, pc, #204	; 0xcc
   12178:	e892000c 	ldmia	r2, {r2, r3}
   1217c:	eb0001b8 	bl	12864 <__divdf3>
   12180:	e1a07001 	mov	r7, r1
   12184:	e1a06000 	mov	r6, r0
   12188:	e1a03007 	mov	r3, r7
   1218c:	e1a02006 	mov	r2, r6
   12190:	eb00011d 	bl	1260c <__muldf3>
   12194:	e28f20b4 	add	r2, pc, #180	; 0xb4
   12198:	e892000c 	ldmia	r2, {r2, r3}
   1219c:	e1a05001 	mov	r5, r1
   121a0:	e1a04000 	mov	r4, r0
   121a4:	eb000118 	bl	1260c <__muldf3>
   121a8:	e28f20a8 	add	r2, pc, #168	; 0xa8
   121ac:	e892000c 	ldmia	r2, {r2, r3}
   121b0:	eb000033 	bl	12284 <__subdf3>
   121b4:	e1a03005 	mov	r3, r5
   121b8:	e1a02004 	mov	r2, r4
   121bc:	eb000112 	bl	1260c <__muldf3>
   121c0:	e28f2098 	add	r2, pc, #152	; 0x98
   121c4:	e892000c 	ldmia	r2, {r2, r3}
   121c8:	eb00002e 	bl	12288 <__adddf3>
   121cc:	e1a03005 	mov	r3, r5
   121d0:	e1a02004 	mov	r2, r4
   121d4:	eb00010c 	bl	1260c <__muldf3>
   121d8:	e28f2088 	add	r2, pc, #136	; 0x88
   121dc:	e892000c 	ldmia	r2, {r2, r3}
   121e0:	eb000027 	bl	12284 <__subdf3>
   121e4:	e1a03005 	mov	r3, r5
   121e8:	e1a02004 	mov	r2, r4
   121ec:	eb000106 	bl	1260c <__muldf3>
   121f0:	e28f2078 	add	r2, pc, #120	; 0x78
   121f4:	e892000c 	ldmia	r2, {r2, r3}
   121f8:	eb000022 	bl	12288 <__adddf3>
   121fc:	e1a03007 	mov	r3, r7
   12200:	e1a02006 	mov	r2, r6
   12204:	eb000100 	bl	1260c <__muldf3>
   12208:	e3580000 	cmp	r8, #0	; 0x0
   1220c:	b28f3064 	addlt	r3, pc, #100	; 0x64
   12210:	b8930018 	ldmltia	r3, {r3, r4}
   12214:	b0200003 	eorlt	r0, r0, r3
   12218:	b0211004 	eorlt	r1, r1, r4
   1221c:	e89da9f0 	ldmia	sp, {r4, r5, r6, r7, r8, fp, sp, pc}
   12220:	bff921fb 	swilt	0x00f921fb
   12224:	54442d18 	strplb	r2, [r4], #-3352
   12228:	401921fb 	ldrmish	r2, [r9], -fp
   1222c:	54442d18 	strplb	r2, [r4], #-3352
   12230:	4012d97c 	andmis	sp, r2, ip, ror r9
   12234:	7f3321d2 	swivc	0x003321d2
   12238:	3ff921fb 	swicc	0x00f921fb
   1223c:	54442d18 	strplb	r2, [r4], #-3352
   12240:	400921fb 	strmid	r2, [r9], -fp
   12244:	54442d18 	strplb	r2, [r4], #-3352
   12248:	3ff921fb 	swicc	0x00f921fb
   1224c:	5443d6f4 	strplb	sp, [r3], #-1780
   12250:	3f23daf7 	swicc	0x0023daf7
   12254:	48a890af 	stmmiia	r8!, {r0, r1, r2, r3, r5, r7, ip, pc}
   12258:	3f7324cc 	swicc	0x007324cc
   1225c:	645b6d0e 	ldrvsb	r6, [fp], #-3342
   12260:	3fb4668a 	swicc	0x00b4668a
   12264:	f65619a5 	ldrnvb	r1, [r6], -r5, lsr #19
   12268:	3fe4abbc 	swicc	0x00e4abbc
   1226c:	16acf9cd 	strnet	pc, [ip], sp, asr #19
   12270:	3ff921fb 	swicc	0x00f921fb
   12274:	520817f7 	andpl	r1, r8, #64749568	; 0x3dc0000
   12278:	80000000 	andhi	r0, r0, r0
   1227c:	00000000 	andeq	r0, r0, r0

00012280 <pp_sqrt>:
   12280:	e1a0f00e 	mov	pc, lr

00012284 <__subdf3>:
   12284:	e2222102 	eor	r2, r2, #-2147483648	; 0x80000000

00012288 <__adddf3>:
   12288:	e1310003 	teq	r1, r3
   1228c:	0020c002 	eoreq	ip, r0, r2
   12290:	033c0102 	teqeq	ip, #-2147483648	; 0x80000000
   12294:	0a00009e 	beq	12514 <__adddf3+0x28c>
   12298:	e191c080 	orrs	ip, r1, r0, lsl #1
   1229c:	01a01003 	moveq	r1, r3
   122a0:	01a00002 	moveq	r0, r2
   122a4:	1193c082 	orrnes	ip, r3, r2, lsl #1
   122a8:	012fff1e 	bxeq	lr
   122ac:	e92d4030 	stmdb	sp!, {r4, r5, lr}
   122b0:	e3a0c47f 	mov	ip, #2130706432	; 0x7f000000
   122b4:	e38cc60f 	orr	ip, ip, #15728640	; 0xf00000
   122b8:	e000400c 	and	r4, r0, ip
   122bc:	e002500c 	and	r5, r2, ip
   122c0:	e134000c 	teq	r4, ip
   122c4:	1135000c 	teqne	r5, ip
   122c8:	0a00009c 	beq	12540 <__adddf3+0x2b8>
   122cc:	e0555004 	subs	r5, r5, r4
   122d0:	b2655000 	rsblt	r5, r5, #0	; 0x0
   122d4:	da000006 	ble	122f4 <__adddf3+0x6c>
   122d8:	e0844005 	add	r4, r4, r5
   122dc:	e0213003 	eor	r3, r1, r3
   122e0:	e0202002 	eor	r2, r0, r2
   122e4:	e0231001 	eor	r1, r3, r1
   122e8:	e0220000 	eor	r0, r2, r0
   122ec:	e0213003 	eor	r3, r1, r3
   122f0:	e0202002 	eor	r2, r0, r2
   122f4:	e3550636 	cmp	r5, #56623104	; 0x3600000
   122f8:	88bd8030 	ldmhiia	sp!, {r4, r5, pc}
   122fc:	e3100102 	tst	r0, #-2147483648	; 0x80000000
   12300:	e1c0008c 	bic	r0, r0, ip, lsl #1
   12304:	e3800601 	orr	r0, r0, #1048576	; 0x100000
   12308:	0a000001 	beq	12314 <__adddf3+0x8c>
   1230c:	e2711000 	rsbs	r1, r1, #0	; 0x0
   12310:	e2e00000 	rsc	r0, r0, #0	; 0x0
   12314:	e3120102 	tst	r2, #-2147483648	; 0x80000000
   12318:	e1c2208c 	bic	r2, r2, ip, lsl #1
   1231c:	e3822601 	orr	r2, r2, #1048576	; 0x100000
   12320:	0a000001 	beq	1232c <__adddf3+0xa4>
   12324:	e2733000 	rsbs	r3, r3, #0	; 0x0
   12328:	e2e22000 	rsc	r2, r2, #0	; 0x0
   1232c:	e1340005 	teq	r4, r5
   12330:	0a000071 	beq	124fc <__adddf3+0x274>
   12334:	e3a0c000 	mov	ip, #0	; 0x0
   12338:	e1b05a25 	movs	r5, r5, lsr #20
   1233c:	0a000013 	beq	12390 <__adddf3+0x108>
   12340:	e3340601 	teq	r4, #1048576	; 0x100000
   12344:	0a000004 	beq	1235c <__adddf3+0xd4>
   12348:	e1b01081 	movs	r1, r1, lsl #1
   1234c:	e0ac0080 	adc	r0, ip, r0, lsl #1
   12350:	e2444601 	sub	r4, r4, #1048576	; 0x100000
   12354:	e2555001 	subs	r5, r5, #1	; 0x1
   12358:	0a00000c 	beq	12390 <__adddf3+0x108>
   1235c:	e275e020 	rsbs	lr, r5, #32	; 0x20
   12360:	ba000004 	blt	12378 <__adddf3+0xf0>
   12364:	e1a0ce13 	mov	ip, r3, lsl lr
   12368:	e1a03533 	mov	r3, r3, lsr r5
   1236c:	e1833e12 	orr	r3, r3, r2, lsl lr
   12370:	e1a02552 	mov	r2, r2, asr r5
   12374:	ea000005 	b	12390 <__adddf3+0x108>
   12378:	e2455020 	sub	r5, r5, #32	; 0x20
   1237c:	e28ee020 	add	lr, lr, #32	; 0x20
   12380:	e3530001 	cmp	r3, #1	; 0x1
   12384:	e0acce12 	adc	ip, ip, r2, lsl lr
   12388:	e1a03552 	mov	r3, r2, asr r5
   1238c:	e1a02042 	mov	r2, r2, asr #32
   12390:	e0911003 	adds	r1, r1, r3
   12394:	e0a00002 	adc	r0, r0, r2
   12398:	e2105102 	ands	r5, r0, #-2147483648	; 0x80000000
   1239c:	5a000002 	bpl	123ac <__adddf3+0x124>
   123a0:	e27cc000 	rsbs	ip, ip, #0	; 0x0
   123a4:	e2f11000 	rscs	r1, r1, #0	; 0x0
   123a8:	e2e00000 	rsc	r0, r0, #0	; 0x0
   123ac:	e3500601 	cmp	r0, #1048576	; 0x100000
   123b0:	3a000019 	bcc	1241c <__adddf3+0x194>
   123b4:	e3500602 	cmp	r0, #2097152	; 0x200000
   123b8:	3a00000b 	bcc	123ec <__adddf3+0x164>
   123bc:	e3500501 	cmp	r0, #4194304	; 0x400000
   123c0:	3a000004 	bcc	123d8 <__adddf3+0x150>
   123c4:	e1b000a0 	movs	r0, r0, lsr #1
   123c8:	e1b01061 	movs	r1, r1, rrx
   123cc:	e1b0c06c 	movs	ip, ip, rrx
   123d0:	238cc001 	orrcs	ip, ip, #1	; 0x1
   123d4:	e2844601 	add	r4, r4, #1048576	; 0x100000
   123d8:	e1b000a0 	movs	r0, r0, lsr #1
   123dc:	e1b01061 	movs	r1, r1, rrx
   123e0:	e1b0c06c 	movs	ip, ip, rrx
   123e4:	238cc001 	orrcs	ip, ip, #1	; 0x1
   123e8:	e2844601 	add	r4, r4, #1048576	; 0x100000
   123ec:	e0911fac 	adds	r1, r1, ip, lsr #31
   123f0:	e2a00000 	adc	r0, r0, #0	; 0x0
   123f4:	e33c0102 	teq	ip, #-2147483648	; 0x80000000
   123f8:	03c11001 	biceq	r1, r1, #1	; 0x1
   123fc:	e3100602 	tst	r0, #2097152	; 0x200000
   12400:	12844601 	addne	r4, r4, #1048576	; 0x100000
   12404:	e294c601 	adds	ip, r4, #1048576	; 0x100000
   12408:	4a000048 	bmi	12530 <__adddf3+0x2a8>
   1240c:	e3c00603 	bic	r0, r0, #3145728	; 0x300000
   12410:	e1800004 	orr	r0, r0, r4
   12414:	e1800005 	orr	r0, r0, r5
   12418:	e8bd8030 	ldmia	sp!, {r4, r5, pc}
   1241c:	e3300000 	teq	r0, #0	; 0x0
   12420:	13e0300a 	mvnne	r3, #10	; 0xa
   12424:	03a03015 	moveq	r3, #21	; 0x15
   12428:	01a00001 	moveq	r0, r1
   1242c:	03a01000 	moveq	r1, #0	; 0x0
   12430:	e1a02000 	mov	r2, r0
   12434:	e1b0c820 	movs	ip, r0, lsr #16
   12438:	01a02802 	moveq	r2, r2, lsl #16
   1243c:	02833010 	addeq	r3, r3, #16	; 0x10
   12440:	e31204ff 	tst	r2, #-16777216	; 0xff000000
   12444:	01a02402 	moveq	r2, r2, lsl #8
   12448:	02833008 	addeq	r3, r3, #8	; 0x8
   1244c:	e312020f 	tst	r2, #-268435456	; 0xf0000000
   12450:	01a02202 	moveq	r2, r2, lsl #4
   12454:	02833004 	addeq	r3, r3, #4	; 0x4
   12458:	e3120103 	tst	r2, #-1073741824	; 0xc0000000
   1245c:	01a02102 	moveq	r2, r2, lsl #2
   12460:	02833002 	addeq	r3, r3, #2	; 0x2
   12464:	e3120102 	tst	r2, #-2147483648	; 0x80000000
   12468:	02833001 	addeq	r3, r3, #1	; 0x1
   1246c:	e2532020 	subs	r2, r3, #32	; 0x20
   12470:	aa000007 	bge	12494 <__adddf3+0x20c>
   12474:	e292200c 	adds	r2, r2, #12	; 0xc
   12478:	da000004 	ble	12490 <__adddf3+0x208>
   1247c:	e282c014 	add	ip, r2, #20	; 0x14
   12480:	e262200c 	rsb	r2, r2, #12	; 0xc
   12484:	e1a01c10 	mov	r1, r0, lsl ip
   12488:	e1a00230 	mov	r0, r0, lsr r2
   1248c:	ea000004 	b	124a4 <__adddf3+0x21c>
   12490:	e2822014 	add	r2, r2, #20	; 0x14
   12494:	d262c020 	rsble	ip, r2, #32	; 0x20
   12498:	e1a00210 	mov	r0, r0, lsl r2
   1249c:	d1800c31 	orrle	r0, r0, r1, lsr ip
   124a0:	d1a01211 	movle	r1, r1, lsl r2
   124a4:	e0544a03 	subs	r4, r4, r3, lsl #20
   124a8:	caffffd7 	bgt	1240c <__adddf3+0x184>
   124ac:	e1e04a44 	mvn	r4, r4, asr #20
   124b0:	e254401e 	subs	r4, r4, #30	; 0x1e
   124b4:	aa00000d 	bge	124f0 <__adddf3+0x268>
   124b8:	e294400c 	adds	r4, r4, #12	; 0xc
   124bc:	ca000005 	bgt	124d8 <__adddf3+0x250>
   124c0:	e2844014 	add	r4, r4, #20	; 0x14
   124c4:	e2642020 	rsb	r2, r4, #32	; 0x20
   124c8:	e1a01431 	mov	r1, r1, lsr r4
   124cc:	e1811210 	orr	r1, r1, r0, lsl r2
   124d0:	e1850430 	orr	r0, r5, r0, lsr r4
   124d4:	e8bd8030 	ldmia	sp!, {r4, r5, pc}
   124d8:	e264400c 	rsb	r4, r4, #12	; 0xc
   124dc:	e2642020 	rsb	r2, r4, #32	; 0x20
   124e0:	e1a01231 	mov	r1, r1, lsr r2
   124e4:	e1811410 	orr	r1, r1, r0, lsl r4
   124e8:	e1a00005 	mov	r0, r5
   124ec:	e8bd8030 	ldmia	sp!, {r4, r5, pc}
   124f0:	e1a01430 	mov	r1, r0, lsr r4
   124f4:	e1a00005 	mov	r0, r5
   124f8:	e8bd8030 	ldmia	sp!, {r4, r5, pc}
   124fc:	e3340000 	teq	r4, #0	; 0x0
   12500:	02200601 	eoreq	r0, r0, #1048576	; 0x100000
   12504:	02844601 	addeq	r4, r4, #1048576	; 0x100000
   12508:	e2222601 	eor	r2, r2, #1048576	; 0x100000
   1250c:	12455601 	subne	r5, r5, #1048576	; 0x100000
   12510:	eaffff87 	b	12334 <__adddf3+0xac>
   12514:	e24cc601 	sub	ip, ip, #1048576	; 0x100000
   12518:	e000200c 	and	r2, r0, ip
   1251c:	e132000c 	teq	r2, ip
   12520:	038c0702 	orreq	r0, ip, #524288	; 0x80000
   12524:	13a00000 	movne	r0, #0	; 0x0
   12528:	e3a01000 	mov	r1, #0	; 0x0
   1252c:	e12fff1e 	bx	lr
   12530:	e385047f 	orr	r0, r5, #2130706432	; 0x7f000000
   12534:	e380060f 	orr	r0, r0, #15728640	; 0xf00000
   12538:	e3a01000 	mov	r1, #0	; 0x0
   1253c:	e8bd8030 	ldmia	sp!, {r4, r5, pc}
   12540:	e134000c 	teq	r4, ip
   12544:	11a00002 	movne	r0, r2
   12548:	11a01003 	movne	r1, r3
   1254c:	0135000c 	teqeq	r5, ip
   12550:	18bd8030 	ldmneia	sp!, {r4, r5, pc}
   12554:	e1914600 	orrs	r4, r1, r0, lsl #12
   12558:	01934602 	orreqs	r4, r3, r2, lsl #12
   1255c:	01300002 	teqeq	r0, r2
   12560:	13850702 	orrne	r0, r5, #524288	; 0x80000
   12564:	13a01000 	movne	r1, #0	; 0x0
   12568:	e8bd8030 	ldmia	sp!, {r4, r5, pc}

0001256c <__floatunsidf>:
   1256c:	e3300000 	teq	r0, #0	; 0x0
   12570:	03a01000 	moveq	r1, #0	; 0x0
   12574:	012fff1e 	bxeq	lr
   12578:	e92d4030 	stmdb	sp!, {r4, r5, lr}
   1257c:	e3a04101 	mov	r4, #1073741824	; 0x40000000
   12580:	e2844633 	add	r4, r4, #53477376	; 0x3300000
   12584:	e3a05000 	mov	r5, #0	; 0x0
   12588:	e1a01000 	mov	r1, r0
   1258c:	e3a00000 	mov	r0, #0	; 0x0
   12590:	eaffffa1 	b	1241c <__adddf3+0x194>

00012594 <__floatsidf>:
   12594:	e3300000 	teq	r0, #0	; 0x0
   12598:	03a01000 	moveq	r1, #0	; 0x0
   1259c:	012fff1e 	bxeq	lr
   125a0:	e92d4030 	stmdb	sp!, {r4, r5, lr}
   125a4:	e3a04101 	mov	r4, #1073741824	; 0x40000000
   125a8:	e2844633 	add	r4, r4, #53477376	; 0x3300000
   125ac:	e2105102 	ands	r5, r0, #-2147483648	; 0x80000000
   125b0:	42600000 	rsbmi	r0, r0, #0	; 0x0
   125b4:	e1a01000 	mov	r1, r0
   125b8:	e3a00000 	mov	r0, #0	; 0x0
   125bc:	eaffff96 	b	1241c <__adddf3+0x194>

000125c0 <__extendsfdf2>:
   125c0:	e1b02080 	movs	r2, r0, lsl #1
   125c4:	0a000007 	beq	125e8 <__extendsfdf2+0x28>
   125c8:	e1a001c2 	mov	r0, r2, asr #3
   125cc:	e1a00060 	mov	r0, r0, rrx
   125d0:	e1a01e02 	mov	r1, r2, lsl #28
   125d4:	e21224ff 	ands	r2, r2, #-16777216	; 0xff000000
   125d8:	0a000005 	beq	125f4 <__extendsfdf2+0x34>
   125dc:	e33204ff 	teq	r2, #-16777216	; 0xff000000
   125e0:	1220030e 	eorne	r0, r0, #939524096	; 0x38000000
   125e4:	e12fff1e 	bx	lr
   125e8:	e1a00000 	nop			(mov r0,r0)
   125ec:	e3a01000 	mov	r1, #0	; 0x0
   125f0:	e12fff1e 	bx	lr
   125f4:	e92d4030 	stmdb	sp!, {r4, r5, lr}
   125f8:	e3a0430e 	mov	r4, #939524096	; 0x38000000
   125fc:	e2844601 	add	r4, r4, #1048576	; 0x100000
   12600:	e2005102 	and	r5, r0, #-2147483648	; 0x80000000
   12604:	e3c00102 	bic	r0, r0, #-2147483648	; 0x80000000
   12608:	eaffff83 	b	1241c <__adddf3+0x194>

0001260c <__muldf3>:
   1260c:	e92d4070 	stmdb	sp!, {r4, r5, r6, lr}
   12610:	e3a0c47f 	mov	ip, #2130706432	; 0x7f000000
   12614:	e38cc60f 	orr	ip, ip, #15728640	; 0xf00000
   12618:	e000400c 	and	r4, r0, ip
   1261c:	e002500c 	and	r5, r2, ip
   12620:	e134000c 	teq	r4, ip
   12624:	1135000c 	teqne	r5, ip
   12628:	0a000079 	beq	12814 <__muldf3+0x208>
   1262c:	e1916080 	orrs	r6, r1, r0, lsl #1
   12630:	11936082 	orrnes	r6, r3, r2, lsl #1
   12634:	0a00002f 	beq	126f8 <__muldf3+0xec>
   12638:	e1b040a4 	movs	r4, r4, lsr #1
   1263c:	13350000 	teqne	r5, #0	; 0x0
   12640:	0a00005f 	beq	127c4 <__muldf3+0x1b8>
   12644:	e08440c5 	add	r4, r4, r5, asr #1
   12648:	e1300002 	teq	r0, r2
   1264c:	43844902 	orrmi	r4, r4, #32768	; 0x8000
   12650:	e1c0008c 	bic	r0, r0, ip, lsl #1
   12654:	e1c2208c 	bic	r2, r2, ip, lsl #1
   12658:	e3800601 	orr	r0, r0, #1048576	; 0x100000
   1265c:	e3822601 	orr	r2, r2, #1048576	; 0x100000
   12660:	e08ec391 	umull	ip, lr, r1, r3
   12664:	e3a05000 	mov	r5, #0	; 0x0
   12668:	e0a5e291 	umlal	lr, r5, r1, r2
   1266c:	e0a5e390 	umlal	lr, r5, r0, r3
   12670:	e3a06000 	mov	r6, #0	; 0x0
   12674:	e0a65290 	umlal	r5, r6, r0, r2
   12678:	e33c0000 	teq	ip, #0	; 0x0
   1267c:	138ee001 	orrne	lr, lr, #1	; 0x1
   12680:	e1a00804 	mov	r0, r4, lsl #16
   12684:	e3c44902 	bic	r4, r4, #32768	; 0x8000
   12688:	e3160c02 	tst	r6, #512	; 0x200
   1268c:	0a000004 	beq	126a4 <__muldf3+0x98>
   12690:	e2844702 	add	r4, r4, #524288	; 0x80000
   12694:	e1b060a6 	movs	r6, r6, lsr #1
   12698:	e1b05065 	movs	r5, r5, rrx
   1269c:	e1b0e06e 	movs	lr, lr, rrx
   126a0:	238ee001 	orrcs	lr, lr, #1	; 0x1
   126a4:	e1800606 	orr	r0, r0, r6, lsl #12
   126a8:	e1800a25 	orr	r0, r0, r5, lsr #20
   126ac:	e1a01605 	mov	r1, r5, lsl #12
   126b0:	e1811a2e 	orr	r1, r1, lr, lsr #20
   126b4:	e244473e 	sub	r4, r4, #16252928	; 0xf80000
   126b8:	e254441f 	subs	r4, r4, #520093696	; 0x1f000000
   126bc:	da000011 	ble	12708 <__muldf3+0xfc>
   126c0:	e1b0e60e 	movs	lr, lr, lsl #12
   126c4:	5a000005 	bpl	126e0 <__muldf3+0xd4>
   126c8:	e2911001 	adds	r1, r1, #1	; 0x1
   126cc:	e2a00000 	adc	r0, r0, #0	; 0x0
   126d0:	e33e0102 	teq	lr, #-2147483648	; 0x80000000
   126d4:	03c11001 	biceq	r1, r1, #1	; 0x1
   126d8:	e3100602 	tst	r0, #2097152	; 0x200000
   126dc:	12844702 	addne	r4, r4, #524288	; 0x80000
   126e0:	e294c702 	adds	ip, r4, #524288	; 0x80000
   126e4:	e31c0101 	tst	ip, #1073741824	; 0x40000000
   126e8:	1a000055 	bne	12844 <__muldf3+0x238>
   126ec:	e3c00603 	bic	r0, r0, #3145728	; 0x300000
   126f0:	e1800084 	orr	r0, r0, r4, lsl #1
   126f4:	e8bd8070 	ldmia	sp!, {r4, r5, r6, pc}
   126f8:	e0200002 	eor	r0, r0, r2
   126fc:	e2000102 	and	r0, r0, #-2147483648	; 0x80000000
   12700:	e3a01000 	mov	r1, #0	; 0x0
   12704:	e8bd8070 	ldmia	sp!, {r4, r5, r6, pc}
   12708:	e374076a 	cmn	r4, #27787264	; 0x1a80000
   1270c:	d3a01000 	movle	r1, #0	; 0x0
   12710:	d2000102 	andle	r0, r0, #-2147483648	; 0x80000000
   12714:	d8bd8070 	ldmleia	sp!, {r4, r5, r6, pc}
   12718:	e1e049c4 	mvn	r4, r4, asr #19
   1271c:	e254401e 	subs	r4, r4, #30	; 0x1e
   12720:	aa00001b 	bge	12794 <__muldf3+0x188>
   12724:	e294400c 	adds	r4, r4, #12	; 0xc
   12728:	ca00000d 	bgt	12764 <__muldf3+0x158>
   1272c:	e2844014 	add	r4, r4, #20	; 0x14
   12730:	e2645020 	rsb	r5, r4, #32	; 0x20
   12734:	e1a03511 	mov	r3, r1, lsl r5
   12738:	e1a01431 	mov	r1, r1, lsr r4
   1273c:	e1811510 	orr	r1, r1, r0, lsl r5
   12740:	e1b00080 	movs	r0, r0, lsl #1
   12744:	e1a00430 	mov	r0, r0, lsr r4
   12748:	e1a00060 	mov	r0, r0, rrx
   1274c:	e0911fa3 	adds	r1, r1, r3, lsr #31
   12750:	e2a00000 	adc	r0, r0, #0	; 0x0
   12754:	e33e0000 	teq	lr, #0	; 0x0
   12758:	03330102 	teqeq	r3, #-2147483648	; 0x80000000
   1275c:	03c11001 	biceq	r1, r1, #1	; 0x1
   12760:	e8bd8070 	ldmia	sp!, {r4, r5, r6, pc}
   12764:	e264400c 	rsb	r4, r4, #12	; 0xc
   12768:	e2645020 	rsb	r5, r4, #32	; 0x20
   1276c:	e1a03411 	mov	r3, r1, lsl r4
   12770:	e1a01531 	mov	r1, r1, lsr r5
   12774:	e1811410 	orr	r1, r1, r0, lsl r4
   12778:	e2000102 	and	r0, r0, #-2147483648	; 0x80000000
   1277c:	e0911fa3 	adds	r1, r1, r3, lsr #31
   12780:	e2a00000 	adc	r0, r0, #0	; 0x0
   12784:	e33e0000 	teq	lr, #0	; 0x0
   12788:	03330102 	teqeq	r3, #-2147483648	; 0x80000000
   1278c:	03c11001 	biceq	r1, r1, #1	; 0x1
   12790:	e8bd8070 	ldmia	sp!, {r4, r5, r6, pc}
   12794:	e2645020 	rsb	r5, r4, #32	; 0x20
   12798:	e1a06511 	mov	r6, r1, lsl r5
   1279c:	e1a03431 	mov	r3, r1, lsr r4
   127a0:	e1833510 	orr	r3, r3, r0, lsl r5
   127a4:	e1a01430 	mov	r1, r0, lsr r4
   127a8:	e2000102 	and	r0, r0, #-2147483648	; 0x80000000
   127ac:	e1c11430 	bic	r1, r1, r0, lsr r4
   127b0:	e0811fa3 	add	r1, r1, r3, lsr #31
   127b4:	e196600e 	orrs	r6, r6, lr
   127b8:	03330102 	teqeq	r3, #-2147483648	; 0x80000000
   127bc:	03c11001 	biceq	r1, r1, #1	; 0x1
   127c0:	e8bd8070 	ldmia	sp!, {r4, r5, r6, pc}
   127c4:	e3a0e000 	mov	lr, #0	; 0x0
   127c8:	e3340000 	teq	r4, #0	; 0x0
   127cc:	1a000008 	bne	127f4 <__muldf3+0x1e8>
   127d0:	e2006102 	and	r6, r0, #-2147483648	; 0x80000000
   127d4:	e1b01081 	movs	r1, r1, lsl #1
   127d8:	e0ae0080 	adc	r0, lr, r0, lsl #1
   127dc:	e3100601 	tst	r0, #1048576	; 0x100000
   127e0:	02444702 	subeq	r4, r4, #524288	; 0x80000
   127e4:	0afffffa 	beq	127d4 <__muldf3+0x1c8>
   127e8:	e1800006 	orr	r0, r0, r6
   127ec:	e3350000 	teq	r5, #0	; 0x0
   127f0:	1affff93 	bne	12644 <__muldf3+0x38>
   127f4:	e2026102 	and	r6, r2, #-2147483648	; 0x80000000
   127f8:	e1b03083 	movs	r3, r3, lsl #1
   127fc:	e0ae2082 	adc	r2, lr, r2, lsl #1
   12800:	e3120601 	tst	r2, #1048576	; 0x100000
   12804:	02455601 	subeq	r5, r5, #1048576	; 0x100000
   12808:	0afffffa 	beq	127f8 <__muldf3+0x1ec>
   1280c:	e1822006 	orr	r2, r2, r6
   12810:	eaffff8b 	b	12644 <__muldf3+0x38>
   12814:	e1916080 	orrs	r6, r1, r0, lsl #1
   12818:	11936082 	orrnes	r6, r3, r2, lsl #1
   1281c:	0a00000d 	beq	12858 <__muldf3+0x24c>
   12820:	e134000c 	teq	r4, ip
   12824:	1a000001 	bne	12830 <__muldf3+0x224>
   12828:	e1916600 	orrs	r6, r1, r0, lsl #12
   1282c:	1a000009 	bne	12858 <__muldf3+0x24c>
   12830:	e135000c 	teq	r5, ip
   12834:	1a000001 	bne	12840 <__muldf3+0x234>
   12838:	e1936602 	orrs	r6, r3, r2, lsl #12
   1283c:	1a000005 	bne	12858 <__muldf3+0x24c>
   12840:	e0200002 	eor	r0, r0, r2
   12844:	e2000102 	and	r0, r0, #-2147483648	; 0x80000000
   12848:	e380047f 	orr	r0, r0, #2130706432	; 0x7f000000
   1284c:	e380060f 	orr	r0, r0, #15728640	; 0xf00000
   12850:	e3a01000 	mov	r1, #0	; 0x0
   12854:	e8bd8070 	ldmia	sp!, {r4, r5, r6, pc}
   12858:	e3a0047f 	mov	r0, #2130706432	; 0x7f000000
   1285c:	e380073e 	orr	r0, r0, #16252928	; 0xf80000
   12860:	e8bd8070 	ldmia	sp!, {r4, r5, r6, pc}

00012864 <__divdf3>:
   12864:	e92d4070 	stmdb	sp!, {r4, r5, r6, lr}
   12868:	e3a0c47f 	mov	ip, #2130706432	; 0x7f000000
   1286c:	e38cc60f 	orr	ip, ip, #15728640	; 0xf00000
   12870:	e000400c 	and	r4, r0, ip
   12874:	e002500c 	and	r5, r2, ip
   12878:	e134000c 	teq	r4, ip
   1287c:	1135000c 	teqne	r5, ip
   12880:	11916080 	orrnes	r6, r1, r0, lsl #1
   12884:	11936082 	orrnes	r6, r3, r2, lsl #1
   12888:	0a00007e 	beq	12a88 <__divdf3+0x224>
   1288c:	e1b040a4 	movs	r4, r4, lsr #1
   12890:	13350000 	teqne	r5, #0	; 0x0
   12894:	0a000067 	beq	12a38 <__divdf3+0x1d4>
   12898:	e04440c5 	sub	r4, r4, r5, asr #1
   1289c:	e020e002 	eor	lr, r0, r2
   128a0:	e3a05201 	mov	r5, #268435456	; 0x10000000
   128a4:	e1a02602 	mov	r2, r2, lsl #12
   128a8:	e1852222 	orr	r2, r5, r2, lsr #4
   128ac:	e1822c23 	orr	r2, r2, r3, lsr #24
   128b0:	e1b03403 	movs	r3, r3, lsl #8
   128b4:	e1a00600 	mov	r0, r0, lsl #12
   128b8:	01320005 	teqeq	r2, r5
   128bc:	0a00004d 	beq	129f8 <__divdf3+0x194>
   128c0:	e1855220 	orr	r5, r5, r0, lsr #4
   128c4:	e1855c21 	orr	r5, r5, r1, lsr #24
   128c8:	e1a06401 	mov	r6, r1, lsl #8
   128cc:	e20e0102 	and	r0, lr, #-2147483648	; 0x80000000
   128d0:	e1550002 	cmp	r5, r2
   128d4:	01560003 	cmpeq	r6, r3
   128d8:	2a000002 	bcs	128e8 <__divdf3+0x84>
   128dc:	e2444702 	sub	r4, r4, #524288	; 0x80000
   128e0:	e1b020a2 	movs	r2, r2, lsr #1
   128e4:	e1a03063 	mov	r3, r3, rrx
   128e8:	e284441f 	add	r4, r4, #520093696	; 0x1f000000
   128ec:	e284473e 	add	r4, r4, #16252928	; 0xf80000
   128f0:	e374076a 	cmn	r4, #27787264	; 0x1a80000
   128f4:	daffff80 	ble	126fc <__muldf3+0xf0>
   128f8:	e15400ac 	cmp	r4, ip, lsr #1
   128fc:	aaffffd0 	bge	12844 <__muldf3+0x238>
   12900:	e0566003 	subs	r6, r6, r3
   12904:	e0c55002 	sbc	r5, r5, r2
   12908:	e1b020a2 	movs	r2, r2, lsr #1
   1290c:	e1a03063 	mov	r3, r3, rrx
   12910:	e3a01601 	mov	r1, #1048576	; 0x100000
   12914:	e3a0c702 	mov	ip, #524288	; 0x80000
   12918:	e056e003 	subs	lr, r6, r3
   1291c:	e0d5e002 	sbcs	lr, r5, r2
   12920:	20466003 	subcs	r6, r6, r3
   12924:	21a0500e 	movcs	r5, lr
   12928:	2181100c 	orrcs	r1, r1, ip
   1292c:	e1b020a2 	movs	r2, r2, lsr #1
   12930:	e1a03063 	mov	r3, r3, rrx
   12934:	e056e003 	subs	lr, r6, r3
   12938:	e0d5e002 	sbcs	lr, r5, r2
   1293c:	20466003 	subcs	r6, r6, r3
   12940:	21a0500e 	movcs	r5, lr
   12944:	218110ac 	orrcs	r1, r1, ip, lsr #1
   12948:	e1b020a2 	movs	r2, r2, lsr #1
   1294c:	e1a03063 	mov	r3, r3, rrx
   12950:	e056e003 	subs	lr, r6, r3
   12954:	e0d5e002 	sbcs	lr, r5, r2
   12958:	20466003 	subcs	r6, r6, r3
   1295c:	21a0500e 	movcs	r5, lr
   12960:	2181112c 	orrcs	r1, r1, ip, lsr #2
   12964:	e1b020a2 	movs	r2, r2, lsr #1
   12968:	e1a03063 	mov	r3, r3, rrx
   1296c:	e056e003 	subs	lr, r6, r3
   12970:	e0d5e002 	sbcs	lr, r5, r2
   12974:	20466003 	subcs	r6, r6, r3
   12978:	21a0500e 	movcs	r5, lr
   1297c:	218111ac 	orrcs	r1, r1, ip, lsr #3
   12980:	e195e006 	orrs	lr, r5, r6
   12984:	0a00000d 	beq	129c0 <__divdf3+0x15c>
   12988:	e1a05205 	mov	r5, r5, lsl #4
   1298c:	e1855e26 	orr	r5, r5, r6, lsr #28
   12990:	e1a06206 	mov	r6, r6, lsl #4
   12994:	e1a02182 	mov	r2, r2, lsl #3
   12998:	e1822ea3 	orr	r2, r2, r3, lsr #29
   1299c:	e1a03183 	mov	r3, r3, lsl #3
   129a0:	e1b0c22c 	movs	ip, ip, lsr #4
   129a4:	1affffdb 	bne	12918 <__divdf3+0xb4>
   129a8:	e3100601 	tst	r0, #1048576	; 0x100000
   129ac:	1a000006 	bne	129cc <__divdf3+0x168>
   129b0:	e1800001 	orr	r0, r0, r1
   129b4:	e3a01000 	mov	r1, #0	; 0x0
   129b8:	e3a0c102 	mov	ip, #-2147483648	; 0x80000000
   129bc:	eaffffd5 	b	12918 <__divdf3+0xb4>
   129c0:	e3100601 	tst	r0, #1048576	; 0x100000
   129c4:	01800001 	orreq	r0, r0, r1
   129c8:	03a01000 	moveq	r1, #0	; 0x0
   129cc:	e3540000 	cmp	r4, #0	; 0x0
   129d0:	da000016 	ble	12a30 <__divdf3+0x1cc>
   129d4:	e055c002 	subs	ip, r5, r2
   129d8:	0056c003 	subeqs	ip, r6, r3
   129dc:	e2b11000 	adcs	r1, r1, #0	; 0x0
   129e0:	e2a00000 	adc	r0, r0, #0	; 0x0
   129e4:	e33c0000 	teq	ip, #0	; 0x0
   129e8:	03c11001 	biceq	r1, r1, #1	; 0x1
   129ec:	e3c00601 	bic	r0, r0, #1048576	; 0x100000
   129f0:	e1800084 	orr	r0, r0, r4, lsl #1
   129f4:	e8bd8070 	ldmia	sp!, {r4, r5, r6, pc}
   129f8:	e20ee102 	and	lr, lr, #-2147483648	; 0x80000000
   129fc:	e18e0620 	orr	r0, lr, r0, lsr #12
   12a00:	e284441f 	add	r4, r4, #520093696	; 0x1f000000
   12a04:	e284473e 	add	r4, r4, #16252928	; 0xf80000
   12a08:	e15400ac 	cmp	r4, ip, lsr #1
   12a0c:	aaffff8c 	bge	12844 <__muldf3+0x238>
   12a10:	e3540000 	cmp	r4, #0	; 0x0
   12a14:	c1800084 	orrgt	r0, r0, r4, lsl #1
   12a18:	c8bd8070 	ldmgtia	sp!, {r4, r5, r6, pc}
   12a1c:	e374076a 	cmn	r4, #27787264	; 0x1a80000
   12a20:	daffff35 	ble	126fc <__muldf3+0xf0>
   12a24:	e3800601 	orr	r0, r0, #1048576	; 0x100000
   12a28:	e3a0e000 	mov	lr, #0	; 0x0
   12a2c:	eaffff39 	b	12718 <__muldf3+0x10c>
   12a30:	e185e006 	orr	lr, r5, r6
   12a34:	eaffff37 	b	12718 <__muldf3+0x10c>
   12a38:	e3a0e000 	mov	lr, #0	; 0x0
   12a3c:	e3340000 	teq	r4, #0	; 0x0
   12a40:	1a000008 	bne	12a68 <__divdf3+0x204>
   12a44:	e2006102 	and	r6, r0, #-2147483648	; 0x80000000
   12a48:	e1b01081 	movs	r1, r1, lsl #1
   12a4c:	e0ae0080 	adc	r0, lr, r0, lsl #1
   12a50:	e3100601 	tst	r0, #1048576	; 0x100000
   12a54:	02444702 	subeq	r4, r4, #524288	; 0x80000
   12a58:	0afffffa 	beq	12a48 <__divdf3+0x1e4>
   12a5c:	e1800006 	orr	r0, r0, r6
   12a60:	e3350000 	teq	r5, #0	; 0x0
   12a64:	1affff8b 	bne	12898 <__divdf3+0x34>
   12a68:	e2026102 	and	r6, r2, #-2147483648	; 0x80000000
   12a6c:	e1b03083 	movs	r3, r3, lsl #1
   12a70:	e0ae2082 	adc	r2, lr, r2, lsl #1
   12a74:	e3120601 	tst	r2, #1048576	; 0x100000
   12a78:	02455601 	subeq	r5, r5, #1048576	; 0x100000
   12a7c:	0afffffa 	beq	12a6c <__divdf3+0x208>
   12a80:	e1822006 	orr	r2, r2, r6
   12a84:	eaffff83 	b	12898 <__divdf3+0x34>
   12a88:	e134000c 	teq	r4, ip
   12a8c:	0135000c 	teqeq	r5, ip
   12a90:	0affff70 	beq	12858 <__muldf3+0x24c>
   12a94:	e134000c 	teq	r4, ip
   12a98:	1a000002 	bne	12aa8 <__divdf3+0x244>
   12a9c:	e1914600 	orrs	r4, r1, r0, lsl #12
   12aa0:	1affff6c 	bne	12858 <__muldf3+0x24c>
   12aa4:	eaffff65 	b	12840 <__muldf3+0x234>
   12aa8:	e135000c 	teq	r5, ip
   12aac:	1a000002 	bne	12abc <__divdf3+0x258>
   12ab0:	e1935602 	orrs	r5, r3, r2, lsl #12
   12ab4:	1affff67 	bne	12858 <__muldf3+0x24c>
   12ab8:	eaffff0e 	b	126f8 <__muldf3+0xec>
   12abc:	e1914080 	orrs	r4, r1, r0, lsl #1
   12ac0:	1affff5e 	bne	12840 <__muldf3+0x234>
   12ac4:	e1935082 	orrs	r5, r3, r2, lsl #1
   12ac8:	1affff0a 	bne	126f8 <__muldf3+0xec>
   12acc:	eaffff61 	b	12858 <__muldf3+0x24c>

00012ad0 <__gedf2>:
   12ad0:	e3e0c000 	mvn	ip, #0	; 0x0
   12ad4:	ea000002 	b	12ae4 <__cmpdf2+0x4>

00012ad8 <__ledf2>:
   12ad8:	e3a0c001 	mov	ip, #1	; 0x1
   12adc:	ea000000 	b	12ae4 <__cmpdf2+0x4>

00012ae0 <__cmpdf2>:
   12ae0:	e3a0c001 	mov	ip, #1	; 0x1
   12ae4:	e92d4030 	stmdb	sp!, {r4, r5, lr}
   12ae8:	e3a0e47f 	mov	lr, #2130706432	; 0x7f000000
   12aec:	e38ee60f 	orr	lr, lr, #15728640	; 0xf00000
   12af0:	e000400e 	and	r4, r0, lr
   12af4:	e002500e 	and	r5, r2, lr
   12af8:	e134000e 	teq	r4, lr
   12afc:	1135000e 	teqne	r5, lr
   12b00:	0a000011 	beq	12b4c <__cmpdf2+0x6c>
   12b04:	e191c080 	orrs	ip, r1, r0, lsl #1
   12b08:	0193c082 	orreqs	ip, r3, r2, lsl #1
   12b0c:	11300002 	teqne	r0, r2
   12b10:	01310003 	teqeq	r1, r3
   12b14:	03a00000 	moveq	r0, #0	; 0x0
   12b18:	08bd8030 	ldmeqia	sp!, {r4, r5, pc}
   12b1c:	e1300002 	teq	r0, r2
   12b20:	41a00fc0 	movmi	r0, r0, asr #31
   12b24:	43800001 	orrmi	r0, r0, #1	; 0x1
   12b28:	48bd8030 	ldmmiia	sp!, {r4, r5, pc}
   12b2c:	e1540005 	cmp	r4, r5
   12b30:	01a00600 	moveq	r0, r0, lsl #12
   12b34:	01500602 	cmpeq	r0, r2, lsl #12
   12b38:	01510003 	cmpeq	r1, r3
   12b3c:	21a00fc2 	movcs	r0, r2, asr #31
   12b40:	31e00fc2 	mvncc	r0, r2, asr #31
   12b44:	e3800001 	orr	r0, r0, #1	; 0x1
   12b48:	e8bd8030 	ldmia	sp!, {r4, r5, pc}
   12b4c:	e134000e 	teq	r4, lr
   12b50:	1a000001 	bne	12b5c <__cmpdf2+0x7c>
   12b54:	e1911600 	orrs	r1, r1, r0, lsl #12
   12b58:	1a000003 	bne	12b6c <__cmpdf2+0x8c>
   12b5c:	e135000e 	teq	r5, lr
   12b60:	1affffe7 	bne	12b04 <__cmpdf2+0x24>
   12b64:	e1933602 	orrs	r3, r3, r2, lsl #12
   12b68:	0affffe5 	beq	12b04 <__cmpdf2+0x24>
   12b6c:	e1a0000c 	mov	r0, ip
   12b70:	e8bd8030 	ldmia	sp!, {r4, r5, pc}

00012b74 <__fixdfsi>:
   12b74:	e191c080 	orrs	ip, r1, r0, lsl #1
   12b78:	0a000014 	beq	12bd0 <__fixdfsi+0x5c>
   12b7c:	e1a03063 	mov	r3, r3, rrx
   12b80:	e3a0c47f 	mov	ip, #2130706432	; 0x7f000000
   12b84:	e38cc60f 	orr	ip, ip, #15728640	; 0xf00000
   12b88:	e000200c 	and	r2, r0, ip
   12b8c:	e132000c 	teq	r2, ip
   12b90:	0a000010 	beq	12bd8 <__fixdfsi+0x64>
   12b94:	e3ccc101 	bic	ip, ip, #1073741824	; 0x40000000
   12b98:	e152000c 	cmp	r2, ip
   12b9c:	3a00000b 	bcc	12bd0 <__fixdfsi+0x5c>
   12ba0:	e28cc61f 	add	ip, ip, #32505856	; 0x1f00000
   12ba4:	e152000c 	cmp	r2, ip
   12ba8:	2a00000c 	bcs	12be0 <__fixdfsi+0x6c>
   12bac:	e062200c 	rsb	r2, r2, ip
   12bb0:	e1a0c580 	mov	ip, r0, lsl #11
   12bb4:	e38cc102 	orr	ip, ip, #-2147483648	; 0x80000000
   12bb8:	e18ccaa1 	orr	ip, ip, r1, lsr #21
   12bbc:	e1a02a22 	mov	r2, r2, lsr #20
   12bc0:	e3130102 	tst	r3, #-2147483648	; 0x80000000
   12bc4:	e1a0023c 	mov	r0, ip, lsr r2
   12bc8:	12600000 	rsbne	r0, r0, #0	; 0x0
   12bcc:	e12fff1e 	bx	lr
   12bd0:	e3a00000 	mov	r0, #0	; 0x0
   12bd4:	e12fff1e 	bx	lr
   12bd8:	e1911600 	orrs	r1, r1, r0, lsl #12
   12bdc:	1a000002 	bne	12bec <__fixdfsi+0x78>
   12be0:	e2130102 	ands	r0, r3, #-2147483648	; 0x80000000
   12be4:	03e00102 	mvneq	r0, #-2147483648	; 0x80000000
   12be8:	e12fff1e 	bx	lr
   12bec:	e3a00000 	mov	r0, #0	; 0x0
   12bf0:	e12fff1e 	bx	lr

00012bf4 <__truncdfsf2>:
   12bf4:	e1912080 	orrs	r2, r1, r0, lsl #1
   12bf8:	01a00062 	moveq	r0, r2, rrx
   12bfc:	012fff1e 	bxeq	lr
   12c00:	e3a0c47f 	mov	ip, #2130706432	; 0x7f000000
   12c04:	e38cc60f 	orr	ip, ip, #15728640	; 0xf00000
   12c08:	e00c2000 	and	r2, ip, r0
   12c0c:	e132000c 	teq	r2, ip
   12c10:	0a000013 	beq	12c64 <__truncdfsf2+0x70>
   12c14:	e1c0000c 	bic	r0, r0, ip
   12c18:	e352030e 	cmp	r2, #939524096	; 0x38000000
   12c1c:	9a000018 	bls	12c84 <__truncdfsf2+0x90>
   12c20:	e1b03ea1 	movs	r3, r1, lsr #29
   12c24:	e0a33180 	adc	r3, r3, r0, lsl #3
   12c28:	e1a01181 	mov	r1, r1, lsl #3
   12c2c:	e3310102 	teq	r1, #-2147483648	; 0x80000000
   12c30:	03c33001 	biceq	r3, r3, #1	; 0x1
   12c34:	e3130502 	tst	r3, #8388608	; 0x800000
   12c38:	12822601 	addne	r2, r2, #1048576	; 0x100000
   12c3c:	13c33502 	bicne	r3, r3, #8388608	; 0x800000
   12c40:	e3a0c101 	mov	ip, #1073741824	; 0x40000000
   12c44:	e38cc67f 	orr	ip, ip, #133169152	; 0x7f00000
   12c48:	e152000c 	cmp	r2, ip
   12c4c:	2a000008 	bcs	12c74 <__truncdfsf2+0x80>
   12c50:	e1b00080 	movs	r0, r0, lsl #1
   12c54:	e1a02202 	mov	r2, r2, lsl #4
   12c58:	e1830062 	orr	r0, r3, r2, rrx
   12c5c:	e2200101 	eor	r0, r0, #1073741824	; 0x40000000
   12c60:	e12fff1e 	bx	lr
   12c64:	e1911600 	orrs	r1, r1, r0, lsl #12
   12c68:	13a0047f 	movne	r0, #2130706432	; 0x7f000000
   12c6c:	13800503 	orrne	r0, r0, #12582912	; 0xc00000
   12c70:	112fff1e 	bxne	lr
   12c74:	e2000102 	and	r0, r0, #-2147483648	; 0x80000000
   12c78:	e380047f 	orr	r0, r0, #2130706432	; 0x7f000000
   12c7c:	e3800502 	orr	r0, r0, #8388608	; 0x800000
   12c80:	e12fff1e 	bx	lr
   12c84:	e25225da 	subs	r2, r2, #914358272	; 0x36800000
   12c88:	d2000102 	andle	r0, r0, #-2147483648	; 0x80000000
   12c8c:	d12fff1e 	bxle	lr
   12c90:	e3800601 	orr	r0, r0, #1048576	; 0x100000
   12c94:	e1a02a22 	mov	r2, r2, lsr #20
   12c98:	e2622019 	rsb	r2, r2, #25	; 0x19
   12c9c:	e3520014 	cmp	r2, #20	; 0x14
   12ca0:	ca00000a 	bgt	12cd0 <__truncdfsf2+0xdc>
   12ca4:	e262c020 	rsb	ip, r2, #32	; 0x20
   12ca8:	e1a03c11 	mov	r3, r1, lsl ip
   12cac:	e1a01231 	mov	r1, r1, lsr r2
   12cb0:	e1811c10 	orr	r1, r1, r0, lsl ip
   12cb4:	e1b00080 	movs	r0, r0, lsl #1
   12cb8:	e1a00230 	mov	r0, r0, lsr r2
   12cbc:	e1a00060 	mov	r0, r0, rrx
   12cc0:	e3330000 	teq	r3, #0	; 0x0
   12cc4:	13811001 	orrne	r1, r1, #1	; 0x1
   12cc8:	e3a0230e 	mov	r2, #939524096	; 0x38000000
   12ccc:	eaffffd3 	b	12c20 <__truncdfsf2+0x2c>
   12cd0:	e2622020 	rsb	r2, r2, #32	; 0x20
   12cd4:	e262c020 	rsb	ip, r2, #32	; 0x20
   12cd8:	e1a03211 	mov	r3, r1, lsl r2
   12cdc:	e1a01c31 	mov	r1, r1, lsr ip
   12ce0:	e1811210 	orr	r1, r1, r0, lsl r2
   12ce4:	e2000102 	and	r0, r0, #-2147483648	; 0x80000000
   12ce8:	eafffff4 	b	12cc0 <__truncdfsf2+0xcc>

00012cec <__subsf3>:
   12cec:	e2211102 	eor	r1, r1, #-2147483648	; 0x80000000

00012cf0 <__addsf3>:
   12cf0:	e0202001 	eor	r2, r0, r1
   12cf4:	e3320102 	teq	r2, #-2147483648	; 0x80000000
   12cf8:	0a00005a 	beq	12e68 <__addsf3+0x178>
   12cfc:	e3d02102 	bics	r2, r0, #-2147483648	; 0x80000000
   12d00:	01a00001 	moveq	r0, r1
   12d04:	13d12102 	bicnes	r2, r1, #-2147483648	; 0x80000000
   12d08:	012fff1e 	bxeq	lr
   12d0c:	e3a0c4ff 	mov	ip, #-16777216	; 0xff000000
   12d10:	e00020ac 	and	r2, r0, ip, lsr #1
   12d14:	e00130ac 	and	r3, r1, ip, lsr #1
   12d18:	e13200ac 	teq	r2, ip, lsr #1
   12d1c:	113300ac 	teqne	r3, ip, lsr #1
   12d20:	0a000059 	beq	12e8c <__addsf3+0x19c>
   12d24:	e0533002 	subs	r3, r3, r2
   12d28:	c0822003 	addgt	r2, r2, r3
   12d2c:	c0201001 	eorgt	r1, r0, r1
   12d30:	c0210000 	eorgt	r0, r1, r0
   12d34:	c0201001 	eorgt	r1, r0, r1
   12d38:	b2633000 	rsblt	r3, r3, #0	; 0x0
   12d3c:	e3530532 	cmp	r3, #209715200	; 0xc800000
   12d40:	812fff1e 	bxhi	lr
   12d44:	e3100102 	tst	r0, #-2147483648	; 0x80000000
   12d48:	e3800502 	orr	r0, r0, #8388608	; 0x800000
   12d4c:	e3c004ff 	bic	r0, r0, #-16777216	; 0xff000000
   12d50:	12600000 	rsbne	r0, r0, #0	; 0x0
   12d54:	e3110102 	tst	r1, #-2147483648	; 0x80000000
   12d58:	e3811502 	orr	r1, r1, #8388608	; 0x800000
   12d5c:	e3c114ff 	bic	r1, r1, #-16777216	; 0xff000000
   12d60:	12611000 	rsbne	r1, r1, #0	; 0x0
   12d64:	e1320003 	teq	r2, r3
   12d68:	0a000038 	beq	12e50 <__addsf3+0x160>
   12d6c:	e1b03ba3 	movs	r3, r3, lsr #23
   12d70:	13320502 	teqne	r2, #8388608	; 0x800000
   12d74:	11a00080 	movne	r0, r0, lsl #1
   12d78:	12422502 	subne	r2, r2, #8388608	; 0x800000
   12d7c:	12433001 	subne	r3, r3, #1	; 0x1
   12d80:	e1a0c351 	mov	ip, r1, asr r3
   12d84:	e2633020 	rsb	r3, r3, #32	; 0x20
   12d88:	e1a01311 	mov	r1, r1, lsl r3
   12d8c:	e080000c 	add	r0, r0, ip
   12d90:	e2103102 	ands	r3, r0, #-2147483648	; 0x80000000
   12d94:	5a000001 	bpl	12da0 <__addsf3+0xb0>
   12d98:	e2711000 	rsbs	r1, r1, #0	; 0x0
   12d9c:	e2e00000 	rsc	r0, r0, #0	; 0x0
   12da0:	e3500502 	cmp	r0, #8388608	; 0x800000
   12da4:	3a000014 	bcc	12dfc <__addsf3+0x10c>
   12da8:	e3500401 	cmp	r0, #16777216	; 0x1000000
   12dac:	3a000007 	bcc	12dd0 <__addsf3+0xe0>
   12db0:	e3500402 	cmp	r0, #33554432	; 0x2000000
   12db4:	3a000002 	bcc	12dc4 <__addsf3+0xd4>
   12db8:	e1b000a0 	movs	r0, r0, lsr #1
   12dbc:	e1a01061 	mov	r1, r1, rrx
   12dc0:	e2822502 	add	r2, r2, #8388608	; 0x800000
   12dc4:	e1b000a0 	movs	r0, r0, lsr #1
   12dc8:	e1a01061 	mov	r1, r1, rrx
   12dcc:	e2822502 	add	r2, r2, #8388608	; 0x800000
   12dd0:	e0800fa1 	add	r0, r0, r1, lsr #31
   12dd4:	e3310102 	teq	r1, #-2147483648	; 0x80000000
   12dd8:	03c00001 	biceq	r0, r0, #1	; 0x1
   12ddc:	e3100401 	tst	r0, #16777216	; 0x1000000
   12de0:	12822502 	addne	r2, r2, #8388608	; 0x800000
   12de4:	e352047f 	cmp	r2, #2130706432	; 0x7f000000
   12de8:	8a000024 	bhi	12e80 <__addsf3+0x190>
   12dec:	e3c00506 	bic	r0, r0, #25165824	; 0x1800000
   12df0:	e1800002 	orr	r0, r0, r2
   12df4:	e1800003 	orr	r0, r0, r3
   12df8:	e12fff1e 	bx	lr
   12dfc:	e1b0c620 	movs	ip, r0, lsr #12
   12e00:	01a00600 	moveq	r0, r0, lsl #12
   12e04:	02422406 	subeq	r2, r2, #100663296	; 0x6000000
   12e08:	e31008ff 	tst	r0, #16711680	; 0xff0000
   12e0c:	01a00400 	moveq	r0, r0, lsl #8
   12e10:	02422301 	subeq	r2, r2, #67108864	; 0x4000000
   12e14:	e310060f 	tst	r0, #15728640	; 0xf00000
   12e18:	01a00200 	moveq	r0, r0, lsl #4
   12e1c:	02422402 	subeq	r2, r2, #33554432	; 0x2000000
   12e20:	e3100503 	tst	r0, #12582912	; 0xc00000
   12e24:	01a00100 	moveq	r0, r0, lsl #2
   12e28:	02422401 	subeq	r2, r2, #16777216	; 0x1000000
   12e2c:	e3100502 	tst	r0, #8388608	; 0x800000
   12e30:	01a00080 	moveq	r0, r0, lsl #1
   12e34:	02422502 	subeq	r2, r2, #8388608	; 0x800000
   12e38:	e3520000 	cmp	r2, #0	; 0x0
   12e3c:	caffffea 	bgt	12dec <__addsf3+0xfc>
   12e40:	e1e02bc2 	mvn	r2, r2, asr #23
   12e44:	e2822002 	add	r2, r2, #2	; 0x2
   12e48:	e1830230 	orr	r0, r3, r0, lsr r2
   12e4c:	e12fff1e 	bx	lr
   12e50:	e3320000 	teq	r2, #0	; 0x0
   12e54:	02200502 	eoreq	r0, r0, #8388608	; 0x800000
   12e58:	02822502 	addeq	r2, r2, #8388608	; 0x800000
   12e5c:	e2211502 	eor	r1, r1, #8388608	; 0x800000
   12e60:	12433502 	subne	r3, r3, #8388608	; 0x800000
   12e64:	eaffffc0 	b	12d6c <__addsf3+0x7c>
   12e68:	e3a0c4ff 	mov	ip, #-16777216	; 0xff000000
   12e6c:	e00020ac 	and	r2, r0, ip, lsr #1
   12e70:	e13200ac 	teq	r2, ip, lsr #1
   12e74:	01a0014c 	moveq	r0, ip, asr #2
   12e78:	13a00000 	movne	r0, #0	; 0x0
   12e7c:	e12fff1e 	bx	lr
   12e80:	e383047f 	orr	r0, r3, #2130706432	; 0x7f000000
   12e84:	e3800502 	orr	r0, r0, #8388608	; 0x800000
   12e88:	e12fff1e 	bx	lr
   12e8c:	e13200ac 	teq	r2, ip, lsr #1
   12e90:	11a00001 	movne	r0, r1
   12e94:	013300ac 	teqeq	r3, ip, lsr #1
   12e98:	112fff1e 	bxne	lr
   12e9c:	e1b02480 	movs	r2, r0, lsl #9
   12ea0:	01b02481 	moveqs	r2, r1, lsl #9
   12ea4:	01300001 	teqeq	r0, r1
   12ea8:	13830501 	orrne	r0, r3, #4194304	; 0x400000
   12eac:	e12fff1e 	bx	lr

00012eb0 <__floatunsisf>:
   12eb0:	e3a03000 	mov	r3, #0	; 0x0
   12eb4:	ea000001 	b	12ec0 <__floatsisf+0x8>

00012eb8 <__floatsisf>:
   12eb8:	e2103102 	ands	r3, r0, #-2147483648	; 0x80000000
   12ebc:	42600000 	rsbmi	r0, r0, #0	; 0x0
   12ec0:	e3300000 	teq	r0, #0	; 0x0
   12ec4:	012fff1e 	bxeq	lr
   12ec8:	e3a01000 	mov	r1, #0	; 0x0
   12ecc:	e3a0244b 	mov	r2, #1258291200	; 0x4b000000
   12ed0:	e310033f 	tst	r0, #-67108864	; 0xfc000000
   12ed4:	0affffb1 	beq	12da0 <__addsf3+0xb0>
   12ed8:	e310020f 	tst	r0, #-268435456	; 0xf0000000
   12edc:	11a01e00 	movne	r1, r0, lsl #28
   12ee0:	11a00220 	movne	r0, r0, lsr #4
   12ee4:	12822402 	addne	r2, r2, #33554432	; 0x2000000
   12ee8:	e3100303 	tst	r0, #201326592	; 0xc000000
   12eec:	0affffab 	beq	12da0 <__addsf3+0xb0>
   12ef0:	e1a01121 	mov	r1, r1, lsr #2
   12ef4:	e1811f00 	orr	r1, r1, r0, lsl #30
   12ef8:	e1a00120 	mov	r0, r0, lsr #2
   12efc:	e2822401 	add	r2, r2, #16777216	; 0x1000000
   12f00:	eaffffa6 	b	12da0 <__addsf3+0xb0>

00012f04 <__mulsf3>:
   12f04:	e3a0c4ff 	mov	ip, #-16777216	; 0xff000000
   12f08:	e00020ac 	and	r2, r0, ip, lsr #1
   12f0c:	e00130ac 	and	r3, r1, ip, lsr #1
   12f10:	e13200ac 	teq	r2, ip, lsr #1
   12f14:	113300ac 	teqne	r3, ip, lsr #1
   12f18:	0a000048 	beq	13040 <__mulsf3+0x13c>
   12f1c:	e3d0c102 	bics	ip, r0, #-2147483648	; 0x80000000
   12f20:	13d1c102 	bicnes	ip, r1, #-2147483648	; 0x80000000
   12f24:	0a00001e 	beq	12fa4 <__mulsf3+0xa0>
   12f28:	e1b020a2 	movs	r2, r2, lsr #1
   12f2c:	13330000 	teqne	r3, #0	; 0x0
   12f30:	0a000033 	beq	13004 <__mulsf3+0x100>
   12f34:	e08220c3 	add	r2, r2, r3, asr #1
   12f38:	e1300001 	teq	r0, r1
   12f3c:	43822902 	orrmi	r2, r2, #32768	; 0x8000
   12f40:	e3c004ff 	bic	r0, r0, #-16777216	; 0xff000000
   12f44:	e3c114ff 	bic	r1, r1, #-16777216	; 0xff000000
   12f48:	e3800502 	orr	r0, r0, #8388608	; 0x800000
   12f4c:	e3811502 	orr	r1, r1, #8388608	; 0x800000
   12f50:	e08c3190 	umull	r3, ip, r0, r1
   12f54:	e1a00802 	mov	r0, r2, lsl #16
   12f58:	e3c22902 	bic	r2, r2, #32768	; 0x8000
   12f5c:	e31c0902 	tst	ip, #32768	; 0x8000
   12f60:	12822501 	addne	r2, r2, #4194304	; 0x400000
   12f64:	11b0c0ac 	movnes	ip, ip, lsr #1
   12f68:	11a03063 	movne	r3, r3, rrx
   12f6c:	e252257f 	subs	r2, r2, #532676608	; 0x1fc00000
   12f70:	da00000e 	ble	12fb0 <__mulsf3+0xac>
   12f74:	e1900ba3 	orrs	r0, r0, r3, lsr #23
   12f78:	e0a0048c 	adc	r0, r0, ip, lsl #9
   12f7c:	e1a03483 	mov	r3, r3, lsl #9
   12f80:	e3330102 	teq	r3, #-2147483648	; 0x80000000
   12f84:	03c00001 	biceq	r0, r0, #1	; 0x1
   12f88:	e3100401 	tst	r0, #16777216	; 0x1000000
   12f8c:	12822501 	addne	r2, r2, #4194304	; 0x400000
   12f90:	e35205ff 	cmp	r2, #1069547520	; 0x3fc00000
   12f94:	aa000037 	bge	13078 <__mulsf3+0x174>
   12f98:	e3c00506 	bic	r0, r0, #25165824	; 0x1800000
   12f9c:	e1800082 	orr	r0, r0, r2, lsl #1
   12fa0:	e12fff1e 	bx	lr
   12fa4:	e0200001 	eor	r0, r0, r1
   12fa8:	e2000102 	and	r0, r0, #-2147483648	; 0x80000000
   12fac:	e12fff1e 	bx	lr
   12fb0:	e3720406 	cmn	r2, #100663296	; 0x6000000
   12fb4:	d12fff1e 	bxle	lr
   12fb8:	e1e01b42 	mvn	r1, r2, asr #22
   12fbc:	e2511007 	subs	r1, r1, #7	; 0x7
   12fc0:	ca000007 	bgt	12fe4 <__mulsf3+0xe0>
   12fc4:	e2811020 	add	r1, r1, #32	; 0x20
   12fc8:	e1900133 	orrs	r0, r0, r3, lsr r1
   12fcc:	e2611020 	rsb	r1, r1, #32	; 0x20
   12fd0:	e0a0011c 	adc	r0, r0, ip, lsl r1
   12fd4:	e1a0c113 	mov	ip, r3, lsl r1
   12fd8:	e33c0102 	teq	ip, #-2147483648	; 0x80000000
   12fdc:	03c00001 	biceq	r0, r0, #1	; 0x1
   12fe0:	e12fff1e 	bx	lr
   12fe4:	e190013c 	orrs	r0, r0, ip, lsr r1
   12fe8:	e2a00000 	adc	r0, r0, #0	; 0x0
   12fec:	e2611020 	rsb	r1, r1, #32	; 0x20
   12ff0:	e1a0c11c 	mov	ip, ip, lsl r1
   12ff4:	e3330000 	teq	r3, #0	; 0x0
   12ff8:	033c0102 	teqeq	ip, #-2147483648	; 0x80000000
   12ffc:	03c00001 	biceq	r0, r0, #1	; 0x1
   13000:	e12fff1e 	bx	lr
   13004:	e3320000 	teq	r2, #0	; 0x0
   13008:	e200c102 	and	ip, r0, #-2147483648	; 0x80000000
   1300c:	01a00080 	moveq	r0, r0, lsl #1
   13010:	03100502 	tsteq	r0, #8388608	; 0x800000
   13014:	02422501 	subeq	r2, r2, #4194304	; 0x400000
   13018:	0afffffb 	beq	1300c <__mulsf3+0x108>
   1301c:	e180000c 	orr	r0, r0, ip
   13020:	e3330000 	teq	r3, #0	; 0x0
   13024:	e201c102 	and	ip, r1, #-2147483648	; 0x80000000
   13028:	01a01081 	moveq	r1, r1, lsl #1
   1302c:	03110502 	tsteq	r1, #8388608	; 0x800000
   13030:	02433502 	subeq	r3, r3, #8388608	; 0x800000
   13034:	0afffffb 	beq	13028 <__mulsf3+0x124>
   13038:	e181100c 	orr	r1, r1, ip
   1303c:	eaffffbc 	b	12f34 <__mulsf3+0x30>
   13040:	e3300000 	teq	r0, #0	; 0x0
   13044:	13310000 	teqne	r1, #0	; 0x0
   13048:	13300102 	teqne	r0, #-2147483648	; 0x80000000
   1304c:	13310102 	teqne	r1, #-2147483648	; 0x80000000
   13050:	0a00000c 	beq	13088 <__mulsf3+0x184>
   13054:	e13200ac 	teq	r2, ip, lsr #1
   13058:	1a000001 	bne	13064 <__mulsf3+0x160>
   1305c:	e1b02480 	movs	r2, r0, lsl #9
   13060:	1a000008 	bne	13088 <__mulsf3+0x184>
   13064:	e13300ac 	teq	r3, ip, lsr #1
   13068:	1a000001 	bne	13074 <__mulsf3+0x170>
   1306c:	e1b03481 	movs	r3, r1, lsl #9
   13070:	1a000004 	bne	13088 <__mulsf3+0x184>
   13074:	e0200001 	eor	r0, r0, r1
   13078:	e2000102 	and	r0, r0, #-2147483648	; 0x80000000
   1307c:	e380047f 	orr	r0, r0, #2130706432	; 0x7f000000
   13080:	e3800502 	orr	r0, r0, #8388608	; 0x800000
   13084:	e12fff1e 	bx	lr
   13088:	e3a0047f 	mov	r0, #2130706432	; 0x7f000000
   1308c:	e3800503 	orr	r0, r0, #12582912	; 0xc00000
   13090:	e12fff1e 	bx	lr

00013094 <__divsf3>:
   13094:	e3a0c4ff 	mov	ip, #-16777216	; 0xff000000
   13098:	e00020ac 	and	r2, r0, ip, lsr #1
   1309c:	e00130ac 	and	r3, r1, ip, lsr #1
   130a0:	e13200ac 	teq	r2, ip, lsr #1
   130a4:	113300ac 	teqne	r3, ip, lsr #1
   130a8:	13d0c102 	bicnes	ip, r0, #-2147483648	; 0x80000000
   130ac:	13d1c102 	bicnes	ip, r1, #-2147483648	; 0x80000000
   130b0:	0a00004c 	beq	131e8 <__divsf3+0x154>
   130b4:	e1b020a2 	movs	r2, r2, lsr #1
   130b8:	13330000 	teqne	r3, #0	; 0x0
   130bc:	0a00003a 	beq	131ac <__divsf3+0x118>
   130c0:	e04220c3 	sub	r2, r2, r3, asr #1
   130c4:	e020c001 	eor	ip, r0, r1
   130c8:	e3a03201 	mov	r3, #268435456	; 0x10000000
   130cc:	e1b01481 	movs	r1, r1, lsl #9
   130d0:	e1a00480 	mov	r0, r0, lsl #9
   130d4:	0a000022 	beq	13164 <__divsf3+0xd0>
   130d8:	e1831221 	orr	r1, r3, r1, lsr #4
   130dc:	e1833220 	orr	r3, r3, r0, lsr #4
   130e0:	e20c0102 	and	r0, ip, #-2147483648	; 0x80000000
   130e4:	e1530001 	cmp	r3, r1
   130e8:	32422501 	subcc	r2, r2, #4194304	; 0x400000
   130ec:	31a03083 	movcc	r3, r3, lsl #1
   130f0:	e282257f 	add	r2, r2, #532676608	; 0x1fc00000
   130f4:	e3720406 	cmn	r2, #100663296	; 0x6000000
   130f8:	d12fff1e 	bxle	lr
   130fc:	e35205ff 	cmp	r2, #1069547520	; 0x3fc00000
   13100:	aaffffdc 	bge	13078 <__mulsf3+0x174>
   13104:	e3a0c502 	mov	ip, #8388608	; 0x800000
   13108:	e1530001 	cmp	r3, r1
   1310c:	20433001 	subcs	r3, r3, r1
   13110:	2180000c 	orrcs	r0, r0, ip
   13114:	e15300a1 	cmp	r3, r1, lsr #1
   13118:	204330a1 	subcs	r3, r3, r1, lsr #1
   1311c:	218000ac 	orrcs	r0, r0, ip, lsr #1
   13120:	e1530121 	cmp	r3, r1, lsr #2
   13124:	20433121 	subcs	r3, r3, r1, lsr #2
   13128:	2180012c 	orrcs	r0, r0, ip, lsr #2
   1312c:	e15301a1 	cmp	r3, r1, lsr #3
   13130:	204331a1 	subcs	r3, r3, r1, lsr #3
   13134:	218001ac 	orrcs	r0, r0, ip, lsr #3
   13138:	e1b03203 	movs	r3, r3, lsl #4
   1313c:	11b0c22c 	movnes	ip, ip, lsr #4
   13140:	1afffff0 	bne	13108 <__divsf3+0x74>
   13144:	e3520000 	cmp	r2, #0	; 0x0
   13148:	da000012 	ble	13198 <__divsf3+0x104>
   1314c:	e1530001 	cmp	r3, r1
   13150:	22800001 	addcs	r0, r0, #1	; 0x1
   13154:	03c00001 	biceq	r0, r0, #1	; 0x1
   13158:	e3c00502 	bic	r0, r0, #8388608	; 0x800000
   1315c:	e1800082 	orr	r0, r0, r2, lsl #1
   13160:	e12fff1e 	bx	lr
   13164:	e20cc102 	and	ip, ip, #-2147483648	; 0x80000000
   13168:	e18c04a0 	orr	r0, ip, r0, lsr #9
   1316c:	e282257f 	add	r2, r2, #532676608	; 0x1fc00000
   13170:	e35205ff 	cmp	r2, #1069547520	; 0x3fc00000
   13174:	aaffffbf 	bge	13078 <__mulsf3+0x174>
   13178:	e3520000 	cmp	r2, #0	; 0x0
   1317c:	c1800082 	orrgt	r0, r0, r2, lsl #1
   13180:	c12fff1e 	bxgt	lr
   13184:	e3720406 	cmn	r2, #100663296	; 0x6000000
   13188:	d1a0000c 	movle	r0, ip
   1318c:	d12fff1e 	bxle	lr
   13190:	e3800502 	orr	r0, r0, #8388608	; 0x800000
   13194:	e3a03000 	mov	r3, #0	; 0x0
   13198:	e3c0c102 	bic	ip, r0, #-2147483648	; 0x80000000
   1319c:	e2000102 	and	r0, r0, #-2147483648	; 0x80000000
   131a0:	e1e01b42 	mvn	r1, r2, asr #22
   131a4:	e2811002 	add	r1, r1, #2	; 0x2
   131a8:	eaffff8d 	b	12fe4 <__mulsf3+0xe0>
   131ac:	e3320000 	teq	r2, #0	; 0x0
   131b0:	e200c102 	and	ip, r0, #-2147483648	; 0x80000000
   131b4:	01a00080 	moveq	r0, r0, lsl #1
   131b8:	03100502 	tsteq	r0, #8388608	; 0x800000
   131bc:	02422501 	subeq	r2, r2, #4194304	; 0x400000
   131c0:	0afffffb 	beq	131b4 <__divsf3+0x120>
   131c4:	e180000c 	orr	r0, r0, ip
   131c8:	e3330000 	teq	r3, #0	; 0x0
   131cc:	e201c102 	and	ip, r1, #-2147483648	; 0x80000000
   131d0:	01a01081 	moveq	r1, r1, lsl #1
   131d4:	03110502 	tsteq	r1, #8388608	; 0x800000
   131d8:	02433502 	subeq	r3, r3, #8388608	; 0x800000
   131dc:	0afffffb 	beq	131d0 <__divsf3+0x13c>
   131e0:	e181100c 	orr	r1, r1, ip
   131e4:	eaffffb5 	b	130c0 <__divsf3+0x2c>
   131e8:	e3a0c4ff 	mov	ip, #-16777216	; 0xff000000
   131ec:	e13200ac 	teq	r2, ip, lsr #1
   131f0:	013300ac 	teqeq	r3, ip, lsr #1
   131f4:	0affffa3 	beq	13088 <__mulsf3+0x184>
   131f8:	e13200ac 	teq	r2, ip, lsr #1
   131fc:	1a000002 	bne	1320c <__divsf3+0x178>
   13200:	e1b02480 	movs	r2, r0, lsl #9
   13204:	1affff9f 	bne	13088 <__mulsf3+0x184>
   13208:	eaffff99 	b	13074 <__mulsf3+0x170>
   1320c:	e13300ac 	teq	r3, ip, lsr #1
   13210:	1a000002 	bne	13220 <__divsf3+0x18c>
   13214:	e1b03481 	movs	r3, r1, lsl #9
   13218:	1affff9a 	bne	13088 <__mulsf3+0x184>
   1321c:	eaffff60 	b	12fa4 <__mulsf3+0xa0>
   13220:	e3d02102 	bics	r2, r0, #-2147483648	; 0x80000000
   13224:	1affff92 	bne	13074 <__mulsf3+0x170>
   13228:	e3d13102 	bics	r3, r1, #-2147483648	; 0x80000000
   1322c:	1affff5c 	bne	12fa4 <__mulsf3+0xa0>
   13230:	eaffff94 	b	13088 <__mulsf3+0x184>

00013234 <__gesf2>:
   13234:	e3e03000 	mvn	r3, #0	; 0x0
   13238:	ea000002 	b	13248 <__cmpsf2+0x4>

0001323c <__lesf2>:
   1323c:	e3a03001 	mov	r3, #1	; 0x1
   13240:	ea000000 	b	13248 <__cmpsf2+0x4>

00013244 <__cmpsf2>:
   13244:	e3a03001 	mov	r3, #1	; 0x1
   13248:	e3a0c4ff 	mov	ip, #-16777216	; 0xff000000
   1324c:	e00120ac 	and	r2, r1, ip, lsr #1
   13250:	e13200ac 	teq	r2, ip, lsr #1
   13254:	e00020ac 	and	r2, r0, ip, lsr #1
   13258:	113200ac 	teqne	r2, ip, lsr #1
   1325c:	0a00000f 	beq	132a0 <__cmpsf2+0x5c>
   13260:	e1803001 	orr	r3, r0, r1
   13264:	e3d33102 	bics	r3, r3, #-2147483648	; 0x80000000
   13268:	11300001 	teqne	r0, r1
   1326c:	03a00000 	moveq	r0, #0	; 0x0
   13270:	012fff1e 	bxeq	lr
   13274:	41a00fc0 	movmi	r0, r0, asr #31
   13278:	43800001 	orrmi	r0, r0, #1	; 0x1
   1327c:	412fff1e 	bxmi	lr
   13280:	e00130ac 	and	r3, r1, ip, lsr #1
   13284:	e1520003 	cmp	r2, r3
   13288:	01a00480 	moveq	r0, r0, lsl #9
   1328c:	01500481 	cmpeq	r0, r1, lsl #9
   13290:	21a00fc1 	movcs	r0, r1, asr #31
   13294:	31e00fc1 	mvncc	r0, r1, asr #31
   13298:	e3800001 	orr	r0, r0, #1	; 0x1
   1329c:	e12fff1e 	bx	lr
   132a0:	e00120ac 	and	r2, r1, ip, lsr #1
   132a4:	e13200ac 	teq	r2, ip, lsr #1
   132a8:	1a000001 	bne	132b4 <__cmpsf2+0x70>
   132ac:	e1b02481 	movs	r2, r1, lsl #9
   132b0:	1a000004 	bne	132c8 <__cmpsf2+0x84>
   132b4:	e00020ac 	and	r2, r0, ip, lsr #1
   132b8:	e13200ac 	teq	r2, ip, lsr #1
   132bc:	1affffe7 	bne	13260 <__cmpsf2+0x1c>
   132c0:	e1b0c480 	movs	ip, r0, lsl #9
   132c4:	0affffe5 	beq	13260 <__cmpsf2+0x1c>
   132c8:	e1a00003 	mov	r0, r3
   132cc:	e12fff1e 	bx	lr

000132d0 <__fixsfsi>:
   132d0:	e1b00080 	movs	r0, r0, lsl #1
   132d4:	012fff1e 	bxeq	lr
   132d8:	e1a01061 	mov	r1, r1, rrx
   132dc:	e20024ff 	and	r2, r0, #-16777216	; 0xff000000
   132e0:	e352047f 	cmp	r2, #2130706432	; 0x7f000000
   132e4:	33a00000 	movcc	r0, #0	; 0x0
   132e8:	312fff1e 	bxcc	lr
   132ec:	e352049e 	cmp	r2, #-1644167168	; 0x9e000000
   132f0:	2a000007 	bcs	13314 <__fixsfsi+0x44>
   132f4:	e1a00380 	mov	r0, r0, lsl #7
   132f8:	e3800102 	orr	r0, r0, #-2147483648	; 0x80000000
   132fc:	e1a02c22 	mov	r2, r2, lsr #24
   13300:	e262209e 	rsb	r2, r2, #158	; 0x9e
   13304:	e3110102 	tst	r1, #-2147483648	; 0x80000000
   13308:	e1a00230 	mov	r0, r0, lsr r2
   1330c:	12600000 	rsbne	r0, r0, #0	; 0x0
   13310:	e12fff1e 	bx	lr
   13314:	e33204ff 	teq	r2, #-16777216	; 0xff000000
   13318:	1a000001 	bne	13324 <__fixsfsi+0x54>
   1331c:	e1b00400 	movs	r0, r0, lsl #8
   13320:	1a000002 	bne	13330 <__fixsfsi+0x60>
   13324:	e2110102 	ands	r0, r1, #-2147483648	; 0x80000000
   13328:	03e00102 	mvneq	r0, #-2147483648	; 0x80000000
   1332c:	e12fff1e 	bx	lr
   13330:	e3a00000 	mov	r0, #0	; 0x0
   13334:	e12fff1e 	bx	lr

00013338 <memcpy>:
   13338:	e352000f 	cmp	r2, #15	; 0xf
   1333c:	e1a0c002 	mov	ip, r2
   13340:	e52de004 	str	lr, [sp, #-4]!
   13344:	e1a02000 	mov	r2, r0
   13348:	9a000016 	bls	133a8 <memcpy+0x70>
   1334c:	e1813000 	orr	r3, r1, r0
   13350:	e3130003 	tst	r3, #3	; 0x3
   13354:	1a000013 	bne	133a8 <memcpy+0x70>
   13358:	e1a0e000 	mov	lr, r0
   1335c:	e4913004 	ldr	r3, [r1], #4
   13360:	e48e3004 	str	r3, [lr], #4
   13364:	e4912004 	ldr	r2, [r1], #4
   13368:	e48e2004 	str	r2, [lr], #4
   1336c:	e4913004 	ldr	r3, [r1], #4
   13370:	e48e3004 	str	r3, [lr], #4
   13374:	e24cc010 	sub	ip, ip, #16	; 0x10
   13378:	e4913004 	ldr	r3, [r1], #4
   1337c:	e35c000f 	cmp	ip, #15	; 0xf
   13380:	e48e3004 	str	r3, [lr], #4
   13384:	8afffff4 	bhi	1335c <memcpy+0x24>
   13388:	e35c0003 	cmp	ip, #3	; 0x3
   1338c:	9a000004 	bls	133a4 <memcpy+0x6c>
   13390:	e4913004 	ldr	r3, [r1], #4
   13394:	e24cc004 	sub	ip, ip, #4	; 0x4
   13398:	e35c0003 	cmp	ip, #3	; 0x3
   1339c:	e48e3004 	str	r3, [lr], #4
   133a0:	8afffffa 	bhi	13390 <memcpy+0x58>
   133a4:	e1a0200e 	mov	r2, lr
   133a8:	e25cc001 	subs	ip, ip, #1	; 0x1
   133ac:	349df004 	ldrcc	pc, [sp], #4
   133b0:	e24cc001 	sub	ip, ip, #1	; 0x1
   133b4:	e4d13001 	ldrb	r3, [r1], #1
   133b8:	e37c0001 	cmn	ip, #1	; 0x1
   133bc:	e4c23001 	strb	r3, [r2], #1
   133c0:	1afffffa 	bne	133b0 <memcpy+0x78>
   133c4:	e49df004 	ldr	pc, [sp], #4
